	.text
	.syntax unified
	.eabi_attribute	67, "2.09"	@ Tag_conformance
	.cpu	cortex-m4
	.eabi_attribute	6, 13	@ Tag_CPU_arch
	.eabi_attribute	7, 77	@ Tag_CPU_arch_profile
	.eabi_attribute	8, 0	@ Tag_ARM_ISA_use
	.eabi_attribute	9, 2	@ Tag_THUMB_ISA_use
	.fpu	fpv4-sp-d16
	.eabi_attribute	27, 1	@ Tag_ABI_HardFP_use
	.eabi_attribute	36, 1	@ Tag_FP_HP_extension
	.eabi_attribute	34, 1	@ Tag_CPU_unaligned_access
	.eabi_attribute	17, 1	@ Tag_ABI_PCS_GOT_use
	.eabi_attribute	20, 2	@ Tag_ABI_FP_denormal
	.eabi_attribute	21, 0	@ Tag_ABI_FP_exceptions
	.eabi_attribute	23, 1	@ Tag_ABI_FP_number_model
	.eabi_attribute	24, 1	@ Tag_ABI_align_needed
	.eabi_attribute	25, 1	@ Tag_ABI_align_preserved
	.eabi_attribute	28, 1	@ Tag_ABI_VFP_args
	.eabi_attribute	38, 1	@ Tag_ABI_FP_16bit_format
	.eabi_attribute	18, 2	@ Tag_ABI_PCS_wchar_t
	.eabi_attribute	26, 1	@ Tag_ABI_enum_size
	.eabi_attribute	14, 0	@ Tag_ABI_PCS_R9_use
	.file	"i2c.c"
	.file	1 "e:\\Keil_v5\\ARM\\ARMCLANG\\Bin\\..\\include" "stdint.h"
	.file	2 "C:\\Users\\DELL\\Desktop\\NewFolder\\OpticalFiberAmplifierTestRack\\MDK-ARM" "../Drivers/CMSIS/Device/ST/STM32F4xx/Include/stm32f407xx.h"
	.file	3 "C:\\Users\\DELL\\Desktop\\NewFolder\\OpticalFiberAmplifierTestRack\\MDK-ARM" "../Drivers/STM32F4xx_HAL_Driver/Inc\\stm32f4xx_hal_i2c.h"
	.file	4 "C:\\Users\\DELL\\Desktop\\NewFolder\\OpticalFiberAmplifierTestRack\\MDK-ARM" "../Drivers/STM32F4xx_HAL_Driver/Inc\\stm32f4xx_hal_dma.h"
	.file	5 "C:\\Users\\DELL\\Desktop\\NewFolder\\OpticalFiberAmplifierTestRack\\MDK-ARM" "../Drivers/STM32F4xx_HAL_Driver/Inc/stm32f4xx_hal_def.h"
	.file	6 "C:\\Users\\DELL\\Desktop\\NewFolder\\OpticalFiberAmplifierTestRack\\MDK-ARM" "../Core/Src/i2c.c"
	.section	.text.MX_I2C1_Init,"ax",%progbits
	.hidden	MX_I2C1_Init                    @ -- Begin function MX_I2C1_Init
	.globl	MX_I2C1_Init
	.p2align	2
	.type	MX_I2C1_Init,%function
	.code	16                              @ @MX_I2C1_Init
	.thumb_func
MX_I2C1_Init:
.Lfunc_begin0:
	.loc	6 33 0                          @ ../Core/Src/i2c.c:33:0
	.fnstart
	.cfi_sections .debug_frame
	.cfi_startproc
@ %bb.0:
	.save	{r7, lr}
	push	{r7, lr}
	.cfi_def_cfa_offset 8
	.cfi_offset lr, -4
	.cfi_offset r7, -8
	.pad	#8
	sub	sp, #8
	.cfi_def_cfa_offset 16
.Ltmp0:
	.loc	6 42 18 prologue_end            @ ../Core/Src/i2c.c:42:18
	movw	r0, :lower16:hi2c1
	movt	r0, :upper16:hi2c1
	str	r0, [sp, #4]                    @ 4-byte Spill
	movw	r1, #21504
	movt	r1, #16384
	str	r1, [r0]
	movw	r1, #34464
	movt	r1, #1
	.loc	6 43 25                         @ ../Core/Src/i2c.c:43:25
	str	r1, [r0, #4]
	movs	r1, #0
	.loc	6 44 24                         @ ../Core/Src/i2c.c:44:24
	str	r1, [r0, #8]
	.loc	6 45 26                         @ ../Core/Src/i2c.c:45:26
	str	r1, [r0, #12]
	mov.w	r2, #16384
	.loc	6 46 29                         @ ../Core/Src/i2c.c:46:29
	str	r2, [r0, #16]
	.loc	6 47 30                         @ ../Core/Src/i2c.c:47:30
	str	r1, [r0, #20]
	.loc	6 48 26                         @ ../Core/Src/i2c.c:48:26
	str	r1, [r0, #24]
	.loc	6 49 30                         @ ../Core/Src/i2c.c:49:30
	str	r1, [r0, #28]
	.loc	6 50 28                         @ ../Core/Src/i2c.c:50:28
	str	r1, [r0, #32]
.Ltmp1:
	.loc	6 51 7                          @ ../Core/Src/i2c.c:51:7
	bl	HAL_I2C_Init
.Ltmp2:
	.loc	6 51 7 is_stmt 0                @ ../Core/Src/i2c.c:51:7
	cbz	r0, .LBB0_2
	b	.LBB0_1
.LBB0_1:
.Ltmp3:
	.loc	6 53 5 is_stmt 1                @ ../Core/Src/i2c.c:53:5
	bl	Error_Handler
	.loc	6 54 3                          @ ../Core/Src/i2c.c:54:3
	b	.LBB0_2
.Ltmp4:
.LBB0_2:
	.loc	6 59 1                          @ ../Core/Src/i2c.c:59:1
	add	sp, #8
	pop	{r7, pc}
.Ltmp5:
.Lfunc_end0:
	.size	MX_I2C1_Init, .Lfunc_end0-MX_I2C1_Init
	.cfi_endproc
	.cantunwind
	.fnend
                                        @ -- End function
	.section	.text.HAL_I2C_MspInit,"ax",%progbits
	.hidden	HAL_I2C_MspInit                 @ -- Begin function HAL_I2C_MspInit
	.globl	HAL_I2C_MspInit
	.p2align	2
	.type	HAL_I2C_MspInit,%function
	.code	16                              @ @HAL_I2C_MspInit
	.thumb_func
HAL_I2C_MspInit:
.Lfunc_begin1:
	.loc	6 62 0                          @ ../Core/Src/i2c.c:62:0
	.fnstart
	.cfi_startproc
@ %bb.0:
	.save	{r7, lr}
	push	{r7, lr}
	.cfi_def_cfa_offset 8
	.cfi_offset lr, -4
	.cfi_offset r7, -8
	.pad	#56
	sub	sp, #56
	.cfi_def_cfa_offset 64
	str	r0, [sp, #52]
	movs	r0, #0
.Ltmp6:
	.loc	6 64 20 prologue_end            @ ../Core/Src/i2c.c:64:20
	str	r0, [sp, #48]
	str	r0, [sp, #44]
	str	r0, [sp, #40]
	str	r0, [sp, #36]
	str	r0, [sp, #32]
.Ltmp7:
	.loc	6 65 6                          @ ../Core/Src/i2c.c:65:6
	ldr	r0, [sp, #52]
	.loc	6 65 17 is_stmt 0               @ ../Core/Src/i2c.c:65:17
	ldr	r0, [r0]
	movw	r1, #21504
	movt	r1, #16384
.Ltmp8:
	.loc	6 65 6                          @ ../Core/Src/i2c.c:65:6
	cmp	r0, r1
	bne.w	.LBB1_16
	b	.LBB1_1
.LBB1_1:
.Ltmp9:
	.loc	6 68 5 is_stmt 1                @ ../Core/Src/i2c.c:68:5
	b	.LBB1_2
.LBB1_2:
	.loc	6 0 5 is_stmt 0                 @ ../Core/Src/i2c.c:0:5
	movs	r0, #0
.Ltmp10:
	.loc	6 68 5                          @ ../Core/Src/i2c.c:68:5
	str	r0, [sp, #28]
	movw	r0, #14400
	movt	r0, #16386
	ldr	r1, [r0]
	orr	r1, r1, #2097152
	str	r1, [r0]
	ldr	r0, [r0]
	and	r0, r0, #2097152
	str	r0, [sp, #28]
	ldr	r0, [sp, #28]
	b	.LBB1_3
.Ltmp11:
.LBB1_3:
	.loc	6 71 5 is_stmt 1                @ ../Core/Src/i2c.c:71:5
	b	.LBB1_4
.LBB1_4:
	.loc	6 0 5 is_stmt 0                 @ ../Core/Src/i2c.c:0:5
	movs	r0, #0
.Ltmp12:
	.loc	6 71 5                          @ ../Core/Src/i2c.c:71:5
	str	r0, [sp, #24]
	movw	r0, #14384
	movt	r0, #16386
	ldr	r1, [r0]
	orr	r1, r1, #2
	str	r1, [r0]
	ldr	r0, [r0]
	and	r0, r0, #2
	str	r0, [sp, #24]
	ldr	r0, [sp, #24]
	b	.LBB1_5
.Ltmp13:
.LBB1_5:
	.loc	6 0 5                           @ ../Core/Src/i2c.c:0:5
	movs	r0, #192
	.loc	6 76 25 is_stmt 1               @ ../Core/Src/i2c.c:76:25
	str	r0, [sp, #32]
	movs	r0, #18
	.loc	6 77 26                         @ ../Core/Src/i2c.c:77:26
	str	r0, [sp, #36]
	movs	r0, #0
	.loc	6 78 26                         @ ../Core/Src/i2c.c:78:26
	str	r0, [sp, #40]
	movs	r0, #3
	.loc	6 79 27                         @ ../Core/Src/i2c.c:79:27
	str	r0, [sp, #44]
	movs	r0, #4
	.loc	6 80 31                         @ ../Core/Src/i2c.c:80:31
	str	r0, [sp, #48]
	movw	r0, #1024
	movt	r0, #16386
	add	r1, sp, #32
	.loc	6 81 5                          @ ../Core/Src/i2c.c:81:5
	bl	HAL_GPIO_Init
	.loc	6 84 5                          @ ../Core/Src/i2c.c:84:5
	b	.LBB1_6
.LBB1_6:
	.loc	6 0 5 is_stmt 0                 @ ../Core/Src/i2c.c:0:5
	movs	r0, #0
.Ltmp14:
	.loc	6 84 5                          @ ../Core/Src/i2c.c:84:5
	str	r0, [sp, #20]
	movw	r0, #14400
	movt	r0, #16386
	ldr	r1, [r0]
	orr	r1, r1, #2097152
	str	r1, [r0]
	ldr	r0, [r0]
	and	r0, r0, #2097152
	str	r0, [sp, #20]
	ldr	r0, [sp, #20]
	b	.LBB1_7
.Ltmp15:
.LBB1_7:
	.loc	6 88 27 is_stmt 1               @ ../Core/Src/i2c.c:88:27
	movw	r0, :lower16:hdma_i2c1_rx
	movt	r0, :upper16:hdma_i2c1_rx
	str	r0, [sp, #16]                   @ 4-byte Spill
	movw	r1, #24592
	movt	r1, #16386
	str	r1, [r0]
	mov.w	r1, #33554432
	.loc	6 89 31                         @ ../Core/Src/i2c.c:89:31
	str	r1, [r0, #4]
	movs	r1, #0
	.loc	6 90 33                         @ ../Core/Src/i2c.c:90:33
	str	r1, [r0, #8]
	.loc	6 91 33                         @ ../Core/Src/i2c.c:91:33
	str	r1, [r0, #12]
	mov.w	r2, #1024
	.loc	6 92 30                         @ ../Core/Src/i2c.c:92:30
	str	r2, [r0, #16]
	.loc	6 93 43                         @ ../Core/Src/i2c.c:93:43
	str	r1, [r0, #20]
	.loc	6 94 40                         @ ../Core/Src/i2c.c:94:40
	str	r1, [r0, #24]
	.loc	6 95 28                         @ ../Core/Src/i2c.c:95:28
	str	r1, [r0, #28]
	.loc	6 96 32                         @ ../Core/Src/i2c.c:96:32
	str	r1, [r0, #32]
	.loc	6 97 32                         @ ../Core/Src/i2c.c:97:32
	str	r1, [r0, #36]
.Ltmp16:
	.loc	6 98 9                          @ ../Core/Src/i2c.c:98:9
	bl	HAL_DMA_Init
.Ltmp17:
	.loc	6 98 9 is_stmt 0                @ ../Core/Src/i2c.c:98:9
	cbz	r0, .LBB1_9
	b	.LBB1_8
.LBB1_8:
.Ltmp18:
	.loc	6 100 7 is_stmt 1               @ ../Core/Src/i2c.c:100:7
	bl	Error_Handler
	.loc	6 101 5                         @ ../Core/Src/i2c.c:101:5
	b	.LBB1_9
.Ltmp19:
.LBB1_9:
	.loc	6 103 5                         @ ../Core/Src/i2c.c:103:5
	b	.LBB1_10
.LBB1_10:
.Ltmp20:
	.loc	6 103 5 is_stmt 0               @ ../Core/Src/i2c.c:103:5
	ldr	r0, [sp, #52]
	movw	r1, :lower16:hdma_i2c1_rx
	movt	r1, :upper16:hdma_i2c1_rx
	str	r1, [r0, #56]
	ldr	r0, [sp, #52]
	str	r0, [r1, #56]
	b	.LBB1_11
.Ltmp21:
.LBB1_11:
	.loc	6 106 27 is_stmt 1              @ ../Core/Src/i2c.c:106:27
	movw	r0, :lower16:hdma_i2c1_tx
	movt	r0, :upper16:hdma_i2c1_tx
	str	r0, [sp, #12]                   @ 4-byte Spill
	movw	r1, #24760
	movt	r1, #16386
	str	r1, [r0]
	mov.w	r1, #33554432
	.loc	6 107 31                        @ ../Core/Src/i2c.c:107:31
	str	r1, [r0, #4]
	movs	r1, #64
	.loc	6 108 33                        @ ../Core/Src/i2c.c:108:33
	str	r1, [r0, #8]
	movs	r1, #0
	.loc	6 109 33                        @ ../Core/Src/i2c.c:109:33
	str	r1, [r0, #12]
	mov.w	r2, #1024
	.loc	6 110 30                        @ ../Core/Src/i2c.c:110:30
	str	r2, [r0, #16]
	.loc	6 111 43                        @ ../Core/Src/i2c.c:111:43
	str	r1, [r0, #20]
	.loc	6 112 40                        @ ../Core/Src/i2c.c:112:40
	str	r1, [r0, #24]
	.loc	6 113 28                        @ ../Core/Src/i2c.c:113:28
	str	r1, [r0, #28]
	.loc	6 114 32                        @ ../Core/Src/i2c.c:114:32
	str	r1, [r0, #32]
	.loc	6 115 32                        @ ../Core/Src/i2c.c:115:32
	str	r1, [r0, #36]
.Ltmp22:
	.loc	6 116 9                         @ ../Core/Src/i2c.c:116:9
	bl	HAL_DMA_Init
.Ltmp23:
	.loc	6 116 9 is_stmt 0               @ ../Core/Src/i2c.c:116:9
	cbz	r0, .LBB1_13
	b	.LBB1_12
.LBB1_12:
.Ltmp24:
	.loc	6 118 7 is_stmt 1               @ ../Core/Src/i2c.c:118:7
	bl	Error_Handler
	.loc	6 119 5                         @ ../Core/Src/i2c.c:119:5
	b	.LBB1_13
.Ltmp25:
.LBB1_13:
	.loc	6 121 5                         @ ../Core/Src/i2c.c:121:5
	b	.LBB1_14
.LBB1_14:
.Ltmp26:
	.loc	6 121 5 is_stmt 0               @ ../Core/Src/i2c.c:121:5
	ldr	r0, [sp, #52]
	movw	r1, :lower16:hdma_i2c1_tx
	movt	r1, :upper16:hdma_i2c1_tx
	str	r1, [r0, #52]
	ldr	r0, [sp, #52]
	str	r0, [r1, #56]
	b	.LBB1_15
.Ltmp27:
.LBB1_15:
	.loc	6 0 5                           @ ../Core/Src/i2c.c:0:5
	movs	r0, #31
	str	r0, [sp]                        @ 4-byte Spill
	movs	r2, #0
	.loc	6 124 5 is_stmt 1               @ ../Core/Src/i2c.c:124:5
	str	r2, [sp, #4]                    @ 4-byte Spill
	mov	r1, r2
	bl	HAL_NVIC_SetPriority
	ldr	r0, [sp]                        @ 4-byte Reload
	.loc	6 125 5                         @ ../Core/Src/i2c.c:125:5
	bl	HAL_NVIC_EnableIRQ
	ldr	r2, [sp, #4]                    @ 4-byte Reload
	movs	r0, #32
	.loc	6 126 5                         @ ../Core/Src/i2c.c:126:5
	str	r0, [sp, #8]                    @ 4-byte Spill
	mov	r1, r2
	bl	HAL_NVIC_SetPriority
	ldr	r0, [sp, #8]                    @ 4-byte Reload
	.loc	6 127 5                         @ ../Core/Src/i2c.c:127:5
	bl	HAL_NVIC_EnableIRQ
	.loc	6 131 3                         @ ../Core/Src/i2c.c:131:3
	b	.LBB1_16
.Ltmp28:
.LBB1_16:
	.loc	6 132 1                         @ ../Core/Src/i2c.c:132:1
	add	sp, #56
	pop	{r7, pc}
.Ltmp29:
.Lfunc_end1:
	.size	HAL_I2C_MspInit, .Lfunc_end1-HAL_I2C_MspInit
	.cfi_endproc
	.cantunwind
	.fnend
                                        @ -- End function
	.section	.text.HAL_I2C_MspDeInit,"ax",%progbits
	.hidden	HAL_I2C_MspDeInit               @ -- Begin function HAL_I2C_MspDeInit
	.globl	HAL_I2C_MspDeInit
	.p2align	2
	.type	HAL_I2C_MspDeInit,%function
	.code	16                              @ @HAL_I2C_MspDeInit
	.thumb_func
HAL_I2C_MspDeInit:
.Lfunc_begin2:
	.loc	6 135 0                         @ ../Core/Src/i2c.c:135:0
	.fnstart
	.cfi_startproc
@ %bb.0:
	.save	{r7, lr}
	push	{r7, lr}
	.cfi_def_cfa_offset 8
	.cfi_offset lr, -4
	.cfi_offset r7, -8
	.pad	#8
	sub	sp, #8
	.cfi_def_cfa_offset 16
	str	r0, [sp, #4]
.Ltmp30:
	.loc	6 137 6 prologue_end            @ ../Core/Src/i2c.c:137:6
	ldr	r0, [sp, #4]
	.loc	6 137 17 is_stmt 0              @ ../Core/Src/i2c.c:137:17
	ldr	r0, [r0]
	movw	r1, #21504
	movt	r1, #16384
.Ltmp31:
	.loc	6 137 6                         @ ../Core/Src/i2c.c:137:6
	cmp	r0, r1
	bne	.LBB2_2
	b	.LBB2_1
.LBB2_1:
	.loc	6 0 6                           @ ../Core/Src/i2c.c:0:6
	movw	r1, #14400
	movt	r1, #16386
.Ltmp32:
	.loc	6 143 5 is_stmt 1               @ ../Core/Src/i2c.c:143:5
	ldr	r0, [r1]
	bic	r0, r0, #2097152
	str	r0, [r1]
	movw	r0, #1024
	movt	r0, #16386
	str	r0, [sp]                        @ 4-byte Spill
	movs	r1, #64
	.loc	6 149 5                         @ ../Core/Src/i2c.c:149:5
	bl	HAL_GPIO_DeInit
	ldr	r0, [sp]                        @ 4-byte Reload
	movs	r1, #128
	.loc	6 151 5                         @ ../Core/Src/i2c.c:151:5
	bl	HAL_GPIO_DeInit
	.loc	6 154 20                        @ ../Core/Src/i2c.c:154:20
	ldr	r0, [sp, #4]
	.loc	6 154 31 is_stmt 0              @ ../Core/Src/i2c.c:154:31
	ldr	r0, [r0, #56]
	.loc	6 154 5                         @ ../Core/Src/i2c.c:154:5
	bl	HAL_DMA_DeInit
	.loc	6 155 20 is_stmt 1              @ ../Core/Src/i2c.c:155:20
	ldr	r0, [sp, #4]
	.loc	6 155 31 is_stmt 0              @ ../Core/Src/i2c.c:155:31
	ldr	r0, [r0, #52]
	.loc	6 155 5                         @ ../Core/Src/i2c.c:155:5
	bl	HAL_DMA_DeInit
	movs	r0, #31
	.loc	6 158 5 is_stmt 1               @ ../Core/Src/i2c.c:158:5
	bl	HAL_NVIC_DisableIRQ
	movs	r0, #32
	.loc	6 159 5                         @ ../Core/Src/i2c.c:159:5
	bl	HAL_NVIC_DisableIRQ
	.loc	6 163 3                         @ ../Core/Src/i2c.c:163:3
	b	.LBB2_2
.Ltmp33:
.LBB2_2:
	.loc	6 164 1                         @ ../Core/Src/i2c.c:164:1
	add	sp, #8
	pop	{r7, pc}
.Ltmp34:
.Lfunc_end2:
	.size	HAL_I2C_MspDeInit, .Lfunc_end2-HAL_I2C_MspDeInit
	.cfi_endproc
	.cantunwind
	.fnend
                                        @ -- End function
	.hidden	hi2c1                           @ @hi2c1
	.type	hi2c1,%object
	.section	.bss.hi2c1,"aw",%nobits
	.globl	hi2c1
	.p2align	2, 0x0
hi2c1:
	.zero	84
	.size	hi2c1, 84

	.hidden	hdma_i2c1_rx                    @ @hdma_i2c1_rx
	.type	hdma_i2c1_rx,%object
	.section	.bss.hdma_i2c1_rx,"aw",%nobits
	.globl	hdma_i2c1_rx
	.p2align	2, 0x0
hdma_i2c1_rx:
	.zero	96
	.size	hdma_i2c1_rx, 96

	.hidden	hdma_i2c1_tx                    @ @hdma_i2c1_tx
	.type	hdma_i2c1_tx,%object
	.section	.bss.hdma_i2c1_tx,"aw",%nobits
	.globl	hdma_i2c1_tx
	.p2align	2, 0x0
hdma_i2c1_tx:
	.zero	96
	.size	hdma_i2c1_tx, 96

	.file	7 "C:\\Users\\DELL\\Desktop\\NewFolder\\OpticalFiberAmplifierTestRack\\MDK-ARM" "../Drivers/STM32F4xx_HAL_Driver/Inc\\stm32f4xx_hal_gpio.h"
	.section	".note.GNU-stack","",%progbits
	.eabi_attribute	30, 6	@ Tag_ABI_optimization_goals
	.ARM_attribute	16, 1	@ Tag_AV_eba