	.text
	.syntax unified
	.eabi_attribute	67, "2.09"	@ Tag_conformance
	.cpu	cortex-m4
	.eabi_attribute	6, 13	@ Tag_CPU_arch
	.eabi_attribute	7, 77	@ Tag_CPU_arch_profile
	.eabi_attribute	8, 0	@ Tag_ARM_ISA_use
	.eabi_attribute	9, 2	@ Tag_THUMB_ISA_use
	.fpu	fpv4-sp-d16
	.eabi_attribute	27, 1	@ Tag_ABI_HardFP_use
	.eabi_attribute	36, 1	@ Tag_FP_HP_extension
	.eabi_attribute	34, 1	@ Tag_CPU_unaligned_access
	.eabi_attribute	17, 1	@ Tag_ABI_PCS_GOT_use
	.eabi_attribute	20, 2	@ Tag_ABI_FP_denormal
	.eabi_attribute	21, 0	@ Tag_ABI_FP_exceptions
	.eabi_attribute	23, 1	@ Tag_ABI_FP_number_model
	.eabi_attribute	24, 1	@ Tag_ABI_align_needed
	.eabi_attribute	25, 1	@ Tag_ABI_align_preserved
	.eabi_attribute	28, 1	@ Tag_ABI_VFP_args
	.eabi_attribute	38, 1	@ Tag_ABI_FP_16bit_format
	.eabi_attribute	18, 2	@ Tag_ABI_PCS_wchar_t
	.eabi_attribute	26, 1	@ Tag_ABI_enum_size
	.eabi_attribute	14, 0	@ Tag_ABI_PCS_R9_use
	.file	"main.c"
	.file	1 "C:\\Users\\DELL\\Desktop\\NewFolder\\OpticalFiberAmplifierTestRack\\MDK-ARM" "../Core/Inc\\config.h"
	.file	2 "C:\\Users\\DELL\\Desktop\\NewFolder\\OpticalFiberAmplifierTestRack\\MDK-ARM" "../Core/Src/main.c"
	.file	3 "C:\\Users\\DELL\\Desktop\\NewFolder\\OpticalFiberAmplifierTestRack\\MDK-ARM" "../Drivers/STM32F4xx_HAL_Driver/Inc/stm32f4xx_hal_def.h"
	.file	4 "C:\\Users\\DELL\\Desktop\\NewFolder\\OpticalFiberAmplifierTestRack\\MDK-ARM" "../Drivers/STM32F4xx_HAL_Driver/Inc\\stm32f4xx_hal_gpio.h"
	.file	5 "e:\\Keil_v5\\ARM\\ARMCLANG\\Bin\\..\\include" "stdint.h"
	.file	6 "C:\\Users\\DELL\\Desktop\\NewFolder\\OpticalFiberAmplifierTestRack\\MDK-ARM" "../Drivers/CMSIS/Device/ST/STM32F4xx/Include/stm32f407xx.h"
	.section	.text.main,"ax",%progbits
	.hidden	main                            @ -- Begin function main
	.globl	main
	.p2align	2
	.type	main,%function
	.code	16                              @ @main
	.thumb_func
main:
.Lfunc_begin0:
	.loc	2 93 0                          @ ../Core/Src/main.c:93:0
	.fnstart
	.cfi_sections .debug_frame
	.cfi_startproc
@ %bb.0:
	.save	{r7, lr}
	push	{r7, lr}
	.cfi_def_cfa_offset 8
	.cfi_offset lr, -4
	.cfi_offset r7, -8
	.pad	#40
	sub	sp, #40
	.cfi_def_cfa_offset 48
	movs	r0, #0
	str	r0, [sp, #28]                   @ 4-byte Spill
	str	r0, [sp, #36]
.Ltmp0:
	.loc	2 95 2 prologue_end             @ ../Core/Src/main.c:95:2
	bl	VariableInitialization
	.loc	2 101 3                         @ ../Core/Src/main.c:101:3
	bl	HAL_Init
	.loc	2 108 3                         @ ../Core/Src/main.c:108:3
	bl	SystemClock_Config
	.loc	2 115 3                         @ ../Core/Src/main.c:115:3
	bl	MX_GPIO_Init
	.loc	2 116 3                         @ ../Core/Src/main.c:116:3
	bl	MX_USART3_UART_Init
	.loc	2 117 3                         @ ../Core/Src/main.c:117:3
	bl	MX_USART6_UART_Init
	.loc	2 118 3                         @ ../Core/Src/main.c:118:3
	bl	MX_DMA_Init
	.loc	2 119 3                         @ ../Core/Src/main.c:119:3
	bl	MX_USART1_UART_Init
	.loc	2 120 3                         @ ../Core/Src/main.c:120:3
	bl	MX_USART2_UART_Init
	.loc	2 121 3                         @ ../Core/Src/main.c:121:3
	bl	MX_I2C1_Init
	.loc	2 122 3                         @ ../Core/Src/main.c:122:3
	bl	MX_TIM9_Init
	.loc	2 123 3                         @ ../Core/Src/main.c:123:3
	bl	MX_UART4_Init
	.loc	2 124 3                         @ ../Core/Src/main.c:124:3
	bl	MX_TIM2_Init
	.loc	2 125 3                         @ ../Core/Src/main.c:125:3
	bl	MX_SDIO_SD_Init
	.loc	2 126 3                         @ ../Core/Src/main.c:126:3
	bl	MX_FATFS_Init
	.loc	2 127 3                         @ ../Core/Src/main.c:127:3
	bl	MX_TIM8_Init
	.loc	2 128 3                         @ ../Core/Src/main.c:128:3
	bl	MX_TIM4_Init
	.loc	2 132 2                         @ ../Core/Src/main.c:132:2
	movw	r0, :lower16:huart1
	movt	r0, :upper16:huart1
	str	r0, [sp, #8]                    @ 4-byte Spill
	movw	r1, :lower16:UART1_RX_BUF
	movt	r1, :upper16:UART1_RX_BUF
	mov.w	r2, #1000
	bl	HAL_UART_Receive_DMA
                                        @ kill: def $r1 killed $r0
	.loc	2 133 2                         @ ../Core/Src/main.c:133:2
	ldr	r0, [sp, #8]                    @ 4-byte Reload
	ldr	r1, [r0]
	ldr	r0, [r1, #12]
	orr	r0, r0, #16
	str	r0, [r1, #12]
	.loc	2 135 2                         @ ../Core/Src/main.c:135:2
	movw	r0, :lower16:huart3
	movt	r0, :upper16:huart3
	str	r0, [sp, #12]                   @ 4-byte Spill
	movw	r1, :lower16:UART3_RX_BUF
	movt	r1, :upper16:UART3_RX_BUF
	movs	r2, #50
	bl	HAL_UART_Receive_IT
                                        @ kill: def $r1 killed $r0
	.loc	2 136 2                         @ ../Core/Src/main.c:136:2
	ldr	r0, [sp, #12]                   @ 4-byte Reload
	ldr	r1, [r0]
	ldr	r0, [r1, #12]
	orr	r0, r0, #16
	str	r0, [r1, #12]
	.loc	2 138 2                         @ ../Core/Src/main.c:138:2
	movw	r0, :lower16:huart6
	movt	r0, :upper16:huart6
	str	r0, [sp, #20]                   @ 4-byte Spill
	movw	r1, :lower16:UART6_RX_BUF
	movt	r1, :upper16:UART6_RX_BUF
	movs	r2, #100
	str	r2, [sp, #16]                   @ 4-byte Spill
	bl	HAL_UART_Receive_IT
	ldr	r2, [sp, #16]                   @ 4-byte Reload
                                        @ kill: def $r1 killed $r0
	.loc	2 139 2                         @ ../Core/Src/main.c:139:2
	ldr	r0, [sp, #20]                   @ 4-byte Reload
	ldr	r1, [r0]
	ldr	r0, [r1, #12]
	orr	r0, r0, #16
	str	r0, [r1, #12]
	.loc	2 142 2                         @ ../Core/Src/main.c:142:2
	movw	r0, :lower16:huart4
	movt	r0, :upper16:huart4
	str	r0, [sp, #24]                   @ 4-byte Spill
	movw	r1, :lower16:UART4_RX_BUF
	movt	r1, :upper16:UART4_RX_BUF
	bl	HAL_UART_Receive_DMA
                                        @ kill: def $r1 killed $r0
	.loc	2 143 2                         @ ../Core/Src/main.c:143:2
	ldr	r0, [sp, #24]                   @ 4-byte Reload
	ldr	r1, [r0]
	ldr	r0, [r1, #12]
	orr	r0, r0, #16
	str	r0, [r1, #12]
	.loc	2 146 2                         @ ../Core/Src/main.c:146:2
	movw	r0, :lower16:htim4
	movt	r0, :upper16:htim4
	bl	HAL_TIM_Base_Start_IT
	.loc	2 157 2                         @ ../Core/Src/main.c:157:2
	bl	ReadData_EX
	ldr	r0, [sp, #28]                   @ 4-byte Reload
	.loc	2 158 2                         @ ../Core/Src/main.c:158:2
	movw	r1, :lower16:htim8
	movt	r1, :upper16:htim8
	ldr	r2, [r1]
	movs	r1, #92
	.loc	2 158 8 is_stmt 0               @ ../Core/Src/main.c:158:8
	str	r1, [r2, #52]
	movs	r1, #20
	.loc	2 160 2 is_stmt 1               @ ../Core/Src/main.c:160:2
	str	r1, [sp, #32]                   @ 4-byte Spill
	bl	PWMSetCurrent
	ldr	r1, [sp, #32]                   @ 4-byte Reload
	movs	r0, #1
	.loc	2 161 2                         @ ../Core/Src/main.c:161:2
	bl	PWMSetCurrent
.Ltmp1:
	.loc	2 165 5                         @ ../Core/Src/main.c:165:5
	movw	r0, :lower16:htim9
	movt	r0, :upper16:htim9
	movs	r1, #4
	bl	HAL_TIM_PWM_Start
.Ltmp2:
	.loc	2 165 5 is_stmt 0               @ ../Core/Src/main.c:165:5
	cbz	r0, .LBB0_2
	b	.LBB0_1
.LBB0_1:
.Ltmp3:
	.loc	2 167 3 is_stmt 1               @ ../Core/Src/main.c:167:3
	bl	Error_Handler
	.loc	2 168 2                         @ ../Core/Src/main.c:168:2
	b	.LBB0_2
.Ltmp4:
.LBB0_2:
	.loc	2 170 5                         @ ../Core/Src/main.c:170:5
	movw	r0, :lower16:htim2
	movt	r0, :upper16:htim2
	movs	r1, #8
	bl	HAL_TIM_PWM_Start
.Ltmp5:
	.loc	2 170 5 is_stmt 0               @ ../Core/Src/main.c:170:5
	cbz	r0, .LBB0_4
	b	.LBB0_3
.LBB0_3:
.Ltmp6:
	.loc	2 172 3 is_stmt 1               @ ../Core/Src/main.c:172:3
	bl	Error_Handler
	.loc	2 173 2                         @ ../Core/Src/main.c:173:2
	b	.LBB0_4
.Ltmp7:
.LBB0_4:
	.loc	2 175 5                         @ ../Core/Src/main.c:175:5
	movw	r0, :lower16:htim8
	movt	r0, :upper16:htim8
	movs	r1, #0
	bl	HAL_TIMEx_PWMN_Start
.Ltmp8:
	.loc	2 175 5 is_stmt 0               @ ../Core/Src/main.c:175:5
	cbz	r0, .LBB0_6
	b	.LBB0_5
.LBB0_5:
.Ltmp9:
	.loc	2 177 3 is_stmt 1               @ ../Core/Src/main.c:177:3
	bl	Error_Handler
	.loc	2 178 2                         @ ../Core/Src/main.c:178:2
	b	.LBB0_6
.Ltmp10:
.LBB0_6:
	.loc	2 184 3                         @ ../Core/Src/main.c:184:3
	b	.LBB0_7
.LBB0_7:                                @ =>This Inner Loop Header: Depth=1
.Ltmp11:
	.loc	2 190 22                        @ ../Core/Src/main.c:190:22
	movw	r0, :lower16:comVariableBlock
	movt	r0, :upper16:comVariableBlock
	ldrb	r0, [r0, #6]
.Ltmp12:
	.loc	2 190 5 is_stmt 0               @ ../Core/Src/main.c:190:5
	cmp	r0, #1
	bne	.LBB0_9
	b	.LBB0_8
.LBB0_8:                                @   in Loop: Header=BB0_7 Depth=1
.Ltmp13:
	.loc	2 192 32 is_stmt 1              @ ../Core/Src/main.c:192:32
	movw	r1, :lower16:comVariableBlock
	movt	r1, :upper16:comVariableBlock
	movs	r0, #0
	strb	r0, [r1, #6]
	.loc	2 193 3                         @ ../Core/Src/main.c:193:3
	bl	SaveData_EX
	.loc	2 194 2                         @ ../Core/Src/main.c:194:2
	b	.LBB0_9
.Ltmp14:
.LBB0_9:                                @   in Loop: Header=BB0_7 Depth=1
	.loc	2 196 32                        @ ../Core/Src/main.c:196:32
	movw	r0, :lower16:USART_Data
	movt	r0, :upper16:USART_Data
	ldrb	r0, [r0]
	.loc	2 196 2 is_stmt 0               @ ../Core/Src/main.c:196:2
	mov	r1, r0
	str	r1, [sp, #4]                    @ 4-byte Spill
	cmp	r0, #8
	bhi.w	.LBB0_28
@ %bb.10:                               @   in Loop: Header=BB0_7 Depth=1
	.loc	2 0 2                           @ ../Core/Src/main.c:0:2
	ldr	r1, [sp, #4]                    @ 4-byte Reload
.LCPI0_0:
	tbb	[pc, r1]
@ %bb.11:
.LJTI0_0:
	.byte	(.LBB0_12-(.LCPI0_0+4))/2
	.byte	(.LBB0_20-(.LCPI0_0+4))/2
	.byte	(.LBB0_21-(.LCPI0_0+4))/2
	.byte	(.LBB0_22-(.LCPI0_0+4))/2
	.byte	(.LBB0_23-(.LCPI0_0+4))/2
	.byte	(.LBB0_25-(.LCPI0_0+4))/2
	.byte	(.LBB0_24-(.LCPI0_0+4))/2
	.byte	(.LBB0_26-(.LCPI0_0+4))/2
	.byte	(.LBB0_27-(.LCPI0_0+4))/2
	.p2align	1
.LBB0_12:                               @   in Loop: Header=BB0_7 Depth=1
	movw	r0, #4112
	movt	r0, #16386
.Ltmp15:
	.loc	2 200 7 is_stmt 1               @ ../Core/Src/main.c:200:7
	ldr	r0, [r0]
	.loc	2 200 14 is_stmt 0              @ ../Core/Src/main.c:200:14
	lsls	r0, r0, #16
	cmp	r0, #0
	bmi	.LBB0_14
	b	.LBB0_13
.LBB0_13:                               @   in Loop: Header=BB0_7 Depth=1
	.loc	2 0 14                          @ ../Core/Src/main.c:0:14
	movs	r0, #1
	.loc	2 200 7                         @ ../Core/Src/main.c:200:7
	cbnz	r0, .LBB0_15
	b	.LBB0_19
.LBB0_14:                               @   in Loop: Header=BB0_7 Depth=1
	.loc	2 0 7                           @ ../Core/Src/main.c:0:7
	movs	r0, #1
	.loc	2 200 14                        @ ../Core/Src/main.c:200:14
	cbnz	r0, .LBB0_19
	b	.LBB0_15
.LBB0_15:                               @   in Loop: Header=BB0_7 Depth=1
	.loc	2 200 30                        @ ../Core/Src/main.c:200:30
	movw	r0, :lower16:SYS_tickTime
	movt	r0, :upper16:SYS_tickTime
	ldr	r0, [r0, #4]
.Ltmp16:
	.loc	2 200 7                         @ ../Core/Src/main.c:200:7
	cmp.w	r0, #1000
	blo	.LBB0_19
	b	.LBB0_16
.LBB0_16:                               @   in Loop: Header=BB0_7 Depth=1
.Ltmp17:
	.loc	2 202 34 is_stmt 1              @ ../Core/Src/main.c:202:34
	movw	r1, :lower16:SYS_tickTime
	movt	r1, :upper16:SYS_tickTime
	movs	r0, #0
	str	r0, [r1, #4]
.Ltmp18:
	.loc	2 203 25                        @ ../Core/Src/main.c:203:25
	movw	r0, :lower16:comVariableBlock
	movt	r0, :upper16:comVariableBlock
	ldrb	r0, [r0, #18]
.Ltmp19:
	.loc	2 203 8 is_stmt 0               @ ../Core/Src/main.c:203:8
	cbz	r0, .LBB0_18
	b	.LBB0_17
.LBB0_17:                               @   in Loop: Header=BB0_7 Depth=1
.Ltmp20:
	.loc	2 205 37 is_stmt 1              @ ../Core/Src/main.c:205:37
	movw	r1, :lower16:comVariableBlock
	movt	r1, :upper16:comVariableBlock
	movs	r0, #1
	strb	r0, [r1, #12]
	.loc	2 206 5                         @ ../Core/Src/main.c:206:5
	b	.LBB0_18
.Ltmp21:
.LBB0_18:                               @   in Loop: Header=BB0_7 Depth=1
	.loc	2 207 4                         @ ../Core/Src/main.c:207:4
	b	.LBB0_19
.Ltmp22:
.LBB0_19:                               @   in Loop: Header=BB0_7 Depth=1
	.loc	2 208 4                         @ ../Core/Src/main.c:208:4
	movw	r0, :lower16:comVariableBlock
	movt	r0, :upper16:comVariableBlock
	add.w	r1, r0, #12
	movw	r0, :lower16:USART_Data
	movt	r0, :upper16:USART_Data
	bl	PageMain
.Ltmp23:
	.loc	2 209 4                         @ ../Core/Src/main.c:209:4
	b	.LBB0_28
.LBB0_20:                               @   in Loop: Header=BB0_7 Depth=1
.Ltmp24:
	.loc	2 212 4                         @ ../Core/Src/main.c:212:4
	movw	r0, :lower16:comVariableBlock
	movt	r0, :upper16:comVariableBlock
	add.w	r1, r0, #11
	movw	r0, :lower16:USART_Data
	movt	r0, :upper16:USART_Data
	bl	PageCurConsume_T
.Ltmp25:
	.loc	2 213 4                         @ ../Core/Src/main.c:213:4
	b	.LBB0_28
.LBB0_21:                               @   in Loop: Header=BB0_7 Depth=1
.Ltmp26:
	.loc	2 217 4                         @ ../Core/Src/main.c:217:4
	movw	r0, :lower16:comVariableBlock
	movt	r0, :upper16:comVariableBlock
	add.w	r1, r0, #11
	movw	r0, :lower16:USART_Data
	movt	r0, :upper16:USART_Data
	bl	PageKeyVoltage_T
.Ltmp27:
	.loc	2 218 4                         @ ../Core/Src/main.c:218:4
	b	.LBB0_28
.LBB0_22:                               @   in Loop: Header=BB0_7 Depth=1
.Ltmp28:
	.loc	2 221 4                         @ ../Core/Src/main.c:221:4
	movw	r0, :lower16:comVariableBlock
	movt	r0, :upper16:comVariableBlock
	add.w	r1, r0, #11
	movw	r0, :lower16:USART_Data
	movt	r0, :upper16:USART_Data
	bl	HighLowLoad
.Ltmp29:
	.loc	2 223 4                         @ ../Core/Src/main.c:223:4
	b	.LBB0_28
.LBB0_23:                               @   in Loop: Header=BB0_7 Depth=1
.Ltmp30:
	.loc	2 227 4                         @ ../Core/Src/main.c:227:4
	movw	r0, :lower16:comVariableBlock
	movt	r0, :upper16:comVariableBlock
	add.w	r1, r0, #11
	movw	r0, :lower16:USART_Data
	movt	r0, :upper16:USART_Data
	bl	Setting
.Ltmp31:
	.loc	2 228 4                         @ ../Core/Src/main.c:228:4
	b	.LBB0_28
.LBB0_24:                               @   in Loop: Header=BB0_7 Depth=1
.Ltmp32:
	.loc	2 231 4                         @ ../Core/Src/main.c:231:4
	movw	r0, :lower16:comVariableBlock
	movt	r0, :upper16:comVariableBlock
	add.w	r1, r0, #11
	movw	r0, :lower16:USART_Data
	movt	r0, :upper16:USART_Data
	bl	ButtonCheck
.Ltmp33:
	.loc	2 232 4                         @ ../Core/Src/main.c:232:4
	b	.LBB0_28
.LBB0_25:                               @   in Loop: Header=BB0_7 Depth=1
	.loc	2 236 4                         @ ../Core/Src/main.c:236:4
	b	.LBB0_28
.LBB0_26:                               @   in Loop: Header=BB0_7 Depth=1
.Ltmp34:
	.loc	2 239 4                         @ ../Core/Src/main.c:239:4
	movw	r0, :lower16:comVariableBlock
	movt	r0, :upper16:comVariableBlock
	add.w	r1, r0, #11
	movw	r0, :lower16:USART_Data
	movt	r0, :upper16:USART_Data
	bl	Calibration
.Ltmp35:
	.loc	2 240 4                         @ ../Core/Src/main.c:240:4
	b	.LBB0_28
.LBB0_27:                               @   in Loop: Header=BB0_7 Depth=1
	.loc	2 244 4                         @ ../Core/Src/main.c:244:4
	b	.LBB0_28
.Ltmp36:
.LBB0_28:                               @   in Loop: Header=BB0_7 Depth=1
	.loc	2 184 3                         @ ../Core/Src/main.c:184:3
	b	.LBB0_7
.Ltmp37:
.Lfunc_end0:
	.size	main, .Lfunc_end0-main
	.cfi_endproc
	.cantunwind
	.fnend
                                        @ -- End function
	.section	.text.SystemClock_Config,"ax",%progbits
	.hidden	SystemClock_Config              @ -- Begin function SystemClock_Config
	.globl	SystemClock_Config
	.p2align	2
	.type	SystemClock_Config,%function
	.code	16                              @ @SystemClock_Config
	.thumb_func
SystemClock_Config:
.Lfunc_begin1:
	.loc	2 255 0                         @ ../Core/Src/main.c:255:0
	.fnstart
	.cfi_startproc
@ %bb.0:
	.save	{r7, lr}
	push	{r7, lr}
	.cfi_def_cfa_offset 8
	.cfi_offset lr, -4
	.cfi_offset r7, -8
	.pad	#80
	sub	sp, #80
	.cfi_def_cfa_offset 88
	add	r0, sp, #32
	movs	r1, #48
.Ltmp38:
	.loc	2 256 22 prologue_end           @ ../Core/Src/main.c:256:22
	bl	__aeabi_memclr4
	movs	r0, #0
	.loc	2 257 22                        @ ../Core/Src/main.c:257:22
	str	r0, [sp, #28]
	str	r0, [sp, #24]
	str	r0, [sp, #20]
	str	r0, [sp, #16]
	str	r0, [sp, #12]
	.loc	2 261 3                         @ ../Core/Src/main.c:261:3
	b	.LBB1_1
.LBB1_1:
	.loc	2 0 3 is_stmt 0                 @ ../Core/Src/main.c:0:3
	movs	r0, #0
.Ltmp39:
	.loc	2 261 3                         @ ../Core/Src/main.c:261:3
	str	r0, [sp, #8]
	movw	r0, #14400
	movt	r0, #16386
	ldr	r1, [r0]
	orr	r1, r1, #268435456
	str	r1, [r0]
	ldr	r0, [r0]
	and	r0, r0, #268435456
	str	r0, [sp, #8]
	ldr	r0, [sp, #8]
	b	.LBB1_2
.Ltmp40:
.LBB1_2:
	.loc	2 262 3 is_stmt 1               @ ../Core/Src/main.c:262:3
	b	.LBB1_3
.LBB1_3:
	.loc	2 0 3 is_stmt 0                 @ ../Core/Src/main.c:0:3
	movs	r0, #0
.Ltmp41:
	.loc	2 262 3                         @ ../Core/Src/main.c:262:3
	str	r0, [sp, #4]
	movw	r0, #28672
	movt	r0, #16384
	ldr	r1, [r0]
	orr	r1, r1, #16384
	str	r1, [r0]
	ldr	r0, [r0]
	and	r0, r0, #16384
	str	r0, [sp, #4]
	ldr	r0, [sp, #4]
	b	.LBB1_4
.Ltmp42:
.LBB1_4:
	.loc	2 0 3                           @ ../Core/Src/main.c:0:3
	movs	r0, #1
	.loc	2 267 36 is_stmt 1              @ ../Core/Src/main.c:267:36
	str	r0, [sp, #32]
	mov.w	r0, #65536
	.loc	2 268 30                        @ ../Core/Src/main.c:268:30
	str	r0, [sp, #36]
	movs	r0, #2
	.loc	2 269 34                        @ ../Core/Src/main.c:269:34
	str	r0, [sp, #56]
	mov.w	r1, #4194304
	.loc	2 270 35                        @ ../Core/Src/main.c:270:35
	str	r1, [sp, #60]
	movs	r1, #16
	.loc	2 271 30                        @ ../Core/Src/main.c:271:30
	str	r1, [sp, #64]
	mov.w	r1, #336
	.loc	2 272 30                        @ ../Core/Src/main.c:272:30
	str	r1, [sp, #68]
	.loc	2 273 30                        @ ../Core/Src/main.c:273:30
	str	r0, [sp, #72]
	movs	r0, #7
	.loc	2 274 30                        @ ../Core/Src/main.c:274:30
	str	r0, [sp, #76]
	add	r0, sp, #32
.Ltmp43:
	.loc	2 275 7                         @ ../Core/Src/main.c:275:7
	bl	HAL_RCC_OscConfig
.Ltmp44:
	.loc	2 275 7 is_stmt 0               @ ../Core/Src/main.c:275:7
	cbz	r0, .LBB1_6
	b	.LBB1_5
.LBB1_5:
.Ltmp45:
	.loc	2 277 5 is_stmt 1               @ ../Core/Src/main.c:277:5
	bl	Error_Handler
	.loc	2 278 3                         @ ../Core/Src/main.c:278:3
	b	.LBB1_6
.Ltmp46:
.LBB1_6:
	.loc	2 0 3 is_stmt 0                 @ ../Core/Src/main.c:0:3
	movs	r0, #15
	.loc	2 282 31 is_stmt 1              @ ../Core/Src/main.c:282:31
	str	r0, [sp, #12]
	movs	r0, #2
	.loc	2 284 34                        @ ../Core/Src/main.c:284:34
	str	r0, [sp, #16]
	movs	r0, #0
	.loc	2 285 35                        @ ../Core/Src/main.c:285:35
	str	r0, [sp, #20]
	mov.w	r0, #5120
	.loc	2 286 36                        @ ../Core/Src/main.c:286:36
	str	r0, [sp, #24]
	mov.w	r0, #4096
	.loc	2 287 36                        @ ../Core/Src/main.c:287:36
	str	r0, [sp, #28]
	add	r0, sp, #12
	movs	r1, #5
.Ltmp47:
	.loc	2 289 7                         @ ../Core/Src/main.c:289:7
	bl	HAL_RCC_ClockConfig
.Ltmp48:
	.loc	2 289 7 is_stmt 0               @ ../Core/Src/main.c:289:7
	cbz	r0, .LBB1_8
	b	.LBB1_7
.LBB1_7:
.Ltmp49:
	.loc	2 291 5 is_stmt 1               @ ../Core/Src/main.c:291:5
	bl	Error_Handler
	.loc	2 292 3                         @ ../Core/Src/main.c:292:3
	b	.LBB1_8
.Ltmp50:
.LBB1_8:
	.loc	2 293 1                         @ ../Core/Src/main.c:293:1
	add	sp, #80
	pop	{r7, pc}
.Ltmp51:
.Lfunc_end1:
	.size	SystemClock_Config, .Lfunc_end1-SystemClock_Config
	.cfi_endproc
	.cantunwind
	.fnend
                                        @ -- End function
	.section	.text.Error_Handler,"ax",%progbits
	.hidden	Error_Handler                   @ -- Begin function Error_Handler
	.globl	Error_Handler
	.p2align	2
	.type	Error_Handler,%function
	.code	16                              @ @Error_Handler
	.thumb_func
Error_Handler:
.Lfunc_begin2:
	.loc	2 306 0                         @ ../Core/Src/main.c:306:0
	.fnstart
	.cfi_startproc
@ %bb.0:
	.pad	#4
	sub	sp, #4
	.cfi_def_cfa_offset 4
.Ltmp52:
	.loc	2 309 3 prologue_end            @ ../Core/Src/main.c:309:3
	@APP
	mrs	r0, primask
	cpsid i

	@NO_APP
	str	r0, [sp]
	.loc	2 310 3                         @ ../Core/Src/main.c:310:3
	b	.LBB2_1
.LBB2_1:                                @ =>This Inner Loop Header: Depth=1
	b	.LBB2_1
.Ltmp53:
.Lfunc_end2:
	.size	Error_Handler, .Lfunc_end2-Error_Handler
	.cfi_endproc
	.cantunwind
	.fnend
                                        @ -- End function
	.hidden	UART1_RX_BUF                    @ @UART1_RX_BUF
	.type	UART1_RX_BUF,%object
	.section	.bss.UART1_RX_BUF,"aw",%nobits
	.globl	UART1_RX_BUF
UART1_RX_BUF:
	.zero	1000
	.size	UART1_RX_BUF, 1000

	.hidden	UART3_RX_BUF                    @ @UART3_RX_BUF
	.type	UART3_RX_BUF,%object
	.section	.bss.UART3_RX_BUF,"aw",%nobits
	.globl	UART3_RX_BUF
UART3_RX_BUF:
	.zero	50
	.size	UART3_RX_BUF, 50

	.hidden	UART6_RX_BUF                    @ @UART6_RX_BUF
	.type	UART6_RX_BUF,%object
	.section	.bss.UART6_RX_BUF,"aw",%nobits
	.globl	UART6_RX_BUF
UART6_RX_BUF:
	.zero	100
	.size	UART6_RX_BUF, 100

	.hidden	UART4_RX_BUF                    @ @UART4_RX_BUF
	.type	UART4_RX_BUF,%object
	.section	.bss.UART4_RX_BUF,"aw",%nobits
	.globl	UART4_RX_BUF
UART4_RX_BUF:
	.zero	100
	.size	UART4_RX_BUF, 100

	.hidden	comVariableBlock                @ @comVariableBlock
	.type	comVariableBlock,%object
	.section	.bss.comVariableBlock,"aw",%nobits
	.globl	comVariableBlock
	.p2align	2, 0x0
comVariableBlock:
	.zero	824
	.size	comVariableBlock, 824

	.hidden	USART_Data                      @ @USART_Data
	.type	USART_Data,%object
	.section	.bss.USART_Data,"aw",%nobits
	.globl	USART_Data
	.p2align	2, 0x0
USART_Data:
	.zero	17488
	.size	USART_Data, 17488

	.hidden	SYS_tickTime                    @ @SYS_tickTime
	.type	SYS_tickTime,%object
	.section	.bss.SYS_tickTime,"aw",%nobits
	.globl	SYS_tickTime
	.p2align	2, 0x0
SYS_tickTime:
	.zero	28
	.size	SYS_tickTime, 28

	.type	__ARM_use_no_argv,%object       @ @__ARM_use_no_argv
	.section	.ARM.use_no_argv,"awR",%progbits,unique,1
	.globl	__ARM_use_no_argv
	.p2align	2, 0x0
__ARM_use_no_argv:
	.long	1                               @ 0x1
	.size	__ARM_use_no_argv, 4

	.file	7 "C:\\Users\\DELL\\Desktop\\NewFolder\\OpticalFiberAmplifierTestRack\\MDK-ARM" "../Drivers/STM32F4xx_HAL_Driver/Inc\\stm32f4xx_hal_rcc.h"
	.file	8 "C:\\Users\\DELL\\Desktop\\NewFolder\\OpticalFiberAmplifierTestRack\\MDK-ARM" "../Drivers/STM32F4xx_HAL_Driver/Inc/stm32f4xx_hal_rcc_ex.h"
	.section	".note.GNU-stack","",%progbits
	.eabi_attribute	30, 6	@ Tag_ABI_optimization_goals
	.ARM_attribute	16, 1	@ Tag_AV_eba