	.text
	.syntax unified
	.eabi_attribute	67, "2.09"	@ Tag_conformance
	.cpu	cortex-m4
	.eabi_attribute	6, 13	@ Tag_CPU_arch
	.eabi_attribute	7, 77	@ Tag_CPU_arch_profile
	.eabi_attribute	8, 0	@ Tag_ARM_ISA_use
	.eabi_attribute	9, 2	@ Tag_THUMB_ISA_use
	.fpu	fpv4-sp-d16
	.eabi_attribute	27, 1	@ Tag_ABI_HardFP_use
	.eabi_attribute	36, 1	@ Tag_FP_HP_extension
	.eabi_attribute	34, 1	@ Tag_CPU_unaligned_access
	.eabi_attribute	17, 1	@ Tag_ABI_PCS_GOT_use
	.eabi_attribute	20, 2	@ Tag_ABI_FP_denormal
	.eabi_attribute	21, 0	@ Tag_ABI_FP_exceptions
	.eabi_attribute	23, 1	@ Tag_ABI_FP_number_model
	.eabi_attribute	24, 1	@ Tag_ABI_align_needed
	.eabi_attribute	25, 1	@ Tag_ABI_align_preserved
	.eabi_attribute	28, 1	@ Tag_ABI_VFP_args
	.eabi_attribute	38, 1	@ Tag_ABI_FP_16bit_format
	.eabi_attribute	18, 2	@ Tag_ABI_PCS_wchar_t
	.eabi_attribute	26, 1	@ Tag_ABI_enum_size
	.eabi_attribute	14, 0	@ Tag_ABI_PCS_R9_use
	.file	"processing.c"
	.file	1 "C:\\Users\\DELL\\Desktop\\NewFolder\\OpticalFiberAmplifierTestRack\\MDK-ARM" "../Core/Src/processing.c"
	.file	2 "C:\\Users\\DELL\\Desktop\\NewFolder\\OpticalFiberAmplifierTestRack\\MDK-ARM" "../Core/Inc\\config.h"
	.file	3 "e:\\Keil_v5\\ARM\\ARMCLANG\\Bin\\..\\include" "stdint.h"
	.section	.text.VariableInitialization,"ax",%progbits
	.hidden	VariableInitialization          @ -- Begin function VariableInitialization
	.globl	VariableInitialization
	.p2align	2
	.type	VariableInitialization,%function
	.code	16                              @ @VariableInitialization
	.thumb_func
VariableInitialization:
.Lfunc_begin0:
	.loc	1 82 0                          @ ../Core/Src/processing.c:82:0
	.fnstart
	.cfi_sections .debug_frame
	.cfi_startproc
@ %bb.0:
	.loc	1 84 36 prologue_end            @ ../Core/Src/processing.c:84:36
	movw	r1, :lower16:comVariableBlock
	movt	r1, :upper16:comVariableBlock
	movs	r0, #0
	strb	r0, [r1, #11]
	movs	r2, #4
	.loc	1 85 33                         @ ../Core/Src/processing.c:85:33
	strb	r2, [r1, #18]
	.loc	1 86 30                         @ ../Core/Src/processing.c:86:30
	strb	r0, [r1, #15]
	.loc	1 87 33                         @ ../Core/Src/processing.c:87:33
	movw	r2, :lower16:SYS_tickTime
	movt	r2, :upper16:SYS_tickTime
	movw	r0, #34463
	movt	r0, #1
	str	r0, [r2]
	movw	r0, #21845
	movt	r0, #16389
	.loc	1 88 39                         @ ../Core/Src/processing.c:88:39
	str.w	r0, [r1, #800]
	.loc	1 89 1                          @ ../Core/Src/processing.c:89:1
	bx	lr
.Ltmp0:
.Lfunc_end0:
	.size	VariableInitialization, .Lfunc_end0-VariableInitialization
	.cfi_endproc
	.cantunwind
	.fnend
                                        @ -- End function
	.section	.text.RemoveLetter,"ax",%progbits
	.hidden	RemoveLetter                    @ -- Begin function RemoveLetter
	.globl	RemoveLetter
	.p2align	2
	.type	RemoveLetter,%function
	.code	16                              @ @RemoveLetter
	.thumb_func
RemoveLetter:
.Lfunc_begin1:
	.loc	1 93 0                          @ ../Core/Src/processing.c:93:0
	.fnstart
	.cfi_startproc
@ %bb.0:
	.pad	#12
	sub	sp, #12
	.cfi_def_cfa_offset 12
	str	r0, [sp, #8]
	str	r1, [sp, #4]
	movs	r0, #0
.Ltmp1:
	.loc	1 94 23 prologue_end            @ ../Core/Src/processing.c:94:23
	strb.w	r0, [sp, #3]
	.loc	1 94 30 is_stmt 0               @ ../Core/Src/processing.c:94:30
	strb.w	r0, [sp, #2]
	.loc	1 94 9                          @ ../Core/Src/processing.c:94:9
	b	.LBB1_1
.LBB1_1:                                @ =>This Inner Loop Header: Depth=1
.Ltmp2:
	.loc	1 94 37                         @ ../Core/Src/processing.c:94:37
	ldr	r0, [sp, #8]
	.loc	1 94 47                         @ ../Core/Src/processing.c:94:47
	ldrb.w	r1, [sp, #3]
	.loc	1 94 37                         @ ../Core/Src/processing.c:94:37
	ldrb	r0, [r0, r1]
.Ltmp3:
	.loc	1 94 5                          @ ../Core/Src/processing.c:94:5
	cbz	r0, .LBB1_8
	b	.LBB1_2
.LBB1_2:                                @   in Loop: Header=BB1_1 Depth=1
.Ltmp4:
	.loc	1 96 13 is_stmt 1               @ ../Core/Src/processing.c:96:13
	ldr	r0, [sp, #8]
	.loc	1 96 23 is_stmt 0               @ ../Core/Src/processing.c:96:23
	ldrb.w	r1, [sp, #3]
	.loc	1 96 13                         @ ../Core/Src/processing.c:96:13
	ldrb	r0, [r0, r1]
	.loc	1 96 33                         @ ../Core/Src/processing.c:96:33
	cmp	r0, #48
	blt	.LBB1_4
	b	.LBB1_3
.LBB1_3:                                @   in Loop: Header=BB1_1 Depth=1
	.loc	1 96 36                         @ ../Core/Src/processing.c:96:36
	ldr	r0, [sp, #8]
	.loc	1 96 46                         @ ../Core/Src/processing.c:96:46
	ldrb.w	r1, [sp, #3]
	.loc	1 96 36                         @ ../Core/Src/processing.c:96:36
	ldrb	r0, [r0, r1]
	.loc	1 96 57                         @ ../Core/Src/processing.c:96:57
	cmp	r0, #58
	blt	.LBB1_5
	b	.LBB1_4
.LBB1_4:                                @   in Loop: Header=BB1_1 Depth=1
	.loc	1 96 60                         @ ../Core/Src/processing.c:96:60
	ldr	r0, [sp, #8]
	.loc	1 96 70                         @ ../Core/Src/processing.c:96:70
	ldrb.w	r1, [sp, #3]
	.loc	1 96 60                         @ ../Core/Src/processing.c:96:60
	ldrb	r0, [r0, r1]
.Ltmp5:
	.loc	1 96 12                         @ ../Core/Src/processing.c:96:12
	cmp	r0, #46
	bne	.LBB1_6
	b	.LBB1_5
.LBB1_5:                                @   in Loop: Header=BB1_1 Depth=1
.Ltmp6:
	.loc	1 98 32 is_stmt 1               @ ../Core/Src/processing.c:98:32
	ldr	r0, [sp, #8]
	.loc	1 98 42 is_stmt 0               @ ../Core/Src/processing.c:98:42
	ldrb.w	r1, [sp, #3]
	.loc	1 98 32                         @ ../Core/Src/processing.c:98:32
	ldrb	r0, [r0, r1]
	.loc	1 98 13                         @ ../Core/Src/processing.c:98:13
	ldr	r1, [sp, #4]
	.loc	1 98 26                         @ ../Core/Src/processing.c:98:26
	ldrb.w	r2, [sp, #2]
	adds	r3, r2, #1
	strb.w	r3, [sp, #2]
	.loc	1 98 30                         @ ../Core/Src/processing.c:98:30
	strb	r0, [r1, r2]
	.loc	1 99 9 is_stmt 1                @ ../Core/Src/processing.c:99:9
	b	.LBB1_6
.Ltmp7:
.LBB1_6:                                @   in Loop: Header=BB1_1 Depth=1
	.loc	1 100 5                         @ ../Core/Src/processing.c:100:5
	b	.LBB1_7
.Ltmp8:
.LBB1_7:                                @   in Loop: Header=BB1_1 Depth=1
	.loc	1 94 60                         @ ../Core/Src/processing.c:94:60
	ldrb.w	r0, [sp, #3]
	adds	r0, #1
	strb.w	r0, [sp, #3]
	.loc	1 94 5 is_stmt 0                @ ../Core/Src/processing.c:94:5
	b	.LBB1_1
.Ltmp9:
.LBB1_8:
	.loc	1 102 1 is_stmt 1               @ ../Core/Src/processing.c:102:1
	add	sp, #12
	bx	lr
.Ltmp10:
.Lfunc_end1:
	.size	RemoveLetter, .Lfunc_end1-RemoveLetter
	.cfi_endproc
	.cantunwind
	.fnend
                                        @ -- End function
	.section	.text.DataFilling,"ax",%progbits
	.hidden	DataFilling                     @ -- Begin function DataFilling
	.globl	DataFilling
	.p2align	2
	.type	DataFilling,%function
	.code	16                              @ @DataFilling
	.thumb_func
DataFilling:
.Lfunc_begin2:
	.loc	1 107 0                         @ ../Core/Src/processing.c:107:0
	.fnstart
	.cfi_startproc
@ %bb.0:
	.save	{r7, lr}
	push	{r7, lr}
	.cfi_def_cfa_offset 8
	.cfi_offset lr, -4
	.cfi_offset r7, -8
	.pad	#360
	sub	sp, #360
	.cfi_def_cfa_offset 368
	str	r0, [sp, #356]
	add.w	r0, sp, #306
	movs	r1, #50
.Ltmp11:
	.loc	1 108 10 prologue_end           @ ../Core/Src/processing.c:108:10
	bl	__aeabi_memclr
	movs	r0, #0
	.loc	1 109 7                         @ ../Core/Src/processing.c:109:7
	strb.w	r0, [sp, #305]
	.loc	1 113 12                        @ ../Core/Src/processing.c:113:12
	ldr	r0, [sp, #356]
	ldrb	r0, [r0]
	.loc	1 113 5 is_stmt 0               @ ../Core/Src/processing.c:113:5
	subs	r0, #73
	mov	r1, r0
	str	r1, [sp, #292]                  @ 4-byte Spill
	cmp	r0, #43
	bhi.w	.LBB2_277
@ %bb.1:
	.loc	1 0 5                           @ ../Core/Src/processing.c:0:5
	ldr	r1, [sp, #292]                  @ 4-byte Reload
.LCPI2_0:
	tbh	[pc, r1, lsl #1]
@ %bb.2:
.LJTI2_0:
	.short	(.LBB2_189-(.LCPI2_0+4))/2
	.short	(.LBB2_277-(.LCPI2_0+4))/2
	.short	(.LBB2_277-(.LCPI2_0+4))/2
	.short	(.LBB2_217-(.LCPI2_0+4))/2
	.short	(.LBB2_277-(.LCPI2_0+4))/2
	.short	(.LBB2_277-(.LCPI2_0+4))/2
	.short	(.LBB2_277-(.LCPI2_0+4))/2
	.short	(.LBB2_277-(.LCPI2_0+4))/2
	.short	(.LBB2_277-(.LCPI2_0+4))/2
	.short	(.LBB2_277-(.LCPI2_0+4))/2
	.short	(.LBB2_277-(.LCPI2_0+4))/2
	.short	(.LBB2_277-(.LCPI2_0+4))/2
	.short	(.LBB2_277-(.LCPI2_0+4))/2
	.short	(.LBB2_277-(.LCPI2_0+4))/2
	.short	(.LBB2_277-(.LCPI2_0+4))/2
	.short	(.LBB2_277-(.LCPI2_0+4))/2
	.short	(.LBB2_277-(.LCPI2_0+4))/2
	.short	(.LBB2_277-(.LCPI2_0+4))/2
	.short	(.LBB2_277-(.LCPI2_0+4))/2
	.short	(.LBB2_277-(.LCPI2_0+4))/2
	.short	(.LBB2_277-(.LCPI2_0+4))/2
	.short	(.LBB2_277-(.LCPI2_0+4))/2
	.short	(.LBB2_277-(.LCPI2_0+4))/2
	.short	(.LBB2_277-(.LCPI2_0+4))/2
	.short	(.LBB2_3-(.LCPI2_0+4))/2
	.short	(.LBB2_58-(.LCPI2_0+4))/2
	.short	(.LBB2_106-(.LCPI2_0+4))/2
	.short	(.LBB2_154-(.LCPI2_0+4))/2
	.short	(.LBB2_277-(.LCPI2_0+4))/2
	.short	(.LBB2_277-(.LCPI2_0+4))/2
	.short	(.LBB2_277-(.LCPI2_0+4))/2
	.short	(.LBB2_277-(.LCPI2_0+4))/2
	.short	(.LBB2_277-(.LCPI2_0+4))/2
	.short	(.LBB2_277-(.LCPI2_0+4))/2
	.short	(.LBB2_277-(.LCPI2_0+4))/2
	.short	(.LBB2_277-(.LCPI2_0+4))/2
	.short	(.LBB2_277-(.LCPI2_0+4))/2
	.short	(.LBB2_277-(.LCPI2_0+4))/2
	.short	(.LBB2_277-(.LCPI2_0+4))/2
	.short	(.LBB2_18-(.LCPI2_0+4))/2
	.short	(.LBB2_277-(.LCPI2_0+4))/2
	.short	(.LBB2_277-(.LCPI2_0+4))/2
	.short	(.LBB2_277-(.LCPI2_0+4))/2
	.short	(.LBB2_170-(.LCPI2_0+4))/2
	.p2align	1
.LBB2_3:
.Ltmp12:
	.loc	1 117 33 is_stmt 1              @ ../Core/Src/processing.c:117:33
	movw	r1, :lower16:comVariableBlock
	movt	r1, :upper16:comVariableBlock
	movs	r0, #1
	strb	r0, [r1, #6]
.Ltmp13:
	.loc	1 118 16                        @ ../Core/Src/processing.c:118:16
	ldr	r0, [sp, #356]
	ldrb	r0, [r0, #2]
	.loc	1 118 30 is_stmt 0              @ ../Core/Src/processing.c:118:30
	cmp	r0, #111
	bne	.LBB2_7
	b	.LBB2_4
.LBB2_4:
	.loc	1 118 33                        @ ../Core/Src/processing.c:118:33
	ldr	r0, [sp, #356]
	ldrb	r0, [r0, #3]
	.loc	1 118 47                        @ ../Core/Src/processing.c:118:47
	cmp	r0, #117
	bne	.LBB2_7
	b	.LBB2_5
.LBB2_5:
	.loc	1 118 50                        @ ../Core/Src/processing.c:118:50
	ldr	r0, [sp, #356]
	ldrb	r0, [r0, #4]
.Ltmp14:
	.loc	1 118 16                        @ ../Core/Src/processing.c:118:16
	cmp	r0, #116
	bne	.LBB2_7
	b	.LBB2_6
.LBB2_6:
.Ltmp15:
	.loc	1 120 30 is_stmt 1              @ ../Core/Src/processing.c:120:30
	ldr	r0, [sp, #356]
	add.w	r1, sp, #306
	.loc	1 120 17 is_stmt 0              @ ../Core/Src/processing.c:120:17
	str	r1, [sp, #288]                  @ 4-byte Spill
	bl	RemoveLetter
	ldr	r0, [sp, #288]                  @ 4-byte Reload
	movs	r1, #0
	.loc	1 121 56 is_stmt 1              @ ../Core/Src/processing.c:121:56
	bl	__hardfp_strtod
	vmov	r0, r1, d0
	bl	__aeabi_d2f
	.loc	1 121 54 is_stmt 0              @ ../Core/Src/processing.c:121:54
	movw	r1, :lower16:USART_Data
	movt	r1, :upper16:USART_Data
	str	r0, [r1, #4]
	.loc	1 123 13 is_stmt 1              @ ../Core/Src/processing.c:123:13
	b	.LBB2_17
.Ltmp16:
.LBB2_7:
	.loc	1 124 21                        @ ../Core/Src/processing.c:124:21
	ldr	r0, [sp, #356]
	ldrb	r0, [r0, #2]
	.loc	1 124 35 is_stmt 0              @ ../Core/Src/processing.c:124:35
	cmp	r0, #109
	bne	.LBB2_11
	b	.LBB2_8
.LBB2_8:
	.loc	1 124 38                        @ ../Core/Src/processing.c:124:38
	ldr	r0, [sp, #356]
	ldrb	r0, [r0, #3]
	.loc	1 124 52                        @ ../Core/Src/processing.c:124:52
	cmp	r0, #97
	bne	.LBB2_11
	b	.LBB2_9
.LBB2_9:
	.loc	1 124 55                        @ ../Core/Src/processing.c:124:55
	ldr	r0, [sp, #356]
	ldrb	r0, [r0, #4]
.Ltmp17:
	.loc	1 124 21                        @ ../Core/Src/processing.c:124:21
	cmp	r0, #120
	bne	.LBB2_11
	b	.LBB2_10
.LBB2_10:
.Ltmp18:
	.loc	1 126 30 is_stmt 1              @ ../Core/Src/processing.c:126:30
	ldr	r0, [sp, #356]
	add.w	r1, sp, #306
	.loc	1 126 17 is_stmt 0              @ ../Core/Src/processing.c:126:17
	str	r1, [sp, #284]                  @ 4-byte Spill
	bl	RemoveLetter
	ldr	r0, [sp, #284]                  @ 4-byte Reload
	movs	r1, #0
	.loc	1 127 55 is_stmt 1              @ ../Core/Src/processing.c:127:55
	bl	__hardfp_strtod
	vmov	r0, r1, d0
	bl	__aeabi_d2f
	.loc	1 127 53 is_stmt 0              @ ../Core/Src/processing.c:127:53
	movw	r1, :lower16:USART_Data
	movt	r1, :upper16:USART_Data
	str	r0, [r1, #8]
	.loc	1 128 13 is_stmt 1              @ ../Core/Src/processing.c:128:13
	b	.LBB2_16
.Ltmp19:
.LBB2_11:
	.loc	1 129 21                        @ ../Core/Src/processing.c:129:21
	ldr	r0, [sp, #356]
	ldrb	r0, [r0, #2]
	.loc	1 129 35 is_stmt 0              @ ../Core/Src/processing.c:129:35
	cmp	r0, #109
	bne	.LBB2_15
	b	.LBB2_12
.LBB2_12:
	.loc	1 129 38                        @ ../Core/Src/processing.c:129:38
	ldr	r0, [sp, #356]
	ldrb	r0, [r0, #3]
	.loc	1 129 52                        @ ../Core/Src/processing.c:129:52
	cmp	r0, #105
	bne	.LBB2_15
	b	.LBB2_13
.LBB2_13:
	.loc	1 129 55                        @ ../Core/Src/processing.c:129:55
	ldr	r0, [sp, #356]
	ldrb	r0, [r0, #4]
.Ltmp20:
	.loc	1 129 21                        @ ../Core/Src/processing.c:129:21
	cmp	r0, #110
	bne	.LBB2_15
	b	.LBB2_14
.LBB2_14:
.Ltmp21:
	.loc	1 131 30 is_stmt 1              @ ../Core/Src/processing.c:131:30
	ldr	r0, [sp, #356]
	add.w	r1, sp, #306
	.loc	1 131 17 is_stmt 0              @ ../Core/Src/processing.c:131:17
	str	r1, [sp, #280]                  @ 4-byte Spill
	bl	RemoveLetter
	ldr	r0, [sp, #280]                  @ 4-byte Reload
	movs	r1, #0
	.loc	1 132 55 is_stmt 1              @ ../Core/Src/processing.c:132:55
	bl	__hardfp_strtod
	vmov	r0, r1, d0
	bl	__aeabi_d2f
	.loc	1 132 53 is_stmt 0              @ ../Core/Src/processing.c:132:53
	movw	r1, :lower16:USART_Data
	movt	r1, :upper16:USART_Data
	str	r0, [r1, #12]
	.loc	1 133 13 is_stmt 1              @ ../Core/Src/processing.c:133:13
	b	.LBB2_15
.Ltmp22:
.LBB2_15:
	.loc	1 0 13 is_stmt 0                @ ../Core/Src/processing.c:0:13
	b	.LBB2_16
.LBB2_16:
	b	.LBB2_17
.LBB2_17:
	.loc	1 135 9 is_stmt 1               @ ../Core/Src/processing.c:135:9
	b.w	.LBB2_277
.LBB2_18:
.Ltmp23:
	.loc	1 138 37                        @ ../Core/Src/processing.c:138:37
	ldr	r0, [sp, #356]
	.loc	1 138 16 is_stmt 0              @ ../Core/Src/processing.c:138:16
	movw	r1, :lower16:.L.str
	movt	r1, :upper16:.L.str
	bl	strcmp
.Ltmp24:
	.loc	1 138 16                        @ ../Core/Src/processing.c:138:16
	cbnz	r0, .LBB2_22
	b	.LBB2_19
.LBB2_19:
.Ltmp25:
	.loc	1 141 25 is_stmt 1              @ ../Core/Src/processing.c:141:25
	movw	r0, :lower16:comVariableBlock
	movt	r0, :upper16:comVariableBlock
	ldrb	r0, [r0, #18]
.Ltmp26:
	.loc	1 141 8 is_stmt 0               @ ../Core/Src/processing.c:141:8
	cbz	r0, .LBB2_21
	b	.LBB2_20
.LBB2_20:
.Ltmp27:
	.loc	1 143 38 is_stmt 1              @ ../Core/Src/processing.c:143:38
	movw	r1, :lower16:comVariableBlock
	movt	r1, :upper16:comVariableBlock
	movs	r0, #0
	strb	r0, [r1, #11]
	.loc	1 144 37                        @ ../Core/Src/processing.c:144:37
	movw	r1, :lower16:USART_Data
	movt	r1, :upper16:USART_Data
	strb	r0, [r1]
	.loc	1 145 21                        @ ../Core/Src/processing.c:145:21
	mov	r0, sp
	movs	r3, #255
	str	r3, [r0]
	movw	r0, :lower16:DataFilling.StringBuf
	movt	r0, :upper16:DataFilling.StringBuf
	str	r0, [sp, #276]                  @ 4-byte Spill
	movw	r1, :lower16:.L.str.1
	movt	r1, :upper16:.L.str.1
	mov	r2, r3
	bl	sprintf
	ldr	r1, [sp, #276]                  @ 4-byte Reload
	.loc	1 145 19 is_stmt 0              @ ../Core/Src/processing.c:145:19
	strb.w	r0, [sp, #305]
	.loc	1 146 59 is_stmt 1              @ ../Core/Src/processing.c:146:59
	ldrb.w	r2, [sp, #305]
	.loc	1 146 6 is_stmt 0               @ ../Core/Src/processing.c:146:6
	movw	r0, :lower16:huart1
	movt	r0, :upper16:huart1
	bl	HAL_UART_Transmit_IT
	.loc	1 147 5 is_stmt 1               @ ../Core/Src/processing.c:147:5
	b	.LBB2_21
.Ltmp28:
.LBB2_21:
	.loc	1 149 13                        @ ../Core/Src/processing.c:149:13
	b	.LBB2_57
.Ltmp29:
.LBB2_22:
	.loc	1 150 42                        @ ../Core/Src/processing.c:150:42
	ldr	r0, [sp, #356]
	.loc	1 150 21 is_stmt 0              @ ../Core/Src/processing.c:150:21
	movw	r1, :lower16:.L.str.2
	movt	r1, :upper16:.L.str.2
	bl	strcmp
.Ltmp30:
	.loc	1 150 21                        @ ../Core/Src/processing.c:150:21
	cbnz	r0, .LBB2_26
	b	.LBB2_23
.LBB2_23:
.Ltmp31:
	.loc	1 153 25 is_stmt 1              @ ../Core/Src/processing.c:153:25
	movw	r0, :lower16:comVariableBlock
	movt	r0, :upper16:comVariableBlock
	ldrb	r0, [r0, #18]
.Ltmp32:
	.loc	1 153 8 is_stmt 0               @ ../Core/Src/processing.c:153:8
	cbz	r0, .LBB2_25
	b	.LBB2_24
.LBB2_24:
.Ltmp33:
	.loc	1 155 38 is_stmt 1              @ ../Core/Src/processing.c:155:38
	movw	r1, :lower16:comVariableBlock
	movt	r1, :upper16:comVariableBlock
	movs	r0, #0
	strb	r0, [r1, #11]
	.loc	1 156 37                        @ ../Core/Src/processing.c:156:37
	movw	r1, :lower16:USART_Data
	movt	r1, :upper16:USART_Data
	movs	r0, #1
	strb	r0, [r1]
	.loc	1 157 21                        @ ../Core/Src/processing.c:157:21
	mov	r0, sp
	movs	r3, #255
	str	r3, [r0]
	movw	r0, :lower16:DataFilling.StringBuf
	movt	r0, :upper16:DataFilling.StringBuf
	str	r0, [sp, #272]                  @ 4-byte Spill
	movw	r1, :lower16:.L.str.3
	movt	r1, :upper16:.L.str.3
	mov	r2, r3
	bl	sprintf
	ldr	r1, [sp, #272]                  @ 4-byte Reload
	.loc	1 157 19 is_stmt 0              @ ../Core/Src/processing.c:157:19
	strb.w	r0, [sp, #305]
	.loc	1 158 59 is_stmt 1              @ ../Core/Src/processing.c:158:59
	ldrb.w	r2, [sp, #305]
	.loc	1 158 6 is_stmt 0               @ ../Core/Src/processing.c:158:6
	movw	r0, :lower16:huart1
	movt	r0, :upper16:huart1
	bl	HAL_UART_Transmit_IT
	.loc	1 159 5 is_stmt 1               @ ../Core/Src/processing.c:159:5
	b	.LBB2_25
.Ltmp34:
.LBB2_25:
	.loc	1 162 13                        @ ../Core/Src/processing.c:162:13
	b	.LBB2_56
.Ltmp35:
.LBB2_26:
	.loc	1 163 42                        @ ../Core/Src/processing.c:163:42
	ldr	r0, [sp, #356]
	.loc	1 163 21 is_stmt 0              @ ../Core/Src/processing.c:163:21
	movw	r1, :lower16:.L.str.4
	movt	r1, :upper16:.L.str.4
	bl	strcmp
.Ltmp36:
	.loc	1 163 21                        @ ../Core/Src/processing.c:163:21
	cbnz	r0, .LBB2_30
	b	.LBB2_27
.LBB2_27:
.Ltmp37:
	.loc	1 165 25 is_stmt 1              @ ../Core/Src/processing.c:165:25
	movw	r0, :lower16:comVariableBlock
	movt	r0, :upper16:comVariableBlock
	ldrb	r0, [r0, #18]
.Ltmp38:
	.loc	1 165 8 is_stmt 0               @ ../Core/Src/processing.c:165:8
	cbz	r0, .LBB2_29
	b	.LBB2_28
.LBB2_28:
.Ltmp39:
	.loc	1 167 38 is_stmt 1              @ ../Core/Src/processing.c:167:38
	movw	r1, :lower16:comVariableBlock
	movt	r1, :upper16:comVariableBlock
	movs	r0, #0
	strb	r0, [r1, #11]
	.loc	1 168 37                        @ ../Core/Src/processing.c:168:37
	movw	r1, :lower16:USART_Data
	movt	r1, :upper16:USART_Data
	movs	r0, #2
	strb	r0, [r1]
	.loc	1 169 21                        @ ../Core/Src/processing.c:169:21
	mov	r0, sp
	movs	r3, #255
	str	r3, [r0]
	movw	r0, :lower16:DataFilling.StringBuf
	movt	r0, :upper16:DataFilling.StringBuf
	str	r0, [sp, #268]                  @ 4-byte Spill
	movw	r1, :lower16:.L.str.5
	movt	r1, :upper16:.L.str.5
	mov	r2, r3
	bl	sprintf
	ldr	r1, [sp, #268]                  @ 4-byte Reload
	.loc	1 169 19 is_stmt 0              @ ../Core/Src/processing.c:169:19
	strb.w	r0, [sp, #305]
	.loc	1 170 59 is_stmt 1              @ ../Core/Src/processing.c:170:59
	ldrb.w	r2, [sp, #305]
	.loc	1 170 6 is_stmt 0               @ ../Core/Src/processing.c:170:6
	movw	r0, :lower16:huart1
	movt	r0, :upper16:huart1
	bl	HAL_UART_Transmit_IT
	.loc	1 172 5 is_stmt 1               @ ../Core/Src/processing.c:172:5
	b	.LBB2_29
.Ltmp40:
.LBB2_29:
	.loc	1 174 13                        @ ../Core/Src/processing.c:174:13
	b	.LBB2_55
.Ltmp41:
.LBB2_30:
	.loc	1 175 42                        @ ../Core/Src/processing.c:175:42
	ldr	r0, [sp, #356]
	.loc	1 175 21 is_stmt 0              @ ../Core/Src/processing.c:175:21
	movw	r1, :lower16:.L.str.6
	movt	r1, :upper16:.L.str.6
	bl	strcmp
.Ltmp42:
	.loc	1 175 21                        @ ../Core/Src/processing.c:175:21
	cbnz	r0, .LBB2_34
	b	.LBB2_31
.LBB2_31:
.Ltmp43:
	.loc	1 177 25 is_stmt 1              @ ../Core/Src/processing.c:177:25
	movw	r0, :lower16:comVariableBlock
	movt	r0, :upper16:comVariableBlock
	ldrb	r0, [r0, #18]
.Ltmp44:
	.loc	1 177 8 is_stmt 0               @ ../Core/Src/processing.c:177:8
	cbz	r0, .LBB2_33
	b	.LBB2_32
.LBB2_32:
.Ltmp45:
	.loc	1 179 38 is_stmt 1              @ ../Core/Src/processing.c:179:38
	movw	r1, :lower16:comVariableBlock
	movt	r1, :upper16:comVariableBlock
	movs	r0, #0
	strb	r0, [r1, #11]
	.loc	1 180 37                        @ ../Core/Src/processing.c:180:37
	movw	r1, :lower16:USART_Data
	movt	r1, :upper16:USART_Data
	movs	r0, #3
	strb	r0, [r1]
	.loc	1 181 21                        @ ../Core/Src/processing.c:181:21
	mov	r0, sp
	movs	r3, #255
	str	r3, [r0]
	movw	r0, :lower16:DataFilling.StringBuf
	movt	r0, :upper16:DataFilling.StringBuf
	str	r0, [sp, #264]                  @ 4-byte Spill
	movw	r1, :lower16:.L.str.7
	movt	r1, :upper16:.L.str.7
	mov	r2, r3
	bl	sprintf
	ldr	r1, [sp, #264]                  @ 4-byte Reload
	.loc	1 181 19 is_stmt 0              @ ../Core/Src/processing.c:181:19
	strb.w	r0, [sp, #305]
	.loc	1 182 59 is_stmt 1              @ ../Core/Src/processing.c:182:59
	ldrb.w	r2, [sp, #305]
	.loc	1 182 6 is_stmt 0               @ ../Core/Src/processing.c:182:6
	movw	r0, :lower16:huart1
	movt	r0, :upper16:huart1
	bl	HAL_UART_Transmit_IT
	.loc	1 183 5 is_stmt 1               @ ../Core/Src/processing.c:183:5
	b	.LBB2_33
.Ltmp46:
.LBB2_33:
	.loc	1 184 13                        @ ../Core/Src/processing.c:184:13
	b	.LBB2_54
.Ltmp47:
.LBB2_34:
	.loc	1 185 42                        @ ../Core/Src/processing.c:185:42
	ldr	r0, [sp, #356]
	.loc	1 185 21 is_stmt 0              @ ../Core/Src/processing.c:185:21
	movw	r1, :lower16:.L.str.8
	movt	r1, :upper16:.L.str.8
	bl	strcmp
.Ltmp48:
	.loc	1 185 21                        @ ../Core/Src/processing.c:185:21
	cbnz	r0, .LBB2_38
	b	.LBB2_35
.LBB2_35:
.Ltmp49:
	.loc	1 187 25 is_stmt 1              @ ../Core/Src/processing.c:187:25
	movw	r0, :lower16:comVariableBlock
	movt	r0, :upper16:comVariableBlock
	ldrb	r0, [r0, #18]
.Ltmp50:
	.loc	1 187 8 is_stmt 0               @ ../Core/Src/processing.c:187:8
	cbz	r0, .LBB2_37
	b	.LBB2_36
.LBB2_36:
.Ltmp51:
	.loc	1 189 38 is_stmt 1              @ ../Core/Src/processing.c:189:38
	movw	r1, :lower16:comVariableBlock
	movt	r1, :upper16:comVariableBlock
	movs	r0, #0
	strb	r0, [r1, #11]
	.loc	1 190 37                        @ ../Core/Src/processing.c:190:37
	movw	r1, :lower16:USART_Data
	movt	r1, :upper16:USART_Data
	movs	r0, #4
	strb	r0, [r1]
	.loc	1 191 21                        @ ../Core/Src/processing.c:191:21
	mov	r0, sp
	movs	r3, #255
	str	r3, [r0]
	movw	r0, :lower16:DataFilling.StringBuf
	movt	r0, :upper16:DataFilling.StringBuf
	str	r0, [sp, #260]                  @ 4-byte Spill
	movw	r1, :lower16:.L.str.9
	movt	r1, :upper16:.L.str.9
	mov	r2, r3
	bl	sprintf
	ldr	r1, [sp, #260]                  @ 4-byte Reload
	.loc	1 191 19 is_stmt 0              @ ../Core/Src/processing.c:191:19
	strb.w	r0, [sp, #305]
	.loc	1 192 59 is_stmt 1              @ ../Core/Src/processing.c:192:59
	ldrb.w	r2, [sp, #305]
	.loc	1 192 6 is_stmt 0               @ ../Core/Src/processing.c:192:6
	movw	r0, :lower16:huart1
	movt	r0, :upper16:huart1
	bl	HAL_UART_Transmit_IT
	.loc	1 193 5 is_stmt 1               @ ../Core/Src/processing.c:193:5
	b	.LBB2_37
.Ltmp52:
.LBB2_37:
	.loc	1 194 13                        @ ../Core/Src/processing.c:194:13
	b	.LBB2_53
.Ltmp53:
.LBB2_38:
	.loc	1 194 43 is_stmt 0              @ ../Core/Src/processing.c:194:43
	ldr	r0, [sp, #356]
	.loc	1 194 22                        @ ../Core/Src/processing.c:194:22
	movw	r1, :lower16:.L.str.10
	movt	r1, :upper16:.L.str.10
	bl	strcmp
.Ltmp54:
	.loc	1 194 22                        @ ../Core/Src/processing.c:194:22
	cbnz	r0, .LBB2_42
	b	.LBB2_39
.LBB2_39:
.Ltmp55:
	.loc	1 196 25 is_stmt 1              @ ../Core/Src/processing.c:196:25
	movw	r0, :lower16:comVariableBlock
	movt	r0, :upper16:comVariableBlock
	ldrb	r0, [r0, #18]
.Ltmp56:
	.loc	1 196 8 is_stmt 0               @ ../Core/Src/processing.c:196:8
	cbz	r0, .LBB2_41
	b	.LBB2_40
.LBB2_40:
.Ltmp57:
	.loc	1 198 38 is_stmt 1              @ ../Core/Src/processing.c:198:38
	movw	r1, :lower16:comVariableBlock
	movt	r1, :upper16:comVariableBlock
	movs	r0, #0
	strb	r0, [r1, #11]
	.loc	1 199 37                        @ ../Core/Src/processing.c:199:37
	movw	r1, :lower16:USART_Data
	movt	r1, :upper16:USART_Data
	movs	r0, #5
	strb	r0, [r1]
	.loc	1 200 21                        @ ../Core/Src/processing.c:200:21
	mov	r0, sp
	movs	r3, #255
	str	r3, [r0]
	movw	r0, :lower16:DataFilling.StringBuf
	movt	r0, :upper16:DataFilling.StringBuf
	str	r0, [sp, #256]                  @ 4-byte Spill
	movw	r1, :lower16:.L.str.11
	movt	r1, :upper16:.L.str.11
	mov	r2, r3
	bl	sprintf
	ldr	r1, [sp, #256]                  @ 4-byte Reload
	.loc	1 200 19 is_stmt 0              @ ../Core/Src/processing.c:200:19
	strb.w	r0, [sp, #305]
	.loc	1 201 59 is_stmt 1              @ ../Core/Src/processing.c:201:59
	ldrb.w	r2, [sp, #305]
	.loc	1 201 6 is_stmt 0               @ ../Core/Src/processing.c:201:6
	movw	r0, :lower16:huart1
	movt	r0, :upper16:huart1
	bl	HAL_UART_Transmit_IT
	.loc	1 202 5 is_stmt 1               @ ../Core/Src/processing.c:202:5
	b	.LBB2_41
.Ltmp58:
.LBB2_41:
	.loc	1 203 13                        @ ../Core/Src/processing.c:203:13
	b	.LBB2_52
.Ltmp59:
.LBB2_42:
	.loc	1 203 43 is_stmt 0              @ ../Core/Src/processing.c:203:43
	ldr	r0, [sp, #356]
	.loc	1 203 22                        @ ../Core/Src/processing.c:203:22
	movw	r1, :lower16:.L.str.12
	movt	r1, :upper16:.L.str.12
	bl	strcmp
.Ltmp60:
	.loc	1 203 22                        @ ../Core/Src/processing.c:203:22
	cbnz	r0, .LBB2_46
	b	.LBB2_43
.LBB2_43:
.Ltmp61:
	.loc	1 205 25 is_stmt 1              @ ../Core/Src/processing.c:205:25
	movw	r0, :lower16:comVariableBlock
	movt	r0, :upper16:comVariableBlock
	ldrb	r0, [r0, #18]
.Ltmp62:
	.loc	1 205 8 is_stmt 0               @ ../Core/Src/processing.c:205:8
	cbz	r0, .LBB2_45
	b	.LBB2_44
.LBB2_44:
.Ltmp63:
	.loc	1 207 38 is_stmt 1              @ ../Core/Src/processing.c:207:38
	movw	r1, :lower16:comVariableBlock
	movt	r1, :upper16:comVariableBlock
	movs	r0, #0
	strb	r0, [r1, #11]
	.loc	1 208 37                        @ ../Core/Src/processing.c:208:37
	movw	r1, :lower16:USART_Data
	movt	r1, :upper16:USART_Data
	movs	r0, #6
	strb	r0, [r1]
	.loc	1 209 21                        @ ../Core/Src/processing.c:209:21
	mov	r0, sp
	movs	r3, #255
	str	r3, [r0]
	movw	r0, :lower16:DataFilling.StringBuf
	movt	r0, :upper16:DataFilling.StringBuf
	str	r0, [sp, #252]                  @ 4-byte Spill
	movw	r1, :lower16:.L.str.13
	movt	r1, :upper16:.L.str.13
	mov	r2, r3
	bl	sprintf
	ldr	r1, [sp, #252]                  @ 4-byte Reload
	.loc	1 209 19 is_stmt 0              @ ../Core/Src/processing.c:209:19
	strb.w	r0, [sp, #305]
	.loc	1 210 59 is_stmt 1              @ ../Core/Src/processing.c:210:59
	ldrb.w	r2, [sp, #305]
	.loc	1 210 6 is_stmt 0               @ ../Core/Src/processing.c:210:6
	movw	r0, :lower16:huart1
	movt	r0, :upper16:huart1
	bl	HAL_UART_Transmit_IT
	.loc	1 211 5 is_stmt 1               @ ../Core/Src/processing.c:211:5
	b	.LBB2_45
.Ltmp64:
.LBB2_45:
	.loc	1 212 13                        @ ../Core/Src/processing.c:212:13
	b	.LBB2_51
.Ltmp65:
.LBB2_46:
	.loc	1 212 43 is_stmt 0              @ ../Core/Src/processing.c:212:43
	ldr	r0, [sp, #356]
	.loc	1 212 22                        @ ../Core/Src/processing.c:212:22
	movw	r1, :lower16:.L.str.14
	movt	r1, :upper16:.L.str.14
	bl	strcmp
.Ltmp66:
	.loc	1 212 22                        @ ../Core/Src/processing.c:212:22
	cbnz	r0, .LBB2_50
	b	.LBB2_47
.LBB2_47:
.Ltmp67:
	.loc	1 214 25 is_stmt 1              @ ../Core/Src/processing.c:214:25
	movw	r0, :lower16:comVariableBlock
	movt	r0, :upper16:comVariableBlock
	ldrb	r0, [r0, #18]
.Ltmp68:
	.loc	1 214 8 is_stmt 0               @ ../Core/Src/processing.c:214:8
	cbz	r0, .LBB2_49
	b	.LBB2_48
.LBB2_48:
.Ltmp69:
	.loc	1 216 38 is_stmt 1              @ ../Core/Src/processing.c:216:38
	movw	r1, :lower16:comVariableBlock
	movt	r1, :upper16:comVariableBlock
	movs	r0, #0
	strb	r0, [r1, #11]
	.loc	1 217 37                        @ ../Core/Src/processing.c:217:37
	movw	r1, :lower16:USART_Data
	movt	r1, :upper16:USART_Data
	movs	r0, #7
	strb	r0, [r1]
	.loc	1 218 21                        @ ../Core/Src/processing.c:218:21
	mov	r0, sp
	movs	r3, #255
	str	r3, [r0]
	movw	r0, :lower16:DataFilling.StringBuf
	movt	r0, :upper16:DataFilling.StringBuf
	str	r0, [sp, #248]                  @ 4-byte Spill
	movw	r1, :lower16:.L.str.15
	movt	r1, :upper16:.L.str.15
	mov	r2, r3
	bl	sprintf
	ldr	r1, [sp, #248]                  @ 4-byte Reload
	.loc	1 218 19 is_stmt 0              @ ../Core/Src/processing.c:218:19
	strb.w	r0, [sp, #305]
	.loc	1 219 59 is_stmt 1              @ ../Core/Src/processing.c:219:59
	ldrb.w	r2, [sp, #305]
	.loc	1 219 6 is_stmt 0               @ ../Core/Src/processing.c:219:6
	movw	r0, :lower16:huart1
	movt	r0, :upper16:huart1
	bl	HAL_UART_Transmit_IT
	.loc	1 220 5 is_stmt 1               @ ../Core/Src/processing.c:220:5
	b	.LBB2_49
.Ltmp70:
.LBB2_49:
	.loc	1 221 13                        @ ../Core/Src/processing.c:221:13
	b	.LBB2_50
.Ltmp71:
.LBB2_50:
	.loc	1 0 13 is_stmt 0                @ ../Core/Src/processing.c:0:13
	b	.LBB2_51
.LBB2_51:
	b	.LBB2_52
.LBB2_52:
	b	.LBB2_53
.LBB2_53:
	b	.LBB2_54
.LBB2_54:
	b	.LBB2_55
.LBB2_55:
	b	.LBB2_56
.LBB2_56:
	b	.LBB2_57
.LBB2_57:
	.loc	1 223 9 is_stmt 1               @ ../Core/Src/processing.c:223:9
	b.w	.LBB2_277
.LBB2_58:
.Ltmp72:
	.loc	1 226 33                        @ ../Core/Src/processing.c:226:33
	movw	r1, :lower16:comVariableBlock
	movt	r1, :upper16:comVariableBlock
	movs	r0, #1
	strb	r0, [r1, #6]
.Ltmp73:
	.loc	1 227 16                        @ ../Core/Src/processing.c:227:16
	ldr	r0, [sp, #356]
	ldrb	r0, [r0, #2]
.Ltmp74:
	.loc	1 227 16 is_stmt 0              @ ../Core/Src/processing.c:227:16
	cmp	r0, #97
	bne	.LBB2_60
	b	.LBB2_59
.LBB2_59:
.Ltmp75:
	.loc	1 229 30 is_stmt 1              @ ../Core/Src/processing.c:229:30
	ldr	r0, [sp, #356]
	add.w	r1, sp, #306
	.loc	1 229 17 is_stmt 0              @ ../Core/Src/processing.c:229:17
	str	r1, [sp, #244]                  @ 4-byte Spill
	bl	RemoveLetter
	ldr	r0, [sp, #244]                  @ 4-byte Reload
	movs	r1, #0
	.loc	1 230 56 is_stmt 1              @ ../Core/Src/processing.c:230:56
	bl	__hardfp_strtod
	vmov	r0, r1, d0
	bl	__aeabi_d2f
	.loc	1 230 54 is_stmt 0              @ ../Core/Src/processing.c:230:54
	movw	r1, :lower16:USART_Data
	movt	r1, :upper16:USART_Data
	str	r0, [r1, #80]
	.loc	1 231 13 is_stmt 1              @ ../Core/Src/processing.c:231:13
	b	.LBB2_105
.Ltmp76:
.LBB2_60:
	.loc	1 233 16                        @ ../Core/Src/processing.c:233:16
	ldr	r0, [sp, #356]
	ldrb	r0, [r0, #2]
.Ltmp77:
	.loc	1 233 16 is_stmt 0              @ ../Core/Src/processing.c:233:16
	cmp	r0, #98
	bne	.LBB2_62
	b	.LBB2_61
.LBB2_61:
.Ltmp78:
	.loc	1 235 30 is_stmt 1              @ ../Core/Src/processing.c:235:30
	ldr	r0, [sp, #356]
	add.w	r1, sp, #306
	.loc	1 235 17 is_stmt 0              @ ../Core/Src/processing.c:235:17
	str	r1, [sp, #240]                  @ 4-byte Spill
	bl	RemoveLetter
	ldr	r0, [sp, #240]                  @ 4-byte Reload
	movs	r1, #0
	.loc	1 236 56 is_stmt 1              @ ../Core/Src/processing.c:236:56
	bl	__hardfp_strtod
	vmov	r0, r1, d0
	bl	__aeabi_d2f
	.loc	1 236 54 is_stmt 0              @ ../Core/Src/processing.c:236:54
	movw	r1, :lower16:USART_Data
	movt	r1, :upper16:USART_Data
	str	r0, [r1, #48]
	.loc	1 237 13 is_stmt 1              @ ../Core/Src/processing.c:237:13
	b	.LBB2_104
.Ltmp79:
.LBB2_62:
	.loc	1 239 16                        @ ../Core/Src/processing.c:239:16
	ldr	r0, [sp, #356]
	ldrb	r0, [r0, #2]
.Ltmp80:
	.loc	1 239 16 is_stmt 0              @ ../Core/Src/processing.c:239:16
	cmp	r0, #99
	bne	.LBB2_64
	b	.LBB2_63
.LBB2_63:
.Ltmp81:
	.loc	1 241 30 is_stmt 1              @ ../Core/Src/processing.c:241:30
	ldr	r0, [sp, #356]
	add.w	r1, sp, #306
	.loc	1 241 17 is_stmt 0              @ ../Core/Src/processing.c:241:17
	str	r1, [sp, #236]                  @ 4-byte Spill
	bl	RemoveLetter
	ldr	r0, [sp, #236]                  @ 4-byte Reload
	movs	r1, #0
	.loc	1 242 56 is_stmt 1              @ ../Core/Src/processing.c:242:56
	bl	__hardfp_strtod
	vmov	r0, r1, d0
	bl	__aeabi_d2f
	.loc	1 242 54 is_stmt 0              @ ../Core/Src/processing.c:242:54
	movw	r1, :lower16:USART_Data
	movt	r1, :upper16:USART_Data
	str	r0, [r1, #84]
	.loc	1 243 13 is_stmt 1              @ ../Core/Src/processing.c:243:13
	b	.LBB2_103
.Ltmp82:
.LBB2_64:
	.loc	1 245 16                        @ ../Core/Src/processing.c:245:16
	ldr	r0, [sp, #356]
	ldrb	r0, [r0, #2]
.Ltmp83:
	.loc	1 245 16 is_stmt 0              @ ../Core/Src/processing.c:245:16
	cmp	r0, #100
	bne	.LBB2_66
	b	.LBB2_65
.LBB2_65:
.Ltmp84:
	.loc	1 247 30 is_stmt 1              @ ../Core/Src/processing.c:247:30
	ldr	r0, [sp, #356]
	add.w	r1, sp, #306
	.loc	1 247 17 is_stmt 0              @ ../Core/Src/processing.c:247:17
	str	r1, [sp, #232]                  @ 4-byte Spill
	bl	RemoveLetter
	ldr	r0, [sp, #232]                  @ 4-byte Reload
	movs	r1, #0
	.loc	1 248 56 is_stmt 1              @ ../Core/Src/processing.c:248:56
	bl	__hardfp_strtod
	vmov	r0, r1, d0
	bl	__aeabi_d2f
	.loc	1 248 54 is_stmt 0              @ ../Core/Src/processing.c:248:54
	movw	r1, :lower16:USART_Data
	movt	r1, :upper16:USART_Data
	str	r0, [r1, #52]
	.loc	1 249 13 is_stmt 1              @ ../Core/Src/processing.c:249:13
	b	.LBB2_102
.Ltmp85:
.LBB2_66:
	.loc	1 251 16                        @ ../Core/Src/processing.c:251:16
	ldr	r0, [sp, #356]
	ldrb	r0, [r0, #2]
.Ltmp86:
	.loc	1 251 16 is_stmt 0              @ ../Core/Src/processing.c:251:16
	cmp	r0, #101
	bne	.LBB2_68
	b	.LBB2_67
.LBB2_67:
.Ltmp87:
	.loc	1 253 30 is_stmt 1              @ ../Core/Src/processing.c:253:30
	ldr	r0, [sp, #356]
	add.w	r1, sp, #306
	.loc	1 253 17 is_stmt 0              @ ../Core/Src/processing.c:253:17
	str	r1, [sp, #228]                  @ 4-byte Spill
	bl	RemoveLetter
	ldr	r0, [sp, #228]                  @ 4-byte Reload
	movs	r1, #0
	.loc	1 254 56 is_stmt 1              @ ../Core/Src/processing.c:254:56
	bl	__hardfp_strtod
	vmov	r0, r1, d0
	bl	__aeabi_d2f
	.loc	1 254 54 is_stmt 0              @ ../Core/Src/processing.c:254:54
	movw	r1, :lower16:USART_Data
	movt	r1, :upper16:USART_Data
	str	r0, [r1, #88]
	.loc	1 255 13 is_stmt 1              @ ../Core/Src/processing.c:255:13
	b	.LBB2_101
.Ltmp88:
.LBB2_68:
	.loc	1 257 16                        @ ../Core/Src/processing.c:257:16
	ldr	r0, [sp, #356]
	ldrb	r0, [r0, #2]
.Ltmp89:
	.loc	1 257 16 is_stmt 0              @ ../Core/Src/processing.c:257:16
	cmp	r0, #102
	bne	.LBB2_70
	b	.LBB2_69
.LBB2_69:
.Ltmp90:
	.loc	1 259 30 is_stmt 1              @ ../Core/Src/processing.c:259:30
	ldr	r0, [sp, #356]
	add.w	r1, sp, #306
	.loc	1 259 17 is_stmt 0              @ ../Core/Src/processing.c:259:17
	str	r1, [sp, #224]                  @ 4-byte Spill
	bl	RemoveLetter
	ldr	r0, [sp, #224]                  @ 4-byte Reload
	movs	r1, #0
	.loc	1 260 56 is_stmt 1              @ ../Core/Src/processing.c:260:56
	bl	__hardfp_strtod
	vmov	r0, r1, d0
	bl	__aeabi_d2f
	.loc	1 260 54 is_stmt 0              @ ../Core/Src/processing.c:260:54
	movw	r1, :lower16:USART_Data
	movt	r1, :upper16:USART_Data
	str	r0, [r1, #56]
	.loc	1 261 13 is_stmt 1              @ ../Core/Src/processing.c:261:13
	b	.LBB2_100
.Ltmp91:
.LBB2_70:
	.loc	1 263 16                        @ ../Core/Src/processing.c:263:16
	ldr	r0, [sp, #356]
	ldrb	r0, [r0, #2]
.Ltmp92:
	.loc	1 263 16 is_stmt 0              @ ../Core/Src/processing.c:263:16
	cmp	r0, #103
	bne	.LBB2_72
	b	.LBB2_71
.LBB2_71:
.Ltmp93:
	.loc	1 265 30 is_stmt 1              @ ../Core/Src/processing.c:265:30
	ldr	r0, [sp, #356]
	add.w	r1, sp, #306
	.loc	1 265 17 is_stmt 0              @ ../Core/Src/processing.c:265:17
	str	r1, [sp, #220]                  @ 4-byte Spill
	bl	RemoveLetter
	ldr	r0, [sp, #220]                  @ 4-byte Reload
	movs	r1, #0
	.loc	1 266 56 is_stmt 1              @ ../Core/Src/processing.c:266:56
	bl	__hardfp_strtod
	vmov	r0, r1, d0
	bl	__aeabi_d2f
	.loc	1 266 54 is_stmt 0              @ ../Core/Src/processing.c:266:54
	movw	r1, :lower16:USART_Data
	movt	r1, :upper16:USART_Data
	str	r0, [r1, #92]
	.loc	1 267 13 is_stmt 1              @ ../Core/Src/processing.c:267:13
	b	.LBB2_99
.Ltmp94:
.LBB2_72:
	.loc	1 269 16                        @ ../Core/Src/processing.c:269:16
	ldr	r0, [sp, #356]
	ldrb	r0, [r0, #2]
.Ltmp95:
	.loc	1 269 16 is_stmt 0              @ ../Core/Src/processing.c:269:16
	cmp	r0, #104
	bne	.LBB2_74
	b	.LBB2_73
.LBB2_73:
.Ltmp96:
	.loc	1 271 30 is_stmt 1              @ ../Core/Src/processing.c:271:30
	ldr	r0, [sp, #356]
	add.w	r1, sp, #306
	.loc	1 271 17 is_stmt 0              @ ../Core/Src/processing.c:271:17
	str	r1, [sp, #216]                  @ 4-byte Spill
	bl	RemoveLetter
	ldr	r0, [sp, #216]                  @ 4-byte Reload
	movs	r1, #0
	.loc	1 272 56 is_stmt 1              @ ../Core/Src/processing.c:272:56
	bl	__hardfp_strtod
	vmov	r0, r1, d0
	bl	__aeabi_d2f
	.loc	1 272 54 is_stmt 0              @ ../Core/Src/processing.c:272:54
	movw	r1, :lower16:USART_Data
	movt	r1, :upper16:USART_Data
	str	r0, [r1, #60]
	.loc	1 273 13 is_stmt 1              @ ../Core/Src/processing.c:273:13
	b	.LBB2_98
.Ltmp97:
.LBB2_74:
	.loc	1 275 16                        @ ../Core/Src/processing.c:275:16
	ldr	r0, [sp, #356]
	ldrb	r0, [r0, #2]
.Ltmp98:
	.loc	1 275 16 is_stmt 0              @ ../Core/Src/processing.c:275:16
	cmp	r0, #105
	bne	.LBB2_76
	b	.LBB2_75
.LBB2_75:
.Ltmp99:
	.loc	1 277 30 is_stmt 1              @ ../Core/Src/processing.c:277:30
	ldr	r0, [sp, #356]
	add.w	r1, sp, #306
	.loc	1 277 17 is_stmt 0              @ ../Core/Src/processing.c:277:17
	str	r1, [sp, #212]                  @ 4-byte Spill
	bl	RemoveLetter
	ldr	r0, [sp, #212]                  @ 4-byte Reload
	movs	r1, #0
	.loc	1 278 56 is_stmt 1              @ ../Core/Src/processing.c:278:56
	bl	__hardfp_strtod
	vmov	r0, r1, d0
	bl	__aeabi_d2f
	.loc	1 278 54 is_stmt 0              @ ../Core/Src/processing.c:278:54
	movw	r1, :lower16:USART_Data
	movt	r1, :upper16:USART_Data
	str	r0, [r1, #96]
	.loc	1 279 13 is_stmt 1              @ ../Core/Src/processing.c:279:13
	b	.LBB2_97
.Ltmp100:
.LBB2_76:
	.loc	1 281 16                        @ ../Core/Src/processing.c:281:16
	ldr	r0, [sp, #356]
	ldrb	r0, [r0, #2]
.Ltmp101:
	.loc	1 281 16 is_stmt 0              @ ../Core/Src/processing.c:281:16
	cmp	r0, #122
	bne	.LBB2_78
	b	.LBB2_77
.LBB2_77:
.Ltmp102:
	.loc	1 283 30 is_stmt 1              @ ../Core/Src/processing.c:283:30
	ldr	r0, [sp, #356]
	add.w	r1, sp, #306
	.loc	1 283 17 is_stmt 0              @ ../Core/Src/processing.c:283:17
	str	r1, [sp, #208]                  @ 4-byte Spill
	bl	RemoveLetter
	ldr	r0, [sp, #208]                  @ 4-byte Reload
	movs	r1, #0
	.loc	1 284 56 is_stmt 1              @ ../Core/Src/processing.c:284:56
	bl	__hardfp_strtod
	vmov	r0, r1, d0
	bl	__aeabi_d2f
	.loc	1 284 54 is_stmt 0              @ ../Core/Src/processing.c:284:54
	movw	r1, :lower16:USART_Data
	movt	r1, :upper16:USART_Data
	str	r0, [r1, #64]
	.loc	1 285 13 is_stmt 1              @ ../Core/Src/processing.c:285:13
	b	.LBB2_96
.Ltmp103:
.LBB2_78:
	.loc	1 287 16                        @ ../Core/Src/processing.c:287:16
	ldr	r0, [sp, #356]
	ldrb	r0, [r0, #2]
.Ltmp104:
	.loc	1 287 16 is_stmt 0              @ ../Core/Src/processing.c:287:16
	cmp	r0, #107
	bne	.LBB2_80
	b	.LBB2_79
.LBB2_79:
.Ltmp105:
	.loc	1 289 30 is_stmt 1              @ ../Core/Src/processing.c:289:30
	ldr	r0, [sp, #356]
	add.w	r1, sp, #306
	.loc	1 289 17 is_stmt 0              @ ../Core/Src/processing.c:289:17
	str	r1, [sp, #204]                  @ 4-byte Spill
	bl	RemoveLetter
	ldr	r0, [sp, #204]                  @ 4-byte Reload
	movs	r1, #0
	.loc	1 290 56 is_stmt 1              @ ../Core/Src/processing.c:290:56
	bl	__hardfp_strtod
	vmov	r0, r1, d0
	bl	__aeabi_d2f
	.loc	1 290 54 is_stmt 0              @ ../Core/Src/processing.c:290:54
	movw	r1, :lower16:USART_Data
	movt	r1, :upper16:USART_Data
	str	r0, [r1, #100]
	.loc	1 291 13 is_stmt 1              @ ../Core/Src/processing.c:291:13
	b	.LBB2_95
.Ltmp106:
.LBB2_80:
	.loc	1 293 16                        @ ../Core/Src/processing.c:293:16
	ldr	r0, [sp, #356]
	ldrb	r0, [r0, #2]
.Ltmp107:
	.loc	1 293 16 is_stmt 0              @ ../Core/Src/processing.c:293:16
	cmp	r0, #108
	bne	.LBB2_82
	b	.LBB2_81
.LBB2_81:
.Ltmp108:
	.loc	1 295 30 is_stmt 1              @ ../Core/Src/processing.c:295:30
	ldr	r0, [sp, #356]
	add.w	r1, sp, #306
	.loc	1 295 17 is_stmt 0              @ ../Core/Src/processing.c:295:17
	str	r1, [sp, #200]                  @ 4-byte Spill
	bl	RemoveLetter
	ldr	r0, [sp, #200]                  @ 4-byte Reload
	movs	r1, #0
	.loc	1 296 56 is_stmt 1              @ ../Core/Src/processing.c:296:56
	bl	__hardfp_strtod
	vmov	r0, r1, d0
	bl	__aeabi_d2f
	.loc	1 296 54 is_stmt 0              @ ../Core/Src/processing.c:296:54
	movw	r1, :lower16:USART_Data
	movt	r1, :upper16:USART_Data
	str	r0, [r1, #68]
	.loc	1 297 13 is_stmt 1              @ ../Core/Src/processing.c:297:13
	b	.LBB2_94
.Ltmp109:
.LBB2_82:
	.loc	1 299 16                        @ ../Core/Src/processing.c:299:16
	ldr	r0, [sp, #356]
	ldrb	r0, [r0, #2]
.Ltmp110:
	.loc	1 299 16 is_stmt 0              @ ../Core/Src/processing.c:299:16
	cmp	r0, #109
	bne	.LBB2_84
	b	.LBB2_83
.LBB2_83:
.Ltmp111:
	.loc	1 301 30 is_stmt 1              @ ../Core/Src/processing.c:301:30
	ldr	r0, [sp, #356]
	add.w	r1, sp, #306
	.loc	1 301 17 is_stmt 0              @ ../Core/Src/processing.c:301:17
	str	r1, [sp, #196]                  @ 4-byte Spill
	bl	RemoveLetter
	ldr	r0, [sp, #196]                  @ 4-byte Reload
	movs	r1, #0
	.loc	1 302 56 is_stmt 1              @ ../Core/Src/processing.c:302:56
	bl	__hardfp_strtod
	vmov	r0, r1, d0
	bl	__aeabi_d2f
	.loc	1 302 54 is_stmt 0              @ ../Core/Src/processing.c:302:54
	movw	r1, :lower16:USART_Data
	movt	r1, :upper16:USART_Data
	str	r0, [r1, #104]
	.loc	1 303 13 is_stmt 1              @ ../Core/Src/processing.c:303:13
	b	.LBB2_93
.Ltmp112:
.LBB2_84:
	.loc	1 305 16                        @ ../Core/Src/processing.c:305:16
	ldr	r0, [sp, #356]
	ldrb	r0, [r0, #2]
.Ltmp113:
	.loc	1 305 16 is_stmt 0              @ ../Core/Src/processing.c:305:16
	cmp	r0, #110
	bne	.LBB2_86
	b	.LBB2_85
.LBB2_85:
.Ltmp114:
	.loc	1 307 30 is_stmt 1              @ ../Core/Src/processing.c:307:30
	ldr	r0, [sp, #356]
	add.w	r1, sp, #306
	.loc	1 307 17 is_stmt 0              @ ../Core/Src/processing.c:307:17
	str	r1, [sp, #192]                  @ 4-byte Spill
	bl	RemoveLetter
	ldr	r0, [sp, #192]                  @ 4-byte Reload
	movs	r1, #0
	.loc	1 308 56 is_stmt 1              @ ../Core/Src/processing.c:308:56
	bl	__hardfp_strtod
	vmov	r0, r1, d0
	bl	__aeabi_d2f
	.loc	1 308 54 is_stmt 0              @ ../Core/Src/processing.c:308:54
	movw	r1, :lower16:USART_Data
	movt	r1, :upper16:USART_Data
	str	r0, [r1, #72]
	.loc	1 309 13 is_stmt 1              @ ../Core/Src/processing.c:309:13
	b	.LBB2_92
.Ltmp115:
.LBB2_86:
	.loc	1 311 16                        @ ../Core/Src/processing.c:311:16
	ldr	r0, [sp, #356]
	ldrb	r0, [r0, #2]
.Ltmp116:
	.loc	1 311 16 is_stmt 0              @ ../Core/Src/processing.c:311:16
	cmp	r0, #111
	bne	.LBB2_88
	b	.LBB2_87
.LBB2_87:
.Ltmp117:
	.loc	1 313 30 is_stmt 1              @ ../Core/Src/processing.c:313:30
	ldr	r0, [sp, #356]
	add.w	r1, sp, #306
	.loc	1 313 17 is_stmt 0              @ ../Core/Src/processing.c:313:17
	str	r1, [sp, #188]                  @ 4-byte Spill
	bl	RemoveLetter
	ldr	r0, [sp, #188]                  @ 4-byte Reload
	movs	r1, #0
	.loc	1 314 56 is_stmt 1              @ ../Core/Src/processing.c:314:56
	bl	__hardfp_strtod
	vmov	r0, r1, d0
	bl	__aeabi_d2f
	.loc	1 314 54 is_stmt 0              @ ../Core/Src/processing.c:314:54
	movw	r1, :lower16:USART_Data
	movt	r1, :upper16:USART_Data
	str	r0, [r1, #108]
	.loc	1 315 13 is_stmt 1              @ ../Core/Src/processing.c:315:13
	b	.LBB2_91
.Ltmp118:
.LBB2_88:
	.loc	1 317 16                        @ ../Core/Src/processing.c:317:16
	ldr	r0, [sp, #356]
	ldrb	r0, [r0, #2]
.Ltmp119:
	.loc	1 317 16 is_stmt 0              @ ../Core/Src/processing.c:317:16
	cmp	r0, #112
	bne	.LBB2_90
	b	.LBB2_89
.LBB2_89:
.Ltmp120:
	.loc	1 319 30 is_stmt 1              @ ../Core/Src/processing.c:319:30
	ldr	r0, [sp, #356]
	add.w	r1, sp, #306
	.loc	1 319 17 is_stmt 0              @ ../Core/Src/processing.c:319:17
	str	r1, [sp, #184]                  @ 4-byte Spill
	bl	RemoveLetter
	ldr	r0, [sp, #184]                  @ 4-byte Reload
	movs	r1, #0
	.loc	1 320 56 is_stmt 1              @ ../Core/Src/processing.c:320:56
	bl	__hardfp_strtod
	vmov	r0, r1, d0
	bl	__aeabi_d2f
	.loc	1 320 54 is_stmt 0              @ ../Core/Src/processing.c:320:54
	movw	r1, :lower16:USART_Data
	movt	r1, :upper16:USART_Data
	str	r0, [r1, #76]
	.loc	1 321 13 is_stmt 1              @ ../Core/Src/processing.c:321:13
	b	.LBB2_90
.Ltmp121:
.LBB2_90:
	.loc	1 0 13 is_stmt 0                @ ../Core/Src/processing.c:0:13
	b	.LBB2_91
.LBB2_91:
	b	.LBB2_92
.LBB2_92:
	b	.LBB2_93
.LBB2_93:
	b	.LBB2_94
.LBB2_94:
	b	.LBB2_95
.LBB2_95:
	b	.LBB2_96
.LBB2_96:
	b	.LBB2_97
.LBB2_97:
	b	.LBB2_98
.LBB2_98:
	b	.LBB2_99
.LBB2_99:
	b	.LBB2_100
.LBB2_100:
	b	.LBB2_101
.LBB2_101:
	b	.LBB2_102
.LBB2_102:
	b	.LBB2_103
.LBB2_103:
	b	.LBB2_104
.LBB2_104:
	b	.LBB2_105
.LBB2_105:
	.loc	1 324 9 is_stmt 1               @ ../Core/Src/processing.c:324:9
	b.w	.LBB2_277
.LBB2_106:
.Ltmp122:
	.loc	1 327 33                        @ ../Core/Src/processing.c:327:33
	movw	r1, :lower16:comVariableBlock
	movt	r1, :upper16:comVariableBlock
	movs	r0, #1
	strb	r0, [r1, #6]
.Ltmp123:
	.loc	1 328 16                        @ ../Core/Src/processing.c:328:16
	ldr	r0, [sp, #356]
	ldrb	r0, [r0, #2]
.Ltmp124:
	.loc	1 328 16 is_stmt 0              @ ../Core/Src/processing.c:328:16
	cmp	r0, #97
	bne	.LBB2_108
	b	.LBB2_107
.LBB2_107:
.Ltmp125:
	.loc	1 330 30 is_stmt 1              @ ../Core/Src/processing.c:330:30
	ldr	r0, [sp, #356]
	add.w	r1, sp, #306
	.loc	1 330 17 is_stmt 0              @ ../Core/Src/processing.c:330:17
	str	r1, [sp, #180]                  @ 4-byte Spill
	bl	RemoveLetter
	ldr	r0, [sp, #180]                  @ 4-byte Reload
	movs	r1, #0
	.loc	1 331 56 is_stmt 1              @ ../Core/Src/processing.c:331:56
	bl	__hardfp_strtod
	vmov	r0, r1, d0
	bl	__aeabi_d2f
	.loc	1 331 54 is_stmt 0              @ ../Core/Src/processing.c:331:54
	movw	r1, :lower16:USART_Data
	movt	r1, :upper16:USART_Data
	str.w	r0, [r1, #208]
	.loc	1 332 13 is_stmt 1              @ ../Core/Src/processing.c:332:13
	b	.LBB2_153
.Ltmp126:
.LBB2_108:
	.loc	1 334 16                        @ ../Core/Src/processing.c:334:16
	ldr	r0, [sp, #356]
	ldrb	r0, [r0, #2]
.Ltmp127:
	.loc	1 334 16 is_stmt 0              @ ../Core/Src/processing.c:334:16
	cmp	r0, #98
	bne	.LBB2_110
	b	.LBB2_109
.LBB2_109:
.Ltmp128:
	.loc	1 336 30 is_stmt 1              @ ../Core/Src/processing.c:336:30
	ldr	r0, [sp, #356]
	add.w	r1, sp, #306
	.loc	1 336 17 is_stmt 0              @ ../Core/Src/processing.c:336:17
	str	r1, [sp, #176]                  @ 4-byte Spill
	bl	RemoveLetter
	ldr	r0, [sp, #176]                  @ 4-byte Reload
	movs	r1, #0
	.loc	1 337 56 is_stmt 1              @ ../Core/Src/processing.c:337:56
	bl	__hardfp_strtod
	vmov	r0, r1, d0
	bl	__aeabi_d2f
	.loc	1 337 54 is_stmt 0              @ ../Core/Src/processing.c:337:54
	movw	r1, :lower16:USART_Data
	movt	r1, :upper16:USART_Data
	str.w	r0, [r1, #176]
	.loc	1 338 13 is_stmt 1              @ ../Core/Src/processing.c:338:13
	b	.LBB2_152
.Ltmp129:
.LBB2_110:
	.loc	1 340 16                        @ ../Core/Src/processing.c:340:16
	ldr	r0, [sp, #356]
	ldrb	r0, [r0, #2]
.Ltmp130:
	.loc	1 340 16 is_stmt 0              @ ../Core/Src/processing.c:340:16
	cmp	r0, #99
	bne	.LBB2_112
	b	.LBB2_111
.LBB2_111:
.Ltmp131:
	.loc	1 342 30 is_stmt 1              @ ../Core/Src/processing.c:342:30
	ldr	r0, [sp, #356]
	add.w	r1, sp, #306
	.loc	1 342 17 is_stmt 0              @ ../Core/Src/processing.c:342:17
	str	r1, [sp, #172]                  @ 4-byte Spill
	bl	RemoveLetter
	ldr	r0, [sp, #172]                  @ 4-byte Reload
	movs	r1, #0
	.loc	1 343 56 is_stmt 1              @ ../Core/Src/processing.c:343:56
	bl	__hardfp_strtod
	vmov	r0, r1, d0
	bl	__aeabi_d2f
	.loc	1 343 54 is_stmt 0              @ ../Core/Src/processing.c:343:54
	movw	r1, :lower16:USART_Data
	movt	r1, :upper16:USART_Data
	str.w	r0, [r1, #212]
	.loc	1 344 13 is_stmt 1              @ ../Core/Src/processing.c:344:13
	b	.LBB2_151
.Ltmp132:
.LBB2_112:
	.loc	1 346 16                        @ ../Core/Src/processing.c:346:16
	ldr	r0, [sp, #356]
	ldrb	r0, [r0, #2]
.Ltmp133:
	.loc	1 346 16 is_stmt 0              @ ../Core/Src/processing.c:346:16
	cmp	r0, #100
	bne	.LBB2_114
	b	.LBB2_113
.LBB2_113:
.Ltmp134:
	.loc	1 348 30 is_stmt 1              @ ../Core/Src/processing.c:348:30
	ldr	r0, [sp, #356]
	add.w	r1, sp, #306
	.loc	1 348 17 is_stmt 0              @ ../Core/Src/processing.c:348:17
	str	r1, [sp, #168]                  @ 4-byte Spill
	bl	RemoveLetter
	ldr	r0, [sp, #168]                  @ 4-byte Reload
	movs	r1, #0
	.loc	1 349 56 is_stmt 1              @ ../Core/Src/processing.c:349:56
	bl	__hardfp_strtod
	vmov	r0, r1, d0
	bl	__aeabi_d2f
	.loc	1 349 54 is_stmt 0              @ ../Core/Src/processing.c:349:54
	movw	r1, :lower16:USART_Data
	movt	r1, :upper16:USART_Data
	str.w	r0, [r1, #180]
	.loc	1 350 13 is_stmt 1              @ ../Core/Src/processing.c:350:13
	b	.LBB2_150
.Ltmp135:
.LBB2_114:
	.loc	1 352 16                        @ ../Core/Src/processing.c:352:16
	ldr	r0, [sp, #356]
	ldrb	r0, [r0, #2]
.Ltmp136:
	.loc	1 352 16 is_stmt 0              @ ../Core/Src/processing.c:352:16
	cmp	r0, #101
	bne	.LBB2_116
	b	.LBB2_115
.LBB2_115:
.Ltmp137:
	.loc	1 354 30 is_stmt 1              @ ../Core/Src/processing.c:354:30
	ldr	r0, [sp, #356]
	add.w	r1, sp, #306
	.loc	1 354 17 is_stmt 0              @ ../Core/Src/processing.c:354:17
	str	r1, [sp, #164]                  @ 4-byte Spill
	bl	RemoveLetter
	ldr	r0, [sp, #164]                  @ 4-byte Reload
	movs	r1, #0
	.loc	1 355 56 is_stmt 1              @ ../Core/Src/processing.c:355:56
	bl	__hardfp_strtod
	vmov	r0, r1, d0
	bl	__aeabi_d2f
	.loc	1 355 54 is_stmt 0              @ ../Core/Src/processing.c:355:54
	movw	r1, :lower16:USART_Data
	movt	r1, :upper16:USART_Data
	str.w	r0, [r1, #216]
	.loc	1 356 13 is_stmt 1              @ ../Core/Src/processing.c:356:13
	b	.LBB2_149
.Ltmp138:
.LBB2_116:
	.loc	1 358 16                        @ ../Core/Src/processing.c:358:16
	ldr	r0, [sp, #356]
	ldrb	r0, [r0, #2]
.Ltmp139:
	.loc	1 358 16 is_stmt 0              @ ../Core/Src/processing.c:358:16
	cmp	r0, #102
	bne	.LBB2_118
	b	.LBB2_117
.LBB2_117:
.Ltmp140:
	.loc	1 360 30 is_stmt 1              @ ../Core/Src/processing.c:360:30
	ldr	r0, [sp, #356]
	add.w	r1, sp, #306
	.loc	1 360 17 is_stmt 0              @ ../Core/Src/processing.c:360:17
	str	r1, [sp, #160]                  @ 4-byte Spill
	bl	RemoveLetter
	ldr	r0, [sp, #160]                  @ 4-byte Reload
	movs	r1, #0
	.loc	1 361 56 is_stmt 1              @ ../Core/Src/processing.c:361:56
	bl	__hardfp_strtod
	vmov	r0, r1, d0
	bl	__aeabi_d2f
	.loc	1 361 54 is_stmt 0              @ ../Core/Src/processing.c:361:54
	movw	r1, :lower16:USART_Data
	movt	r1, :upper16:USART_Data
	str.w	r0, [r1, #184]
	.loc	1 362 13 is_stmt 1              @ ../Core/Src/processing.c:362:13
	b	.LBB2_148
.Ltmp141:
.LBB2_118:
	.loc	1 364 16                        @ ../Core/Src/processing.c:364:16
	ldr	r0, [sp, #356]
	ldrb	r0, [r0, #2]
.Ltmp142:
	.loc	1 364 16 is_stmt 0              @ ../Core/Src/processing.c:364:16
	cmp	r0, #103
	bne	.LBB2_120
	b	.LBB2_119
.LBB2_119:
.Ltmp143:
	.loc	1 366 30 is_stmt 1              @ ../Core/Src/processing.c:366:30
	ldr	r0, [sp, #356]
	add.w	r1, sp, #306
	.loc	1 366 17 is_stmt 0              @ ../Core/Src/processing.c:366:17
	str	r1, [sp, #156]                  @ 4-byte Spill
	bl	RemoveLetter
	ldr	r0, [sp, #156]                  @ 4-byte Reload
	movs	r1, #0
	.loc	1 367 56 is_stmt 1              @ ../Core/Src/processing.c:367:56
	bl	__hardfp_strtod
	vmov	r0, r1, d0
	bl	__aeabi_d2f
	.loc	1 367 54 is_stmt 0              @ ../Core/Src/processing.c:367:54
	movw	r1, :lower16:USART_Data
	movt	r1, :upper16:USART_Data
	str.w	r0, [r1, #220]
	.loc	1 368 13 is_stmt 1              @ ../Core/Src/processing.c:368:13
	b	.LBB2_147
.Ltmp144:
.LBB2_120:
	.loc	1 370 16                        @ ../Core/Src/processing.c:370:16
	ldr	r0, [sp, #356]
	ldrb	r0, [r0, #2]
.Ltmp145:
	.loc	1 370 16 is_stmt 0              @ ../Core/Src/processing.c:370:16
	cmp	r0, #104
	bne	.LBB2_122
	b	.LBB2_121
.LBB2_121:
.Ltmp146:
	.loc	1 372 30 is_stmt 1              @ ../Core/Src/processing.c:372:30
	ldr	r0, [sp, #356]
	add.w	r1, sp, #306
	.loc	1 372 17 is_stmt 0              @ ../Core/Src/processing.c:372:17
	str	r1, [sp, #152]                  @ 4-byte Spill
	bl	RemoveLetter
	ldr	r0, [sp, #152]                  @ 4-byte Reload
	movs	r1, #0
	.loc	1 373 56 is_stmt 1              @ ../Core/Src/processing.c:373:56
	bl	__hardfp_strtod
	vmov	r0, r1, d0
	bl	__aeabi_d2f
	.loc	1 373 54 is_stmt 0              @ ../Core/Src/processing.c:373:54
	movw	r1, :lower16:USART_Data
	movt	r1, :upper16:USART_Data
	str.w	r0, [r1, #188]
	.loc	1 374 13 is_stmt 1              @ ../Core/Src/processing.c:374:13
	b	.LBB2_146
.Ltmp147:
.LBB2_122:
	.loc	1 376 16                        @ ../Core/Src/processing.c:376:16
	ldr	r0, [sp, #356]
	ldrb	r0, [r0, #2]
.Ltmp148:
	.loc	1 376 16 is_stmt 0              @ ../Core/Src/processing.c:376:16
	cmp	r0, #105
	bne	.LBB2_124
	b	.LBB2_123
.LBB2_123:
.Ltmp149:
	.loc	1 378 30 is_stmt 1              @ ../Core/Src/processing.c:378:30
	ldr	r0, [sp, #356]
	add.w	r1, sp, #306
	.loc	1 378 17 is_stmt 0              @ ../Core/Src/processing.c:378:17
	str	r1, [sp, #148]                  @ 4-byte Spill
	bl	RemoveLetter
	ldr	r0, [sp, #148]                  @ 4-byte Reload
	movs	r1, #0
	.loc	1 379 56 is_stmt 1              @ ../Core/Src/processing.c:379:56
	bl	__hardfp_strtod
	vmov	r0, r1, d0
	bl	__aeabi_d2f
	.loc	1 379 54 is_stmt 0              @ ../Core/Src/processing.c:379:54
	movw	r1, :lower16:USART_Data
	movt	r1, :upper16:USART_Data
	str.w	r0, [r1, #224]
	.loc	1 380 13 is_stmt 1              @ ../Core/Src/processing.c:380:13
	b	.LBB2_145
.Ltmp150:
.LBB2_124:
	.loc	1 382 16                        @ ../Core/Src/processing.c:382:16
	ldr	r0, [sp, #356]
	ldrb	r0, [r0, #2]
.Ltmp151:
	.loc	1 382 16 is_stmt 0              @ ../Core/Src/processing.c:382:16
	cmp	r0, #122
	bne	.LBB2_126
	b	.LBB2_125
.LBB2_125:
.Ltmp152:
	.loc	1 384 30 is_stmt 1              @ ../Core/Src/processing.c:384:30
	ldr	r0, [sp, #356]
	add.w	r1, sp, #306
	.loc	1 384 17 is_stmt 0              @ ../Core/Src/processing.c:384:17
	str	r1, [sp, #144]                  @ 4-byte Spill
	bl	RemoveLetter
	ldr	r0, [sp, #144]                  @ 4-byte Reload
	movs	r1, #0
	.loc	1 385 56 is_stmt 1              @ ../Core/Src/processing.c:385:56
	bl	__hardfp_strtod
	vmov	r0, r1, d0
	bl	__aeabi_d2f
	.loc	1 385 54 is_stmt 0              @ ../Core/Src/processing.c:385:54
	movw	r1, :lower16:USART_Data
	movt	r1, :upper16:USART_Data
	str.w	r0, [r1, #192]
	.loc	1 386 13 is_stmt 1              @ ../Core/Src/processing.c:386:13
	b	.LBB2_144
.Ltmp153:
.LBB2_126:
	.loc	1 388 16                        @ ../Core/Src/processing.c:388:16
	ldr	r0, [sp, #356]
	ldrb	r0, [r0, #2]
.Ltmp154:
	.loc	1 388 16 is_stmt 0              @ ../Core/Src/processing.c:388:16
	cmp	r0, #107
	bne	.LBB2_128
	b	.LBB2_127
.LBB2_127:
.Ltmp155:
	.loc	1 390 30 is_stmt 1              @ ../Core/Src/processing.c:390:30
	ldr	r0, [sp, #356]
	add.w	r1, sp, #306
	.loc	1 390 17 is_stmt 0              @ ../Core/Src/processing.c:390:17
	str	r1, [sp, #140]                  @ 4-byte Spill
	bl	RemoveLetter
	ldr	r0, [sp, #140]                  @ 4-byte Reload
	movs	r1, #0
	.loc	1 391 56 is_stmt 1              @ ../Core/Src/processing.c:391:56
	bl	__hardfp_strtod
	vmov	r0, r1, d0
	bl	__aeabi_d2f
	.loc	1 391 54 is_stmt 0              @ ../Core/Src/processing.c:391:54
	movw	r1, :lower16:USART_Data
	movt	r1, :upper16:USART_Data
	str.w	r0, [r1, #228]
	.loc	1 392 13 is_stmt 1              @ ../Core/Src/processing.c:392:13
	b	.LBB2_143
.Ltmp156:
.LBB2_128:
	.loc	1 394 16                        @ ../Core/Src/processing.c:394:16
	ldr	r0, [sp, #356]
	ldrb	r0, [r0, #2]
.Ltmp157:
	.loc	1 394 16 is_stmt 0              @ ../Core/Src/processing.c:394:16
	cmp	r0, #108
	bne	.LBB2_130
	b	.LBB2_129
.LBB2_129:
.Ltmp158:
	.loc	1 396 30 is_stmt 1              @ ../Core/Src/processing.c:396:30
	ldr	r0, [sp, #356]
	add.w	r1, sp, #306
	.loc	1 396 17 is_stmt 0              @ ../Core/Src/processing.c:396:17
	str	r1, [sp, #136]                  @ 4-byte Spill
	bl	RemoveLetter
	ldr	r0, [sp, #136]                  @ 4-byte Reload
	movs	r1, #0
	.loc	1 397 56 is_stmt 1              @ ../Core/Src/processing.c:397:56
	bl	__hardfp_strtod
	vmov	r0, r1, d0
	bl	__aeabi_d2f
	.loc	1 397 54 is_stmt 0              @ ../Core/Src/processing.c:397:54
	movw	r1, :lower16:USART_Data
	movt	r1, :upper16:USART_Data
	str.w	r0, [r1, #196]
	.loc	1 398 13 is_stmt 1              @ ../Core/Src/processing.c:398:13
	b	.LBB2_142
.Ltmp159:
.LBB2_130:
	.loc	1 400 16                        @ ../Core/Src/processing.c:400:16
	ldr	r0, [sp, #356]
	ldrb	r0, [r0, #2]
.Ltmp160:
	.loc	1 400 16 is_stmt 0              @ ../Core/Src/processing.c:400:16
	cmp	r0, #109
	bne	.LBB2_132
	b	.LBB2_131
.LBB2_131:
.Ltmp161:
	.loc	1 402 30 is_stmt 1              @ ../Core/Src/processing.c:402:30
	ldr	r0, [sp, #356]
	add.w	r1, sp, #306
	.loc	1 402 17 is_stmt 0              @ ../Core/Src/processing.c:402:17
	str	r1, [sp, #132]                  @ 4-byte Spill
	bl	RemoveLetter
	ldr	r0, [sp, #132]                  @ 4-byte Reload
	movs	r1, #0
	.loc	1 403 56 is_stmt 1              @ ../Core/Src/processing.c:403:56
	bl	__hardfp_strtod
	vmov	r0, r1, d0
	bl	__aeabi_d2f
	.loc	1 403 54 is_stmt 0              @ ../Core/Src/processing.c:403:54
	movw	r1, :lower16:USART_Data
	movt	r1, :upper16:USART_Data
	str.w	r0, [r1, #232]
	.loc	1 404 13 is_stmt 1              @ ../Core/Src/processing.c:404:13
	b	.LBB2_141
.Ltmp162:
.LBB2_132:
	.loc	1 406 16                        @ ../Core/Src/processing.c:406:16
	ldr	r0, [sp, #356]
	ldrb	r0, [r0, #2]
.Ltmp163:
	.loc	1 406 16 is_stmt 0              @ ../Core/Src/processing.c:406:16
	cmp	r0, #110
	bne	.LBB2_134
	b	.LBB2_133
.LBB2_133:
.Ltmp164:
	.loc	1 408 30 is_stmt 1              @ ../Core/Src/processing.c:408:30
	ldr	r0, [sp, #356]
	add.w	r1, sp, #306
	.loc	1 408 17 is_stmt 0              @ ../Core/Src/processing.c:408:17
	str	r1, [sp, #128]                  @ 4-byte Spill
	bl	RemoveLetter
	ldr	r0, [sp, #128]                  @ 4-byte Reload
	movs	r1, #0
	.loc	1 409 56 is_stmt 1              @ ../Core/Src/processing.c:409:56
	bl	__hardfp_strtod
	vmov	r0, r1, d0
	bl	__aeabi_d2f
	.loc	1 409 54 is_stmt 0              @ ../Core/Src/processing.c:409:54
	movw	r1, :lower16:USART_Data
	movt	r1, :upper16:USART_Data
	str.w	r0, [r1, #200]
	.loc	1 410 13 is_stmt 1              @ ../Core/Src/processing.c:410:13
	b	.LBB2_140
.Ltmp165:
.LBB2_134:
	.loc	1 412 16                        @ ../Core/Src/processing.c:412:16
	ldr	r0, [sp, #356]
	ldrb	r0, [r0, #2]
.Ltmp166:
	.loc	1 412 16 is_stmt 0              @ ../Core/Src/processing.c:412:16
	cmp	r0, #111
	bne	.LBB2_136
	b	.LBB2_135
.LBB2_135:
.Ltmp167:
	.loc	1 414 30 is_stmt 1              @ ../Core/Src/processing.c:414:30
	ldr	r0, [sp, #356]
	add.w	r1, sp, #306
	.loc	1 414 17 is_stmt 0              @ ../Core/Src/processing.c:414:17
	str	r1, [sp, #124]                  @ 4-byte Spill
	bl	RemoveLetter
	ldr	r0, [sp, #124]                  @ 4-byte Reload
	movs	r1, #0
	.loc	1 415 56 is_stmt 1              @ ../Core/Src/processing.c:415:56
	bl	__hardfp_strtod
	vmov	r0, r1, d0
	bl	__aeabi_d2f
	.loc	1 415 54 is_stmt 0              @ ../Core/Src/processing.c:415:54
	movw	r1, :lower16:USART_Data
	movt	r1, :upper16:USART_Data
	str.w	r0, [r1, #236]
	.loc	1 416 13 is_stmt 1              @ ../Core/Src/processing.c:416:13
	b	.LBB2_139
.Ltmp168:
.LBB2_136:
	.loc	1 418 16                        @ ../Core/Src/processing.c:418:16
	ldr	r0, [sp, #356]
	ldrb	r0, [r0, #2]
.Ltmp169:
	.loc	1 418 16 is_stmt 0              @ ../Core/Src/processing.c:418:16
	cmp	r0, #112
	bne	.LBB2_138
	b	.LBB2_137
.LBB2_137:
.Ltmp170:
	.loc	1 420 30 is_stmt 1              @ ../Core/Src/processing.c:420:30
	ldr	r0, [sp, #356]
	add.w	r1, sp, #306
	.loc	1 420 17 is_stmt 0              @ ../Core/Src/processing.c:420:17
	str	r1, [sp, #120]                  @ 4-byte Spill
	bl	RemoveLetter
	ldr	r0, [sp, #120]                  @ 4-byte Reload
	movs	r1, #0
	.loc	1 421 56 is_stmt 1              @ ../Core/Src/processing.c:421:56
	bl	__hardfp_strtod
	vmov	r0, r1, d0
	bl	__aeabi_d2f
	.loc	1 421 54 is_stmt 0              @ ../Core/Src/processing.c:421:54
	movw	r1, :lower16:USART_Data
	movt	r1, :upper16:USART_Data
	str.w	r0, [r1, #204]
	.loc	1 422 13 is_stmt 1              @ ../Core/Src/processing.c:422:13
	b	.LBB2_138
.Ltmp171:
.LBB2_138:
	.loc	1 0 13 is_stmt 0                @ ../Core/Src/processing.c:0:13
	b	.LBB2_139
.LBB2_139:
	b	.LBB2_140
.LBB2_140:
	b	.LBB2_141
.LBB2_141:
	b	.LBB2_142
.LBB2_142:
	b	.LBB2_143
.LBB2_143:
	b	.LBB2_144
.LBB2_144:
	b	.LBB2_145
.LBB2_145:
	b	.LBB2_146
.LBB2_146:
	b	.LBB2_147
.LBB2_147:
	b	.LBB2_148
.LBB2_148:
	b	.LBB2_149
.LBB2_149:
	b	.LBB2_150
.LBB2_150:
	b	.LBB2_151
.LBB2_151:
	b	.LBB2_152
.LBB2_152:
	b	.LBB2_153
.LBB2_153:
	.loc	1 424 11 is_stmt 1              @ ../Core/Src/processing.c:424:11
	b	.LBB2_277
.LBB2_154:
.Ltmp172:
	.loc	1 427 16                        @ ../Core/Src/processing.c:427:16
	ldr	r0, [sp, #356]
	ldrb	r0, [r0, #2]
	.loc	1 427 30 is_stmt 0              @ ../Core/Src/processing.c:427:30
	cmp	r0, #83
	bne	.LBB2_159
	b	.LBB2_155
.LBB2_155:
	.loc	1 427 34                        @ ../Core/Src/processing.c:427:34
	ldr	r0, [sp, #356]
	ldrb	r0, [r0, #4]
.Ltmp173:
	.loc	1 427 16                        @ ../Core/Src/processing.c:427:16
	cmp	r0, #97
	bne	.LBB2_159
	b	.LBB2_156
.LBB2_156:
.Ltmp174:
	.loc	1 429 25 is_stmt 1              @ ../Core/Src/processing.c:429:25
	movw	r0, :lower16:comVariableBlock
	movt	r0, :upper16:comVariableBlock
	ldrb	r0, [r0, #18]
.Ltmp175:
	.loc	1 429 8 is_stmt 0               @ ../Core/Src/processing.c:429:8
	cbz	r0, .LBB2_158
	b	.LBB2_157
.LBB2_157:
.Ltmp176:
	.loc	1 431 37 is_stmt 1              @ ../Core/Src/processing.c:431:37
	movw	r1, :lower16:comVariableBlock
	movt	r1, :upper16:comVariableBlock
	movs	r0, #1
	strb	r0, [r1, #12]
	.loc	1 433 5                         @ ../Core/Src/processing.c:433:5
	b	.LBB2_158
.Ltmp177:
.LBB2_158:
	.loc	1 434 20                        @ ../Core/Src/processing.c:434:20
	mov	r0, sp
	movs	r3, #255
	str	r3, [r0]
	movw	r0, :lower16:DataFilling.StringBuf
	movt	r0, :upper16:DataFilling.StringBuf
	str	r0, [sp, #116]                  @ 4-byte Spill
	movw	r1, :lower16:.L.str.16
	movt	r1, :upper16:.L.str.16
	mov	r2, r3
	bl	sprintf
	ldr	r1, [sp, #116]                  @ 4-byte Reload
	.loc	1 434 18 is_stmt 0              @ ../Core/Src/processing.c:434:18
	strb.w	r0, [sp, #305]
	.loc	1 435 61 is_stmt 1              @ ../Core/Src/processing.c:435:61
	ldrb.w	r2, [sp, #305]
	.loc	1 435 8 is_stmt 0               @ ../Core/Src/processing.c:435:8
	movw	r0, :lower16:huart1
	movt	r0, :upper16:huart1
	bl	HAL_UART_Transmit_IT
	.loc	1 436 13 is_stmt 1              @ ../Core/Src/processing.c:436:13
	b	.LBB2_169
.Ltmp178:
.LBB2_159:
	.loc	1 437 16                        @ ../Core/Src/processing.c:437:16
	ldr	r0, [sp, #356]
	ldrb	r0, [r0, #2]
	.loc	1 437 30 is_stmt 0              @ ../Core/Src/processing.c:437:30
	cmp	r0, #83
	bne	.LBB2_162
	b	.LBB2_160
.LBB2_160:
	.loc	1 437 34                        @ ../Core/Src/processing.c:437:34
	ldr	r0, [sp, #356]
	ldrb	r0, [r0, #4]
.Ltmp179:
	.loc	1 437 16                        @ ../Core/Src/processing.c:437:16
	cmp	r0, #111
	bne	.LBB2_162
	b	.LBB2_161
.LBB2_161:
.Ltmp180:
	.loc	1 439 35 is_stmt 1              @ ../Core/Src/processing.c:439:35
	movw	r1, :lower16:comVariableBlock
	movt	r1, :upper16:comVariableBlock
	movs	r0, #1
	strb	r0, [r1, #13]
	.loc	1 440 20                        @ ../Core/Src/processing.c:440:20
	mov	r0, sp
	movs	r3, #255
	str	r3, [r0]
	movw	r0, :lower16:DataFilling.StringBuf
	movt	r0, :upper16:DataFilling.StringBuf
	str	r0, [sp, #112]                  @ 4-byte Spill
	movw	r1, :lower16:.L.str.16
	movt	r1, :upper16:.L.str.16
	mov	r2, r3
	bl	sprintf
	ldr	r1, [sp, #112]                  @ 4-byte Reload
	.loc	1 440 18 is_stmt 0              @ ../Core/Src/processing.c:440:18
	strb.w	r0, [sp, #305]
	.loc	1 441 58 is_stmt 1              @ ../Core/Src/processing.c:441:58
	ldrb.w	r2, [sp, #305]
	.loc	1 441 5 is_stmt 0               @ ../Core/Src/processing.c:441:5
	movw	r0, :lower16:huart1
	movt	r0, :upper16:huart1
	bl	HAL_UART_Transmit_IT
	.loc	1 442 13 is_stmt 1              @ ../Core/Src/processing.c:442:13
	b	.LBB2_168
.Ltmp181:
.LBB2_162:
	.loc	1 443 7                         @ ../Core/Src/processing.c:443:7
	ldr	r0, [sp, #356]
	ldrb	r0, [r0, #2]
.Ltmp182:
	.loc	1 443 7 is_stmt 0               @ ../Core/Src/processing.c:443:7
	cmp	r0, #82
	bne	.LBB2_164
	b	.LBB2_163
.LBB2_163:
.Ltmp183:
	.loc	1 445 33 is_stmt 1              @ ../Core/Src/processing.c:445:33
	movw	r1, :lower16:comVariableBlock
	movt	r1, :upper16:comVariableBlock
	movs	r0, #1
	strb	r0, [r1, #14]
	.loc	1 446 13                        @ ../Core/Src/processing.c:446:13
	b	.LBB2_167
.Ltmp184:
.LBB2_164:
	.loc	1 447 7                         @ ../Core/Src/processing.c:447:7
	ldr	r0, [sp, #356]
	ldrb	r0, [r0, #2]
.Ltmp185:
	.loc	1 447 7 is_stmt 0               @ ../Core/Src/processing.c:447:7
	cmp	r0, #99
	bne	.LBB2_166
	b	.LBB2_165
.LBB2_165:
.Ltmp186:
	.loc	1 449 47 is_stmt 1              @ ../Core/Src/processing.c:449:47
	movw	r1, :lower16:comVariableBlock
	movt	r1, :upper16:comVariableBlock
	movs	r0, #1
	strb	r0, [r1, #16]
	.loc	1 450 4                         @ ../Core/Src/processing.c:450:4
	b	.LBB2_166
.Ltmp187:
.LBB2_166:
	.loc	1 0 4 is_stmt 0                 @ ../Core/Src/processing.c:0:4
	b	.LBB2_167
.LBB2_167:
	b	.LBB2_168
.LBB2_168:
	b	.LBB2_169
.LBB2_169:
	.loc	1 452 4 is_stmt 1               @ ../Core/Src/processing.c:452:4
	b	.LBB2_277
.LBB2_170:
.Ltmp188:
	.loc	1 455 16                        @ ../Core/Src/processing.c:455:16
	ldr	r0, [sp, #356]
	ldrb	r0, [r0, #4]
.Ltmp189:
	.loc	1 455 16 is_stmt 0              @ ../Core/Src/processing.c:455:16
	cmp	r0, #89
	bne	.LBB2_172
	b	.LBB2_171
.LBB2_171:
.Ltmp190:
	.loc	1 457 30 is_stmt 1              @ ../Core/Src/processing.c:457:30
	ldr	r0, [sp, #356]
	add.w	r1, sp, #306
	.loc	1 457 17 is_stmt 0              @ ../Core/Src/processing.c:457:17
	str	r1, [sp, #108]                  @ 4-byte Spill
	bl	RemoveLetter
	ldr	r0, [sp, #108]                  @ 4-byte Reload
	.loc	1 458 44 is_stmt 1              @ ../Core/Src/processing.c:458:44
	bl	atoi
	.loc	1 458 42 is_stmt 0              @ ../Core/Src/processing.c:458:42
	movw	r1, :lower16:comVariableBlock
	movt	r1, :upper16:comVariableBlock
	strh	r0, [r1, #20]
	.loc	1 459 4 is_stmt 1               @ ../Core/Src/processing.c:459:4
	b	.LBB2_188
.Ltmp191:
.LBB2_172:
	.loc	1 460 16                        @ ../Core/Src/processing.c:460:16
	ldr	r0, [sp, #356]
	ldrb	r0, [r0, #4]
.Ltmp192:
	.loc	1 460 16 is_stmt 0              @ ../Core/Src/processing.c:460:16
	cmp	r0, #77
	bne	.LBB2_178
	b	.LBB2_173
.LBB2_173:
.Ltmp193:
	.loc	1 463 8 is_stmt 1               @ ../Core/Src/processing.c:463:8
	ldr	r0, [sp, #356]
	ldrb	r0, [r0, #5]
.Ltmp194:
	.loc	1 463 8 is_stmt 0               @ ../Core/Src/processing.c:463:8
	cmp	r0, #111
	bne	.LBB2_175
	b	.LBB2_174
.LBB2_174:
.Ltmp195:
	.loc	1 465 19 is_stmt 1              @ ../Core/Src/processing.c:465:19
	ldr	r0, [sp, #356]
	add.w	r1, sp, #306
	.loc	1 465 6 is_stmt 0               @ ../Core/Src/processing.c:465:6
	str	r1, [sp, #104]                  @ 4-byte Spill
	bl	RemoveLetter
	ldr	r0, [sp, #104]                  @ 4-byte Reload
	.loc	1 466 35 is_stmt 1              @ ../Core/Src/processing.c:466:35
	bl	atoi
	.loc	1 466 33 is_stmt 0              @ ../Core/Src/processing.c:466:33
	movw	r1, :lower16:comVariableBlock
	movt	r1, :upper16:comVariableBlock
	strh	r0, [r1, #22]
	.loc	1 467 5 is_stmt 1               @ ../Core/Src/processing.c:467:5
	b	.LBB2_175
.Ltmp196:
.LBB2_175:
	.loc	1 468 8                         @ ../Core/Src/processing.c:468:8
	ldr	r0, [sp, #356]
	ldrb	r0, [r0, #5]
.Ltmp197:
	.loc	1 468 8 is_stmt 0               @ ../Core/Src/processing.c:468:8
	cmp	r0, #105
	bne	.LBB2_177
	b	.LBB2_176
.LBB2_176:
.Ltmp198:
	.loc	1 470 19 is_stmt 1              @ ../Core/Src/processing.c:470:19
	ldr	r0, [sp, #356]
	add.w	r1, sp, #306
	.loc	1 470 6 is_stmt 0               @ ../Core/Src/processing.c:470:6
	str	r1, [sp, #100]                  @ 4-byte Spill
	bl	RemoveLetter
	ldr	r0, [sp, #100]                  @ 4-byte Reload
	.loc	1 471 35 is_stmt 1              @ ../Core/Src/processing.c:471:35
	bl	atoi
	.loc	1 471 33 is_stmt 0              @ ../Core/Src/processing.c:471:33
	movw	r1, :lower16:comVariableBlock
	movt	r1, :upper16:comVariableBlock
	strh	r0, [r1, #28]
	.loc	1 472 5 is_stmt 1               @ ../Core/Src/processing.c:472:5
	b	.LBB2_177
.Ltmp199:
.LBB2_177:
	.loc	1 474 13                        @ ../Core/Src/processing.c:474:13
	b	.LBB2_187
.Ltmp200:
.LBB2_178:
	.loc	1 475 8                         @ ../Core/Src/processing.c:475:8
	ldr	r0, [sp, #356]
	ldrb	r0, [r0, #4]
.Ltmp201:
	.loc	1 475 8 is_stmt 0               @ ../Core/Src/processing.c:475:8
	cmp	r0, #68
	bne	.LBB2_180
	b	.LBB2_179
.LBB2_179:
.Ltmp202:
	.loc	1 477 30 is_stmt 1              @ ../Core/Src/processing.c:477:30
	ldr	r0, [sp, #356]
	add.w	r1, sp, #306
	.loc	1 477 17 is_stmt 0              @ ../Core/Src/processing.c:477:17
	str	r1, [sp, #96]                   @ 4-byte Spill
	bl	RemoveLetter
	ldr	r0, [sp, #96]                   @ 4-byte Reload
	.loc	1 478 42 is_stmt 1              @ ../Core/Src/processing.c:478:42
	bl	atoi
	.loc	1 478 40 is_stmt 0              @ ../Core/Src/processing.c:478:40
	movw	r1, :lower16:comVariableBlock
	movt	r1, :upper16:comVariableBlock
	strh	r0, [r1, #24]
	.loc	1 479 13 is_stmt 1              @ ../Core/Src/processing.c:479:13
	b	.LBB2_186
.Ltmp203:
.LBB2_180:
	.loc	1 480 7                         @ ../Core/Src/processing.c:480:7
	ldr	r0, [sp, #356]
	ldrb	r0, [r0, #4]
.Ltmp204:
	.loc	1 480 7 is_stmt 0               @ ../Core/Src/processing.c:480:7
	cmp	r0, #72
	bne	.LBB2_182
	b	.LBB2_181
.LBB2_181:
.Ltmp205:
	.loc	1 482 30 is_stmt 1              @ ../Core/Src/processing.c:482:30
	ldr	r0, [sp, #356]
	add.w	r1, sp, #306
	.loc	1 482 17 is_stmt 0              @ ../Core/Src/processing.c:482:17
	str	r1, [sp, #92]                   @ 4-byte Spill
	bl	RemoveLetter
	ldr	r0, [sp, #92]                   @ 4-byte Reload
	.loc	1 483 45 is_stmt 1              @ ../Core/Src/processing.c:483:45
	bl	atoi
	.loc	1 483 43 is_stmt 0              @ ../Core/Src/processing.c:483:43
	movw	r1, :lower16:comVariableBlock
	movt	r1, :upper16:comVariableBlock
	strh	r0, [r1, #26]
	.loc	1 484 13 is_stmt 1              @ ../Core/Src/processing.c:484:13
	b	.LBB2_185
.Ltmp206:
.LBB2_182:
	.loc	1 485 8                         @ ../Core/Src/processing.c:485:8
	ldr	r0, [sp, #356]
	ldrb	r0, [r0, #4]
.Ltmp207:
	.loc	1 485 8 is_stmt 0               @ ../Core/Src/processing.c:485:8
	cmp	r0, #83
	bne	.LBB2_184
	b	.LBB2_183
.LBB2_183:
.Ltmp208:
	.loc	1 487 30 is_stmt 1              @ ../Core/Src/processing.c:487:30
	ldr	r0, [sp, #356]
	add.w	r1, sp, #306
	.loc	1 487 17 is_stmt 0              @ ../Core/Src/processing.c:487:17
	str	r1, [sp, #88]                   @ 4-byte Spill
	bl	RemoveLetter
	ldr	r0, [sp, #88]                   @ 4-byte Reload
	.loc	1 488 47 is_stmt 1              @ ../Core/Src/processing.c:488:47
	bl	atoi
	.loc	1 488 45 is_stmt 0              @ ../Core/Src/processing.c:488:45
	movw	r1, :lower16:comVariableBlock
	movt	r1, :upper16:comVariableBlock
	strh	r0, [r1, #30]
	.loc	1 489 13 is_stmt 1              @ ../Core/Src/processing.c:489:13
	b	.LBB2_184
.Ltmp209:
.LBB2_184:
	.loc	1 0 13 is_stmt 0                @ ../Core/Src/processing.c:0:13
	b	.LBB2_185
.LBB2_185:
	b	.LBB2_186
.LBB2_186:
	b	.LBB2_187
.LBB2_187:
	b	.LBB2_188
.LBB2_188:
	.loc	1 490 4 is_stmt 1               @ ../Core/Src/processing.c:490:4
	b	.LBB2_277
.LBB2_189:
.Ltmp210:
	.loc	1 494 7                         @ ../Core/Src/processing.c:494:7
	ldr	r0, [sp, #356]
	ldrb	r0, [r0, #2]
.Ltmp211:
	.loc	1 494 7 is_stmt 0               @ ../Core/Src/processing.c:494:7
	cmp	r0, #49
	bne	.LBB2_195
	b	.LBB2_190
.LBB2_190:
	.loc	1 0 7                           @ ../Core/Src/processing.c:0:7
	movs	r0, #4
.Ltmp212:
	.loc	1 496 14 is_stmt 1              @ ../Core/Src/processing.c:496:14
	strb.w	r0, [sp, #304]
	movs	r0, #0
	.loc	1 496 18 is_stmt 0              @ ../Core/Src/processing.c:496:18
	strb.w	r0, [sp, #303]
	.loc	1 496 9                         @ ../Core/Src/processing.c:496:9
	b	.LBB2_191
.LBB2_191:                              @ =>This Inner Loop Header: Depth=1
.Ltmp213:
	.loc	1 496 22                        @ ../Core/Src/processing.c:496:22
	ldrb.w	r0, [sp, #304]
.Ltmp214:
	.loc	1 496 5                         @ ../Core/Src/processing.c:496:5
	cmp	r0, #29
	bgt	.LBB2_194
	b	.LBB2_192
.LBB2_192:                              @   in Loop: Header=BB2_191 Depth=1
.Ltmp215:
	.loc	1 498 49 is_stmt 1              @ ../Core/Src/processing.c:498:49
	ldr	r0, [sp, #356]
	.loc	1 498 53 is_stmt 0              @ ../Core/Src/processing.c:498:53
	ldrb.w	r1, [sp, #304]
	.loc	1 498 49                        @ ../Core/Src/processing.c:498:49
	ldrb	r0, [r0, r1]
	.loc	1 498 45                        @ ../Core/Src/processing.c:498:45
	ldrb.w	r2, [sp, #303]
	adds	r1, r2, #1
	strb.w	r1, [sp, #303]
	.loc	1 498 6                         @ ../Core/Src/processing.c:498:6
	movw	r1, :lower16:comVariableBlock
	movt	r1, :upper16:comVariableBlock
	add	r1, r2
	.loc	1 498 48                        @ ../Core/Src/processing.c:498:48
	strb.w	r0, [r1, #35]
	.loc	1 499 5 is_stmt 1               @ ../Core/Src/processing.c:499:5
	b	.LBB2_193
.Ltmp216:
.LBB2_193:                              @   in Loop: Header=BB2_191 Depth=1
	.loc	1 496 28                        @ ../Core/Src/processing.c:496:28
	ldrb.w	r0, [sp, #304]
	adds	r0, #1
	strb.w	r0, [sp, #304]
	.loc	1 496 5 is_stmt 0               @ ../Core/Src/processing.c:496:5
	b	.LBB2_191
.Ltmp217:
.LBB2_194:
	.loc	1 500 4 is_stmt 1               @ ../Core/Src/processing.c:500:4
	b	.LBB2_216
.Ltmp218:
.LBB2_195:
	.loc	1 500 13 is_stmt 0              @ ../Core/Src/processing.c:500:13
	ldr	r0, [sp, #356]
	ldrb	r0, [r0, #2]
.Ltmp219:
	.loc	1 500 13                        @ ../Core/Src/processing.c:500:13
	cmp	r0, #50
	bne	.LBB2_201
	b	.LBB2_196
.LBB2_196:
	.loc	1 0 13                          @ ../Core/Src/processing.c:0:13
	movs	r0, #4
.Ltmp220:
	.loc	1 502 14 is_stmt 1              @ ../Core/Src/processing.c:502:14
	strb.w	r0, [sp, #302]
	movs	r0, #0
	.loc	1 502 18 is_stmt 0              @ ../Core/Src/processing.c:502:18
	strb.w	r0, [sp, #301]
	.loc	1 502 9                         @ ../Core/Src/processing.c:502:9
	b	.LBB2_197
.LBB2_197:                              @ =>This Inner Loop Header: Depth=1
.Ltmp221:
	.loc	1 502 22                        @ ../Core/Src/processing.c:502:22
	ldrb.w	r0, [sp, #302]
.Ltmp222:
	.loc	1 502 5                         @ ../Core/Src/processing.c:502:5
	cmp	r0, #29
	bgt	.LBB2_200
	b	.LBB2_198
.LBB2_198:                              @   in Loop: Header=BB2_197 Depth=1
.Ltmp223:
	.loc	1 504 49 is_stmt 1              @ ../Core/Src/processing.c:504:49
	ldr	r0, [sp, #356]
	.loc	1 504 53 is_stmt 0              @ ../Core/Src/processing.c:504:53
	ldrb.w	r1, [sp, #302]
	.loc	1 504 49                        @ ../Core/Src/processing.c:504:49
	ldrb	r0, [r0, r1]
	.loc	1 504 45                        @ ../Core/Src/processing.c:504:45
	ldrb.w	r2, [sp, #301]
	adds	r1, r2, #1
	strb.w	r1, [sp, #301]
	.loc	1 504 6                         @ ../Core/Src/processing.c:504:6
	movw	r1, :lower16:comVariableBlock
	movt	r1, :upper16:comVariableBlock
	add	r1, r2
	.loc	1 504 48                        @ ../Core/Src/processing.c:504:48
	strb.w	r0, [r1, #85]
	.loc	1 505 5 is_stmt 1               @ ../Core/Src/processing.c:505:5
	b	.LBB2_199
.Ltmp224:
.LBB2_199:                              @   in Loop: Header=BB2_197 Depth=1
	.loc	1 502 28                        @ ../Core/Src/processing.c:502:28
	ldrb.w	r0, [sp, #302]
	adds	r0, #1
	strb.w	r0, [sp, #302]
	.loc	1 502 5 is_stmt 0               @ ../Core/Src/processing.c:502:5
	b	.LBB2_197
.Ltmp225:
.LBB2_200:
	.loc	1 506 4 is_stmt 1               @ ../Core/Src/processing.c:506:4
	b	.LBB2_215
.Ltmp226:
.LBB2_201:
	.loc	1 506 13 is_stmt 0              @ ../Core/Src/processing.c:506:13
	ldr	r0, [sp, #356]
	ldrb	r0, [r0, #2]
.Ltmp227:
	.loc	1 506 13                        @ ../Core/Src/processing.c:506:13
	cmp	r0, #51
	bne	.LBB2_207
	b	.LBB2_202
.LBB2_202:
	.loc	1 0 13                          @ ../Core/Src/processing.c:0:13
	movs	r0, #4
.Ltmp228:
	.loc	1 508 14 is_stmt 1              @ ../Core/Src/processing.c:508:14
	strb.w	r0, [sp, #300]
	movs	r0, #0
	.loc	1 508 18 is_stmt 0              @ ../Core/Src/processing.c:508:18
	strb.w	r0, [sp, #299]
	.loc	1 508 9                         @ ../Core/Src/processing.c:508:9
	b	.LBB2_203
.LBB2_203:                              @ =>This Inner Loop Header: Depth=1
.Ltmp229:
	.loc	1 508 22                        @ ../Core/Src/processing.c:508:22
	ldrb.w	r0, [sp, #300]
.Ltmp230:
	.loc	1 508 5                         @ ../Core/Src/processing.c:508:5
	cmp	r0, #29
	bgt	.LBB2_206
	b	.LBB2_204
.LBB2_204:                              @   in Loop: Header=BB2_203 Depth=1
.Ltmp231:
	.loc	1 510 49 is_stmt 1              @ ../Core/Src/processing.c:510:49
	ldr	r0, [sp, #356]
	.loc	1 510 53 is_stmt 0              @ ../Core/Src/processing.c:510:53
	ldrb.w	r1, [sp, #300]
	.loc	1 510 49                        @ ../Core/Src/processing.c:510:49
	ldrb	r0, [r0, r1]
	.loc	1 510 45                        @ ../Core/Src/processing.c:510:45
	ldrb.w	r2, [sp, #299]
	adds	r1, r2, #1
	strb.w	r1, [sp, #299]
	.loc	1 510 6                         @ ../Core/Src/processing.c:510:6
	movw	r1, :lower16:comVariableBlock
	movt	r1, :upper16:comVariableBlock
	add	r1, r2
	.loc	1 510 48                        @ ../Core/Src/processing.c:510:48
	strb.w	r0, [r1, #135]
	.loc	1 511 5 is_stmt 1               @ ../Core/Src/processing.c:511:5
	b	.LBB2_205
.Ltmp232:
.LBB2_205:                              @   in Loop: Header=BB2_203 Depth=1
	.loc	1 508 28                        @ ../Core/Src/processing.c:508:28
	ldrb.w	r0, [sp, #300]
	adds	r0, #1
	strb.w	r0, [sp, #300]
	.loc	1 508 5 is_stmt 0               @ ../Core/Src/processing.c:508:5
	b	.LBB2_203
.Ltmp233:
.LBB2_206:
	.loc	1 512 4 is_stmt 1               @ ../Core/Src/processing.c:512:4
	b	.LBB2_214
.Ltmp234:
.LBB2_207:
	.loc	1 512 13 is_stmt 0              @ ../Core/Src/processing.c:512:13
	ldr	r0, [sp, #356]
	ldrb	r0, [r0, #2]
.Ltmp235:
	.loc	1 512 13                        @ ../Core/Src/processing.c:512:13
	cmp	r0, #52
	bne	.LBB2_213
	b	.LBB2_208
.LBB2_208:
	.loc	1 0 13                          @ ../Core/Src/processing.c:0:13
	movs	r0, #4
.Ltmp236:
	.loc	1 514 14 is_stmt 1              @ ../Core/Src/processing.c:514:14
	strb.w	r0, [sp, #298]
	movs	r0, #0
	.loc	1 514 18 is_stmt 0              @ ../Core/Src/processing.c:514:18
	strb.w	r0, [sp, #297]
	.loc	1 514 9                         @ ../Core/Src/processing.c:514:9
	b	.LBB2_209
.LBB2_209:                              @ =>This Inner Loop Header: Depth=1
.Ltmp237:
	.loc	1 514 22                        @ ../Core/Src/processing.c:514:22
	ldrb.w	r0, [sp, #298]
.Ltmp238:
	.loc	1 514 5                         @ ../Core/Src/processing.c:514:5
	cmp	r0, #29
	bgt	.LBB2_212
	b	.LBB2_210
.LBB2_210:                              @   in Loop: Header=BB2_209 Depth=1
.Ltmp239:
	.loc	1 516 49 is_stmt 1              @ ../Core/Src/processing.c:516:49
	ldr	r0, [sp, #356]
	.loc	1 516 53 is_stmt 0              @ ../Core/Src/processing.c:516:53
	ldrb.w	r1, [sp, #298]
	.loc	1 516 49                        @ ../Core/Src/processing.c:516:49
	ldrb	r0, [r0, r1]
	.loc	1 516 45                        @ ../Core/Src/processing.c:516:45
	ldrb.w	r2, [sp, #297]
	adds	r1, r2, #1
	strb.w	r1, [sp, #297]
	.loc	1 516 6                         @ ../Core/Src/processing.c:516:6
	movw	r1, :lower16:comVariableBlock
	movt	r1, :upper16:comVariableBlock
	add	r1, r2
	.loc	1 516 48                        @ ../Core/Src/processing.c:516:48
	strb.w	r0, [r1, #185]
	.loc	1 517 5 is_stmt 1               @ ../Core/Src/processing.c:517:5
	b	.LBB2_211
.Ltmp240:
.LBB2_211:                              @   in Loop: Header=BB2_209 Depth=1
	.loc	1 514 28                        @ ../Core/Src/processing.c:514:28
	ldrb.w	r0, [sp, #298]
	adds	r0, #1
	strb.w	r0, [sp, #298]
	.loc	1 514 5 is_stmt 0               @ ../Core/Src/processing.c:514:5
	b	.LBB2_209
.Ltmp241:
.LBB2_212:
	.loc	1 518 4 is_stmt 1               @ ../Core/Src/processing.c:518:4
	b	.LBB2_213
.Ltmp242:
.LBB2_213:
	.loc	1 0 4 is_stmt 0                 @ ../Core/Src/processing.c:0:4
	b	.LBB2_214
.LBB2_214:
	b	.LBB2_215
.LBB2_215:
	b	.LBB2_216
.LBB2_216:
	.loc	1 520 4 is_stmt 1               @ ../Core/Src/processing.c:520:4
	b	.LBB2_277
.LBB2_217:
.Ltmp243:
	.loc	1 525 33                        @ ../Core/Src/processing.c:525:33
	movw	r1, :lower16:comVariableBlock
	movt	r1, :upper16:comVariableBlock
	movs	r0, #1
	strb	r0, [r1, #6]
.Ltmp244:
	.loc	1 526 16                        @ ../Core/Src/processing.c:526:16
	ldr	r0, [sp, #356]
	ldrb	r0, [r0, #2]
.Ltmp245:
	.loc	1 526 16 is_stmt 0              @ ../Core/Src/processing.c:526:16
	cmp	r0, #97
	bne	.LBB2_219
	b	.LBB2_218
.LBB2_218:
.Ltmp246:
	.loc	1 528 30 is_stmt 1              @ ../Core/Src/processing.c:528:30
	ldr	r0, [sp, #356]
	add.w	r1, sp, #306
	.loc	1 528 17 is_stmt 0              @ ../Core/Src/processing.c:528:17
	str	r1, [sp, #84]                   @ 4-byte Spill
	bl	RemoveLetter
	ldr	r0, [sp, #84]                   @ 4-byte Reload
	movs	r1, #0
	.loc	1 529 56 is_stmt 1              @ ../Core/Src/processing.c:529:56
	bl	__hardfp_strtod
	vmov	r0, r1, d0
	bl	__aeabi_d2iz
	.loc	1 529 54 is_stmt 0              @ ../Core/Src/processing.c:529:54
	movw	r1, :lower16:USART_Data
	movt	r1, :upper16:USART_Data
	strh.w	r0, [r1, #262]
	.loc	1 530 13 is_stmt 1              @ ../Core/Src/processing.c:530:13
	b	.LBB2_276
.Ltmp247:
.LBB2_219:
	.loc	1 530 26 is_stmt 0              @ ../Core/Src/processing.c:530:26
	ldr	r0, [sp, #356]
	ldrb	r0, [r0, #2]
.Ltmp248:
	.loc	1 530 26                        @ ../Core/Src/processing.c:530:26
	cmp	r0, #98
	bne	.LBB2_221
	b	.LBB2_220
.LBB2_220:
.Ltmp249:
	.loc	1 532 30 is_stmt 1              @ ../Core/Src/processing.c:532:30
	ldr	r0, [sp, #356]
	add.w	r1, sp, #306
	.loc	1 532 17 is_stmt 0              @ ../Core/Src/processing.c:532:17
	str	r1, [sp, #80]                   @ 4-byte Spill
	bl	RemoveLetter
	ldr	r0, [sp, #80]                   @ 4-byte Reload
	movs	r1, #0
	.loc	1 533 56 is_stmt 1              @ ../Core/Src/processing.c:533:56
	bl	__hardfp_strtod
	vmov	r0, r1, d0
	bl	__aeabi_d2iz
	.loc	1 533 54 is_stmt 0              @ ../Core/Src/processing.c:533:54
	movw	r1, :lower16:USART_Data
	movt	r1, :upper16:USART_Data
	strh.w	r0, [r1, #264]
	.loc	1 534 13 is_stmt 1              @ ../Core/Src/processing.c:534:13
	b	.LBB2_275
.Ltmp250:
.LBB2_221:
	.loc	1 534 33 is_stmt 0              @ ../Core/Src/processing.c:534:33
	ldr	r0, [sp, #356]
	ldrb	r0, [r0, #2]
.Ltmp251:
	.loc	1 534 33                        @ ../Core/Src/processing.c:534:33
	cmp	r0, #99
	bne	.LBB2_223
	b	.LBB2_222
.LBB2_222:
.Ltmp252:
	.loc	1 536 30 is_stmt 1              @ ../Core/Src/processing.c:536:30
	ldr	r0, [sp, #356]
	add.w	r1, sp, #306
	.loc	1 536 17 is_stmt 0              @ ../Core/Src/processing.c:536:17
	str	r1, [sp, #76]                   @ 4-byte Spill
	bl	RemoveLetter
	ldr	r0, [sp, #76]                   @ 4-byte Reload
	movs	r1, #0
	.loc	1 537 56 is_stmt 1              @ ../Core/Src/processing.c:537:56
	bl	__hardfp_strtod
	vmov	r0, r1, d0
	bl	__aeabi_d2iz
	.loc	1 537 54 is_stmt 0              @ ../Core/Src/processing.c:537:54
	movw	r1, :lower16:USART_Data
	movt	r1, :upper16:USART_Data
	strh.w	r0, [r1, #266]
	.loc	1 538 13 is_stmt 1              @ ../Core/Src/processing.c:538:13
	b	.LBB2_274
.Ltmp253:
.LBB2_223:
	.loc	1 538 33 is_stmt 0              @ ../Core/Src/processing.c:538:33
	ldr	r0, [sp, #356]
	ldrb	r0, [r0, #2]
.Ltmp254:
	.loc	1 538 33                        @ ../Core/Src/processing.c:538:33
	cmp	r0, #100
	bne	.LBB2_225
	b	.LBB2_224
.LBB2_224:
.Ltmp255:
	.loc	1 540 30 is_stmt 1              @ ../Core/Src/processing.c:540:30
	ldr	r0, [sp, #356]
	add.w	r1, sp, #306
	.loc	1 540 17 is_stmt 0              @ ../Core/Src/processing.c:540:17
	str	r1, [sp, #72]                   @ 4-byte Spill
	bl	RemoveLetter
	ldr	r0, [sp, #72]                   @ 4-byte Reload
	movs	r1, #0
	.loc	1 541 56 is_stmt 1              @ ../Core/Src/processing.c:541:56
	bl	__hardfp_strtod
	vmov	r0, r1, d0
	bl	__aeabi_d2iz
	.loc	1 541 54 is_stmt 0              @ ../Core/Src/processing.c:541:54
	movw	r1, :lower16:USART_Data
	movt	r1, :upper16:USART_Data
	strh.w	r0, [r1, #268]
	.loc	1 542 13 is_stmt 1              @ ../Core/Src/processing.c:542:13
	b	.LBB2_273
.Ltmp256:
.LBB2_225:
	.loc	1 542 33 is_stmt 0              @ ../Core/Src/processing.c:542:33
	ldr	r0, [sp, #356]
	ldrb	r0, [r0, #2]
.Ltmp257:
	.loc	1 542 33                        @ ../Core/Src/processing.c:542:33
	cmp	r0, #101
	bne	.LBB2_227
	b	.LBB2_226
.LBB2_226:
.Ltmp258:
	.loc	1 544 30 is_stmt 1              @ ../Core/Src/processing.c:544:30
	ldr	r0, [sp, #356]
	add.w	r1, sp, #306
	.loc	1 544 17 is_stmt 0              @ ../Core/Src/processing.c:544:17
	str	r1, [sp, #68]                   @ 4-byte Spill
	bl	RemoveLetter
	ldr	r0, [sp, #68]                   @ 4-byte Reload
	movs	r1, #0
	.loc	1 545 56 is_stmt 1              @ ../Core/Src/processing.c:545:56
	bl	__hardfp_strtod
	vmov	r0, r1, d0
	bl	__aeabi_d2iz
	.loc	1 545 54 is_stmt 0              @ ../Core/Src/processing.c:545:54
	movw	r1, :lower16:USART_Data
	movt	r1, :upper16:USART_Data
	strh.w	r0, [r1, #270]
	.loc	1 546 13 is_stmt 1              @ ../Core/Src/processing.c:546:13
	b	.LBB2_272
.Ltmp259:
.LBB2_227:
	.loc	1 546 33 is_stmt 0              @ ../Core/Src/processing.c:546:33
	ldr	r0, [sp, #356]
	ldrb	r0, [r0, #2]
.Ltmp260:
	.loc	1 546 33                        @ ../Core/Src/processing.c:546:33
	cmp	r0, #102
	bne	.LBB2_229
	b	.LBB2_228
.LBB2_228:
.Ltmp261:
	.loc	1 548 30 is_stmt 1              @ ../Core/Src/processing.c:548:30
	ldr	r0, [sp, #356]
	add.w	r1, sp, #306
	.loc	1 548 17 is_stmt 0              @ ../Core/Src/processing.c:548:17
	str	r1, [sp, #64]                   @ 4-byte Spill
	bl	RemoveLetter
	ldr	r0, [sp, #64]                   @ 4-byte Reload
	movs	r1, #0
	.loc	1 549 56 is_stmt 1              @ ../Core/Src/processing.c:549:56
	bl	__hardfp_strtod
	vmov	r0, r1, d0
	bl	__aeabi_d2iz
	.loc	1 549 54 is_stmt 0              @ ../Core/Src/processing.c:549:54
	movw	r1, :lower16:USART_Data
	movt	r1, :upper16:USART_Data
	strh.w	r0, [r1, #240]
	.loc	1 550 13 is_stmt 1              @ ../Core/Src/processing.c:550:13
	b	.LBB2_271
.Ltmp262:
.LBB2_229:
	.loc	1 550 33 is_stmt 0              @ ../Core/Src/processing.c:550:33
	ldr	r0, [sp, #356]
	ldrb	r0, [r0, #2]
.Ltmp263:
	.loc	1 550 33                        @ ../Core/Src/processing.c:550:33
	cmp	r0, #103
	bne	.LBB2_231
	b	.LBB2_230
.LBB2_230:
.Ltmp264:
	.loc	1 552 30 is_stmt 1              @ ../Core/Src/processing.c:552:30
	ldr	r0, [sp, #356]
	add.w	r1, sp, #306
	.loc	1 552 17 is_stmt 0              @ ../Core/Src/processing.c:552:17
	str	r1, [sp, #60]                   @ 4-byte Spill
	bl	RemoveLetter
	ldr	r0, [sp, #60]                   @ 4-byte Reload
	movs	r1, #0
	.loc	1 553 56 is_stmt 1              @ ../Core/Src/processing.c:553:56
	bl	__hardfp_strtod
	vmov	r0, r1, d0
	bl	__aeabi_d2iz
	.loc	1 553 54 is_stmt 0              @ ../Core/Src/processing.c:553:54
	movw	r1, :lower16:USART_Data
	movt	r1, :upper16:USART_Data
	strh.w	r0, [r1, #242]
	.loc	1 554 13 is_stmt 1              @ ../Core/Src/processing.c:554:13
	b	.LBB2_270
.Ltmp265:
.LBB2_231:
	.loc	1 554 33 is_stmt 0              @ ../Core/Src/processing.c:554:33
	ldr	r0, [sp, #356]
	ldrb	r0, [r0, #2]
.Ltmp266:
	.loc	1 554 33                        @ ../Core/Src/processing.c:554:33
	cmp	r0, #104
	bne	.LBB2_233
	b	.LBB2_232
.LBB2_232:
.Ltmp267:
	.loc	1 556 30 is_stmt 1              @ ../Core/Src/processing.c:556:30
	ldr	r0, [sp, #356]
	add.w	r1, sp, #306
	.loc	1 556 17 is_stmt 0              @ ../Core/Src/processing.c:556:17
	str	r1, [sp, #56]                   @ 4-byte Spill
	bl	RemoveLetter
	ldr	r0, [sp, #56]                   @ 4-byte Reload
	movs	r1, #0
	.loc	1 557 56 is_stmt 1              @ ../Core/Src/processing.c:557:56
	bl	__hardfp_strtod
	vmov	r0, r1, d0
	bl	__aeabi_d2iz
	.loc	1 557 54 is_stmt 0              @ ../Core/Src/processing.c:557:54
	movw	r1, :lower16:USART_Data
	movt	r1, :upper16:USART_Data
	strh.w	r0, [r1, #244]
	.loc	1 558 13 is_stmt 1              @ ../Core/Src/processing.c:558:13
	b	.LBB2_269
.Ltmp268:
.LBB2_233:
	.loc	1 558 33 is_stmt 0              @ ../Core/Src/processing.c:558:33
	ldr	r0, [sp, #356]
	ldrb	r0, [r0, #2]
.Ltmp269:
	.loc	1 558 33                        @ ../Core/Src/processing.c:558:33
	cmp	r0, #105
	bne	.LBB2_235
	b	.LBB2_234
.LBB2_234:
.Ltmp270:
	.loc	1 560 30 is_stmt 1              @ ../Core/Src/processing.c:560:30
	ldr	r0, [sp, #356]
	add.w	r1, sp, #306
	.loc	1 560 17 is_stmt 0              @ ../Core/Src/processing.c:560:17
	str	r1, [sp, #52]                   @ 4-byte Spill
	bl	RemoveLetter
	ldr	r0, [sp, #52]                   @ 4-byte Reload
	movs	r1, #0
	.loc	1 561 56 is_stmt 1              @ ../Core/Src/processing.c:561:56
	bl	__hardfp_strtod
	vmov	r0, r1, d0
	bl	__aeabi_d2iz
	.loc	1 561 54 is_stmt 0              @ ../Core/Src/processing.c:561:54
	movw	r1, :lower16:USART_Data
	movt	r1, :upper16:USART_Data
	strh.w	r0, [r1, #246]
	.loc	1 562 13 is_stmt 1              @ ../Core/Src/processing.c:562:13
	b	.LBB2_268
.Ltmp271:
.LBB2_235:
	.loc	1 562 33 is_stmt 0              @ ../Core/Src/processing.c:562:33
	ldr	r0, [sp, #356]
	ldrb	r0, [r0, #2]
.Ltmp272:
	.loc	1 562 33                        @ ../Core/Src/processing.c:562:33
	cmp	r0, #122
	bne	.LBB2_237
	b	.LBB2_236
.LBB2_236:
.Ltmp273:
	.loc	1 564 30 is_stmt 1              @ ../Core/Src/processing.c:564:30
	ldr	r0, [sp, #356]
	add.w	r1, sp, #306
	.loc	1 564 17 is_stmt 0              @ ../Core/Src/processing.c:564:17
	str	r1, [sp, #48]                   @ 4-byte Spill
	bl	RemoveLetter
	ldr	r0, [sp, #48]                   @ 4-byte Reload
	movs	r1, #0
	.loc	1 565 56 is_stmt 1              @ ../Core/Src/processing.c:565:56
	bl	__hardfp_strtod
	vmov	r0, r1, d0
	bl	__aeabi_d2iz
	.loc	1 565 54 is_stmt 0              @ ../Core/Src/processing.c:565:54
	movw	r1, :lower16:USART_Data
	movt	r1, :upper16:USART_Data
	strh.w	r0, [r1, #248]
	.loc	1 566 13 is_stmt 1              @ ../Core/Src/processing.c:566:13
	b	.LBB2_267
.Ltmp274:
.LBB2_237:
	.loc	1 566 33 is_stmt 0              @ ../Core/Src/processing.c:566:33
	ldr	r0, [sp, #356]
	ldrb	r0, [r0, #2]
.Ltmp275:
	.loc	1 566 33                        @ ../Core/Src/processing.c:566:33
	cmp	r0, #107
	bne	.LBB2_239
	b	.LBB2_238
.LBB2_238:
.Ltmp276:
	.loc	1 568 30 is_stmt 1              @ ../Core/Src/processing.c:568:30
	ldr	r0, [sp, #356]
	add.w	r1, sp, #306
	.loc	1 568 17 is_stmt 0              @ ../Core/Src/processing.c:568:17
	str	r1, [sp, #44]                   @ 4-byte Spill
	bl	RemoveLetter
	ldr	r0, [sp, #44]                   @ 4-byte Reload
	movs	r1, #0
	.loc	1 569 56 is_stmt 1              @ ../Core/Src/processing.c:569:56
	bl	__hardfp_strtod
	vmov	r0, r1, d0
	bl	__aeabi_d2iz
	.loc	1 569 54 is_stmt 0              @ ../Core/Src/processing.c:569:54
	movw	r1, :lower16:USART_Data
	movt	r1, :upper16:USART_Data
	strh.w	r0, [r1, #272]
	.loc	1 570 13 is_stmt 1              @ ../Core/Src/processing.c:570:13
	b	.LBB2_266
.Ltmp277:
.LBB2_239:
	.loc	1 570 33 is_stmt 0              @ ../Core/Src/processing.c:570:33
	ldr	r0, [sp, #356]
	ldrb	r0, [r0, #2]
.Ltmp278:
	.loc	1 570 33                        @ ../Core/Src/processing.c:570:33
	cmp	r0, #108
	bne	.LBB2_241
	b	.LBB2_240
.LBB2_240:
.Ltmp279:
	.loc	1 572 30 is_stmt 1              @ ../Core/Src/processing.c:572:30
	ldr	r0, [sp, #356]
	add.w	r1, sp, #306
	.loc	1 572 17 is_stmt 0              @ ../Core/Src/processing.c:572:17
	str	r1, [sp, #40]                   @ 4-byte Spill
	bl	RemoveLetter
	ldr	r0, [sp, #40]                   @ 4-byte Reload
	movs	r1, #0
	.loc	1 573 56 is_stmt 1              @ ../Core/Src/processing.c:573:56
	bl	__hardfp_strtod
	vmov	r0, r1, d0
	bl	__aeabi_d2iz
	.loc	1 573 54 is_stmt 0              @ ../Core/Src/processing.c:573:54
	movw	r1, :lower16:USART_Data
	movt	r1, :upper16:USART_Data
	strh.w	r0, [r1, #274]
	.loc	1 574 13 is_stmt 1              @ ../Core/Src/processing.c:574:13
	b	.LBB2_265
.Ltmp280:
.LBB2_241:
	.loc	1 574 33 is_stmt 0              @ ../Core/Src/processing.c:574:33
	ldr	r0, [sp, #356]
	ldrb	r0, [r0, #2]
.Ltmp281:
	.loc	1 574 33                        @ ../Core/Src/processing.c:574:33
	cmp	r0, #109
	bne	.LBB2_243
	b	.LBB2_242
.LBB2_242:
.Ltmp282:
	.loc	1 576 30 is_stmt 1              @ ../Core/Src/processing.c:576:30
	ldr	r0, [sp, #356]
	add.w	r1, sp, #306
	.loc	1 576 17 is_stmt 0              @ ../Core/Src/processing.c:576:17
	str	r1, [sp, #36]                   @ 4-byte Spill
	bl	RemoveLetter
	ldr	r0, [sp, #36]                   @ 4-byte Reload
	movs	r1, #0
	.loc	1 577 56 is_stmt 1              @ ../Core/Src/processing.c:577:56
	bl	__hardfp_strtod
	vmov	r0, r1, d0
	bl	__aeabi_d2iz
	.loc	1 577 54 is_stmt 0              @ ../Core/Src/processing.c:577:54
	movw	r1, :lower16:USART_Data
	movt	r1, :upper16:USART_Data
	strh.w	r0, [r1, #276]
	.loc	1 578 13 is_stmt 1              @ ../Core/Src/processing.c:578:13
	b	.LBB2_264
.Ltmp283:
.LBB2_243:
	.loc	1 578 33 is_stmt 0              @ ../Core/Src/processing.c:578:33
	ldr	r0, [sp, #356]
	ldrb	r0, [r0, #2]
.Ltmp284:
	.loc	1 578 33                        @ ../Core/Src/processing.c:578:33
	cmp	r0, #110
	bne	.LBB2_245
	b	.LBB2_244
.LBB2_244:
.Ltmp285:
	.loc	1 580 30 is_stmt 1              @ ../Core/Src/processing.c:580:30
	ldr	r0, [sp, #356]
	add.w	r1, sp, #306
	.loc	1 580 17 is_stmt 0              @ ../Core/Src/processing.c:580:17
	str	r1, [sp, #32]                   @ 4-byte Spill
	bl	RemoveLetter
	ldr	r0, [sp, #32]                   @ 4-byte Reload
	movs	r1, #0
	.loc	1 581 56 is_stmt 1              @ ../Core/Src/processing.c:581:56
	bl	__hardfp_strtod
	vmov	r0, r1, d0
	bl	__aeabi_d2iz
	.loc	1 581 54 is_stmt 0              @ ../Core/Src/processing.c:581:54
	movw	r1, :lower16:USART_Data
	movt	r1, :upper16:USART_Data
	strh.w	r0, [r1, #278]
	.loc	1 582 13 is_stmt 1              @ ../Core/Src/processing.c:582:13
	b	.LBB2_263
.Ltmp286:
.LBB2_245:
	.loc	1 582 33 is_stmt 0              @ ../Core/Src/processing.c:582:33
	ldr	r0, [sp, #356]
	ldrb	r0, [r0, #2]
.Ltmp287:
	.loc	1 582 33                        @ ../Core/Src/processing.c:582:33
	cmp	r0, #111
	bne	.LBB2_247
	b	.LBB2_246
.LBB2_246:
.Ltmp288:
	.loc	1 584 30 is_stmt 1              @ ../Core/Src/processing.c:584:30
	ldr	r0, [sp, #356]
	add.w	r1, sp, #306
	.loc	1 584 17 is_stmt 0              @ ../Core/Src/processing.c:584:17
	str	r1, [sp, #28]                   @ 4-byte Spill
	bl	RemoveLetter
	ldr	r0, [sp, #28]                   @ 4-byte Reload
	movs	r1, #0
	.loc	1 585 57 is_stmt 1              @ ../Core/Src/processing.c:585:57
	bl	__hardfp_strtod
	vmov	r0, r1, d0
	bl	__aeabi_d2iz
	.loc	1 585 55 is_stmt 0              @ ../Core/Src/processing.c:585:55
	movw	r1, :lower16:USART_Data
	movt	r1, :upper16:USART_Data
	strh.w	r0, [r1, #280]
	.loc	1 586 13 is_stmt 1              @ ../Core/Src/processing.c:586:13
	b	.LBB2_262
.Ltmp289:
.LBB2_247:
	.loc	1 586 33 is_stmt 0              @ ../Core/Src/processing.c:586:33
	ldr	r0, [sp, #356]
	ldrb	r0, [r0, #2]
.Ltmp290:
	.loc	1 586 33                        @ ../Core/Src/processing.c:586:33
	cmp	r0, #112
	bne	.LBB2_249
	b	.LBB2_248
.LBB2_248:
.Ltmp291:
	.loc	1 588 30 is_stmt 1              @ ../Core/Src/processing.c:588:30
	ldr	r0, [sp, #356]
	add.w	r1, sp, #306
	.loc	1 588 17 is_stmt 0              @ ../Core/Src/processing.c:588:17
	str	r1, [sp, #24]                   @ 4-byte Spill
	bl	RemoveLetter
	ldr	r0, [sp, #24]                   @ 4-byte Reload
	movs	r1, #0
	.loc	1 589 56 is_stmt 1              @ ../Core/Src/processing.c:589:56
	bl	__hardfp_strtod
	vmov	r0, r1, d0
	bl	__aeabi_d2iz
	.loc	1 589 54 is_stmt 0              @ ../Core/Src/processing.c:589:54
	movw	r1, :lower16:USART_Data
	movt	r1, :upper16:USART_Data
	strh.w	r0, [r1, #250]
	.loc	1 590 13 is_stmt 1              @ ../Core/Src/processing.c:590:13
	b	.LBB2_261
.Ltmp292:
.LBB2_249:
	.loc	1 590 33 is_stmt 0              @ ../Core/Src/processing.c:590:33
	ldr	r0, [sp, #356]
	ldrb	r0, [r0, #2]
.Ltmp293:
	.loc	1 590 33                        @ ../Core/Src/processing.c:590:33
	cmp	r0, #113
	bne	.LBB2_251
	b	.LBB2_250
.LBB2_250:
.Ltmp294:
	.loc	1 592 30 is_stmt 1              @ ../Core/Src/processing.c:592:30
	ldr	r0, [sp, #356]
	add.w	r1, sp, #306
	.loc	1 592 17 is_stmt 0              @ ../Core/Src/processing.c:592:17
	str	r1, [sp, #20]                   @ 4-byte Spill
	bl	RemoveLetter
	ldr	r0, [sp, #20]                   @ 4-byte Reload
	movs	r1, #0
	.loc	1 593 56 is_stmt 1              @ ../Core/Src/processing.c:593:56
	bl	__hardfp_strtod
	vmov	r0, r1, d0
	bl	__aeabi_d2iz
	.loc	1 593 54 is_stmt 0              @ ../Core/Src/processing.c:593:54
	movw	r1, :lower16:USART_Data
	movt	r1, :upper16:USART_Data
	strh.w	r0, [r1, #252]
	.loc	1 594 13 is_stmt 1              @ ../Core/Src/processing.c:594:13
	b	.LBB2_260
.Ltmp295:
.LBB2_251:
	.loc	1 594 25 is_stmt 0              @ ../Core/Src/processing.c:594:25
	ldr	r0, [sp, #356]
	ldrb	r0, [r0, #2]
.Ltmp296:
	.loc	1 594 25                        @ ../Core/Src/processing.c:594:25
	cmp	r0, #114
	bne	.LBB2_253
	b	.LBB2_252
.LBB2_252:
.Ltmp297:
	.loc	1 596 30 is_stmt 1              @ ../Core/Src/processing.c:596:30
	ldr	r0, [sp, #356]
	add.w	r1, sp, #306
	.loc	1 596 17 is_stmt 0              @ ../Core/Src/processing.c:596:17
	str	r1, [sp, #16]                   @ 4-byte Spill
	bl	RemoveLetter
	ldr	r0, [sp, #16]                   @ 4-byte Reload
	movs	r1, #0
	.loc	1 597 56 is_stmt 1              @ ../Core/Src/processing.c:597:56
	bl	__hardfp_strtod
	vmov	r0, r1, d0
	bl	__aeabi_d2iz
	.loc	1 597 54 is_stmt 0              @ ../Core/Src/processing.c:597:54
	movw	r1, :lower16:USART_Data
	movt	r1, :upper16:USART_Data
	strh.w	r0, [r1, #254]
	.loc	1 598 13 is_stmt 1              @ ../Core/Src/processing.c:598:13
	b	.LBB2_259
.Ltmp298:
.LBB2_253:
	.loc	1 598 33 is_stmt 0              @ ../Core/Src/processing.c:598:33
	ldr	r0, [sp, #356]
	ldrb	r0, [r0, #2]
.Ltmp299:
	.loc	1 598 33                        @ ../Core/Src/processing.c:598:33
	cmp	r0, #115
	bne	.LBB2_255
	b	.LBB2_254
.LBB2_254:
.Ltmp300:
	.loc	1 600 30 is_stmt 1              @ ../Core/Src/processing.c:600:30
	ldr	r0, [sp, #356]
	add.w	r1, sp, #306
	.loc	1 600 17 is_stmt 0              @ ../Core/Src/processing.c:600:17
	str	r1, [sp, #12]                   @ 4-byte Spill
	bl	RemoveLetter
	ldr	r0, [sp, #12]                   @ 4-byte Reload
	movs	r1, #0
	.loc	1 601 56 is_stmt 1              @ ../Core/Src/processing.c:601:56
	bl	__hardfp_strtod
	vmov	r0, r1, d0
	bl	__aeabi_d2iz
	.loc	1 601 54 is_stmt 0              @ ../Core/Src/processing.c:601:54
	movw	r1, :lower16:USART_Data
	movt	r1, :upper16:USART_Data
	strh.w	r0, [r1, #256]
	.loc	1 602 13 is_stmt 1              @ ../Core/Src/processing.c:602:13
	b	.LBB2_258
.Ltmp301:
.LBB2_255:
	.loc	1 602 33 is_stmt 0              @ ../Core/Src/processing.c:602:33
	ldr	r0, [sp, #356]
	ldrb	r0, [r0, #2]
.Ltmp302:
	.loc	1 602 33                        @ ../Core/Src/processing.c:602:33
	cmp	r0, #116
	bne	.LBB2_257
	b	.LBB2_256
.LBB2_256:
.Ltmp303:
	.loc	1 604 30 is_stmt 1              @ ../Core/Src/processing.c:604:30
	ldr	r0, [sp, #356]
	add.w	r1, sp, #306
	.loc	1 604 17 is_stmt 0              @ ../Core/Src/processing.c:604:17
	str	r1, [sp, #8]                    @ 4-byte Spill
	bl	RemoveLetter
	ldr	r0, [sp, #8]                    @ 4-byte Reload
	movs	r1, #0
	.loc	1 605 57 is_stmt 1              @ ../Core/Src/processing.c:605:57
	bl	__hardfp_strtod
	vmov	r0, r1, d0
	bl	__aeabi_d2iz
	.loc	1 605 55 is_stmt 0              @ ../Core/Src/processing.c:605:55
	movw	r1, :lower16:USART_Data
	movt	r1, :upper16:USART_Data
	strh.w	r0, [r1, #258]
	.loc	1 606 13 is_stmt 1              @ ../Core/Src/processing.c:606:13
	b	.LBB2_257
.Ltmp304:
.LBB2_257:
	.loc	1 0 13 is_stmt 0                @ ../Core/Src/processing.c:0:13
	b	.LBB2_258
.LBB2_258:
	b	.LBB2_259
.LBB2_259:
	b	.LBB2_260
.LBB2_260:
	b	.LBB2_261
.LBB2_261:
	b	.LBB2_262
.LBB2_262:
	b	.LBB2_263
.LBB2_263:
	b	.LBB2_264
.LBB2_264:
	b	.LBB2_265
.LBB2_265:
	b	.LBB2_266
.LBB2_266:
	b	.LBB2_267
.LBB2_267:
	b	.LBB2_268
.LBB2_268:
	b	.LBB2_269
.LBB2_269:
	b	.LBB2_270
.LBB2_270:
	b	.LBB2_271
.LBB2_271:
	b	.LBB2_272
.LBB2_272:
	b	.LBB2_273
.LBB2_273:
	b	.LBB2_274
.LBB2_274:
	b	.LBB2_275
.LBB2_275:
	b	.LBB2_276
.LBB2_276:
	.loc	1 607 4 is_stmt 1               @ ../Core/Src/processing.c:607:4
	b	.LBB2_277
.Ltmp305:
.LBB2_277:
	.loc	1 609 1                         @ ../Core/Src/processing.c:609:1
	add	sp, #360
	pop	{r7, pc}
.Ltmp306:
.Lfunc_end2:
	.size	DataFilling, .Lfunc_end2-DataFilling
	.cfi_endproc
	.cantunwind
	.fnend
                                        @ -- End function
	.section	.text.StringSplitting,"ax",%progbits
	.hidden	StringSplitting                 @ -- Begin function StringSplitting
	.globl	StringSplitting
	.p2align	2
	.type	StringSplitting,%function
	.code	16                              @ @StringSplitting
	.thumb_func
StringSplitting:
.Lfunc_begin3:
	.loc	1 613 0                         @ ../Core/Src/processing.c:613:0
	.fnstart
	.cfi_startproc
@ %bb.0:
	.save	{r7, lr}
	push	{r7, lr}
	.cfi_def_cfa_offset 8
	.cfi_offset lr, -4
	.cfi_offset r7, -8
	.pad	#24
	sub	sp, #24
	.cfi_def_cfa_offset 32
	str	r0, [sp, #20]
	str	r1, [sp, #16]
	str	r2, [sp, #12]
	movs	r0, #0
.Ltmp307:
	.loc	1 614 22 prologue_end           @ ../Core/Src/processing.c:614:22
	str	r0, [sp, #8]
	.loc	1 614 29 is_stmt 0              @ ../Core/Src/processing.c:614:29
	str	r0, [sp, #4]
	.loc	1 614 36                        @ ../Core/Src/processing.c:614:36
	str	r0, [sp]
	.loc	1 614 9                         @ ../Core/Src/processing.c:614:9
	b	.LBB3_1
.LBB3_1:                                @ =>This Inner Loop Header: Depth=1
.Ltmp308:
	.loc	1 614 44                        @ ../Core/Src/processing.c:614:44
	ldr	r0, [sp, #20]
	.loc	1 614 48                        @ ../Core/Src/processing.c:614:48
	ldr	r1, [sp, #8]
	.loc	1 614 44                        @ ../Core/Src/processing.c:614:44
	ldrb	r0, [r0, r1]
.Ltmp309:
	.loc	1 614 5                         @ ../Core/Src/processing.c:614:5
	cbz	r0, .LBB3_9
	b	.LBB3_2
.LBB3_2:                                @   in Loop: Header=BB3_1 Depth=1
.Ltmp310:
	.loc	1 616 12 is_stmt 1              @ ../Core/Src/processing.c:616:12
	ldr	r0, [sp, #20]
	.loc	1 616 16 is_stmt 0              @ ../Core/Src/processing.c:616:16
	ldr	r1, [sp, #8]
	.loc	1 616 12                        @ ../Core/Src/processing.c:616:12
	ldrb	r0, [r0, r1]
	.loc	1 616 23                        @ ../Core/Src/processing.c:616:23
	ldr	r1, [sp, #12]
	.loc	1 616 22                        @ ../Core/Src/processing.c:616:22
	ldrb	r1, [r1]
.Ltmp311:
	.loc	1 616 12                        @ ../Core/Src/processing.c:616:12
	cmp	r0, r1
	beq	.LBB3_4
	b	.LBB3_3
.LBB3_3:                                @   in Loop: Header=BB3_1 Depth=1
.Ltmp312:
	.loc	1 618 32 is_stmt 1              @ ../Core/Src/processing.c:618:32
	ldr	r0, [sp, #20]
	.loc	1 618 36 is_stmt 0              @ ../Core/Src/processing.c:618:36
	ldr	r1, [sp, #8]
	.loc	1 618 32                        @ ../Core/Src/processing.c:618:32
	ldrb	r0, [r0, r1]
	.loc	1 618 13                        @ ../Core/Src/processing.c:618:13
	ldr	r3, [sp, #16]
	.loc	1 618 21                        @ ../Core/Src/processing.c:618:21
	ldr	r1, [sp, #4]
	movs	r2, #50
	.loc	1 618 13                        @ ../Core/Src/processing.c:618:13
	mla	r1, r1, r2, r3
	.loc	1 618 26                        @ ../Core/Src/processing.c:618:26
	ldr	r2, [sp]
	adds	r3, r2, #1
	str	r3, [sp]
	.loc	1 618 30                        @ ../Core/Src/processing.c:618:30
	strb	r0, [r1, r2]
	.loc	1 619 9 is_stmt 1               @ ../Core/Src/processing.c:619:9
	b	.LBB3_7
.Ltmp313:
.LBB3_4:                                @   in Loop: Header=BB3_1 Depth=1
	.loc	1 622 16                        @ ../Core/Src/processing.c:622:16
	ldr	r0, [sp, #20]
	.loc	1 622 20 is_stmt 0              @ ../Core/Src/processing.c:622:20
	ldr	r1, [sp, #8]
	.loc	1 622 16                        @ ../Core/Src/processing.c:622:16
	ldrb	r0, [r0, r1]
	.loc	1 622 27                        @ ../Core/Src/processing.c:622:27
	ldr	r1, [sp, #12]
	.loc	1 622 26                        @ ../Core/Src/processing.c:622:26
	ldrb	r1, [r1]
.Ltmp314:
	.loc	1 622 16                        @ ../Core/Src/processing.c:622:16
	cmp	r0, r1
	bne	.LBB3_6
	b	.LBB3_5
.LBB3_5:                                @   in Loop: Header=BB3_1 Depth=1
.Ltmp315:
	.loc	1 624 17 is_stmt 1              @ ../Core/Src/processing.c:624:17
	ldr	r2, [sp, #16]
	.loc	1 624 25 is_stmt 0              @ ../Core/Src/processing.c:624:25
	ldr	r0, [sp, #4]
	movs	r1, #50
	.loc	1 624 17                        @ ../Core/Src/processing.c:624:17
	mla	r2, r0, r1, r2
	.loc	1 624 28                        @ ../Core/Src/processing.c:624:28
	ldr	r3, [sp]
	movs	r0, #0
	.loc	1 624 32                        @ ../Core/Src/processing.c:624:32
	strb	r0, [r2, r3]
	.loc	1 625 29 is_stmt 1              @ ../Core/Src/processing.c:625:29
	ldr	r2, [sp, #16]
	.loc	1 625 37 is_stmt 0              @ ../Core/Src/processing.c:625:37
	ldr	r0, [sp, #4]
	.loc	1 625 29                        @ ../Core/Src/processing.c:625:29
	mla	r0, r0, r1, r2
	.loc	1 625 17                        @ ../Core/Src/processing.c:625:17
	bl	DataFilling
	.loc	1 626 18 is_stmt 1              @ ../Core/Src/processing.c:626:18
	ldr	r0, [sp, #4]
	adds	r0, #1
	str	r0, [sp, #4]
	.loc	1 627 13                        @ ../Core/Src/processing.c:627:13
	b	.LBB3_6
.Ltmp316:
.LBB3_6:                                @   in Loop: Header=BB3_1 Depth=1
	.loc	1 0 13 is_stmt 0                @ ../Core/Src/processing.c:0:13
	movs	r0, #0
	.loc	1 629 16 is_stmt 1              @ ../Core/Src/processing.c:629:16
	str	r0, [sp]
	b	.LBB3_7
.Ltmp317:
.LBB3_7:                                @   in Loop: Header=BB3_1 Depth=1
	.loc	1 631 5                         @ ../Core/Src/processing.c:631:5
	b	.LBB3_8
.Ltmp318:
.LBB3_8:                                @   in Loop: Header=BB3_1 Depth=1
	.loc	1 614 61                        @ ../Core/Src/processing.c:614:61
	ldr	r0, [sp, #8]
	adds	r0, #1
	str	r0, [sp, #8]
	.loc	1 614 5 is_stmt 0               @ ../Core/Src/processing.c:614:5
	b	.LBB3_1
.Ltmp319:
.LBB3_9:
	.loc	1 632 1 is_stmt 1               @ ../Core/Src/processing.c:632:1
	add	sp, #24
	pop	{r7, pc}
.Ltmp320:
.Lfunc_end3:
	.size	StringSplitting, .Lfunc_end3-StringSplitting
	.cfi_endproc
	.cantunwind
	.fnend
                                        @ -- End function
	.section	.text.SetAutoDetecMultimeter,"ax",%progbits
	.hidden	SetAutoDetecMultimeter          @ -- Begin function SetAutoDetecMultimeter
	.globl	SetAutoDetecMultimeter
	.p2align	2
	.type	SetAutoDetecMultimeter,%function
	.code	16                              @ @SetAutoDetecMultimeter
	.thumb_func
SetAutoDetecMultimeter:
.Lfunc_begin4:
	.loc	1 637 0                         @ ../Core/Src/processing.c:637:0
	.fnstart
	.cfi_startproc
@ %bb.0:
	.save	{r7, lr}
	push	{r7, lr}
	.cfi_def_cfa_offset 8
	.cfi_offset lr, -4
	.cfi_offset r7, -8
	.pad	#88
	sub	sp, #88
	.cfi_def_cfa_offset 96
                                        @ kill: def $r2 killed $r1
                                        @ kill: def $r2 killed $r0
	strb.w	r0, [sp, #83]
	strh.w	r1, [sp, #80]
.Ltmp321:
	.loc	1 640 19 prologue_end           @ ../Core/Src/processing.c:640:19
	movw	r1, :lower16:.L__const.SetAutoDetecMultimeter.SenfstrBu
	movt	r1, :upper16:.L__const.SetAutoDetecMultimeter.SenfstrBu
	add	r0, sp, #20
	str	r0, [sp, #8]                    @ 4-byte Spill
	movs	r2, #60
	bl	__aeabi_memcpy
                                        @ kill: def $r1 killed $r0
	ldr	r0, [sp, #8]                    @ 4-byte Reload
	movs	r1, #0
	.loc	1 641 19                        @ ../Core/Src/processing.c:641:19
	strb.w	r1, [sp, #19]
	.loc	1 643 37                        @ ../Core/Src/processing.c:643:37
	movw	r2, :lower16:SYS_tickTime
	movt	r2, :upper16:SYS_tickTime
	str	r1, [r2, #8]
	.loc	1 644 52                        @ ../Core/Src/processing.c:644:52
	movw	r2, :lower16:USART_Data
	movt	r2, :upper16:USART_Data
	movw	r3, #14988
	add	r2, r3
	strb.w	r1, [r2, #2015]
	.loc	1 645 51                        @ ../Core/Src/processing.c:645:51
	strb.w	r1, [r2, #2014]
	.loc	1 646 48                        @ ../Core/Src/processing.c:646:48
	strb.w	r1, [r2, #2016]
	.loc	1 648 58                        @ ../Core/Src/processing.c:648:58
	ldrb.w	r1, [sp, #83]
	.loc	1 648 48 is_stmt 0              @ ../Core/Src/processing.c:648:48
	add.w	r1, r1, r1, lsl #2
	add.w	r2, r0, r1, lsl #2
	.loc	1 648 78                        @ ../Core/Src/processing.c:648:78
	adds	r0, #40
	.loc	1 648 11                        @ ../Core/Src/processing.c:648:11
	mov	r1, sp
	movs	r3, #10
	str	r3, [r1, #4]
	str	r0, [r1]
	movw	r0, :lower16:SetAutoDetecMultimeter.Sendstr
	movt	r0, :upper16:SetAutoDetecMultimeter.Sendstr
	str	r0, [sp, #12]                   @ 4-byte Spill
	movw	r1, :lower16:.L.str.17
	movt	r1, :upper16:.L.str.17
	bl	sprintf
	ldr	r1, [sp, #12]                   @ 4-byte Reload
	.loc	1 648 9                         @ ../Core/Src/processing.c:648:9
	strb.w	r0, [sp, #19]
	.loc	1 649 60 is_stmt 1              @ ../Core/Src/processing.c:649:60
	ldrb.w	r2, [sp, #19]
	.loc	1 649 5 is_stmt 0               @ ../Core/Src/processing.c:649:5
	movw	r0, :lower16:huart6
	movt	r0, :upper16:huart6
	bl	HAL_UART_Transmit_IT
	.loc	1 651 5 is_stmt 1               @ ../Core/Src/processing.c:651:5
	b	.LBB4_1
.LBB4_1:                                @ =>This Inner Loop Header: Depth=1
.Ltmp322:
	.loc	1 653 25                        @ ../Core/Src/processing.c:653:25
	movw	r0, :lower16:SYS_tickTime
	movt	r0, :upper16:SYS_tickTime
	ldr	r0, [r0, #8]
	.loc	1 653 46 is_stmt 0              @ ../Core/Src/processing.c:653:46
	ldrh.w	r1, [sp, #80]
.Ltmp323:
	.loc	1 653 12                        @ ../Core/Src/processing.c:653:12
	cmp	r0, r1
	bls	.LBB4_3
	b	.LBB4_2
.LBB4_2:
.Ltmp324:
	.loc	1 655 23 is_stmt 1              @ ../Core/Src/processing.c:655:23
	movw	r0, :lower16:SetAutoDetecMultimeter.ReturnNum
	movt	r0, :upper16:SetAutoDetecMultimeter.ReturnNum
	movs	r1, #1
	strb	r1, [r0]
	.loc	1 656 13                        @ ../Core/Src/processing.c:656:13
	str	r0, [sp, #84]
	b	.LBB4_15
.Ltmp325:
.LBB4_3:                                @   in Loop: Header=BB4_1 Depth=1
	.loc	1 659 35                        @ ../Core/Src/processing.c:659:35
	movw	r0, :lower16:USART_Data
	movt	r0, :upper16:USART_Data
	movw	r1, #17002
	ldrb	r0, [r0, r1]
.Ltmp326:
	.loc	1 659 12 is_stmt 0              @ ../Core/Src/processing.c:659:12
	cmp	r0, #1
	bne	.LBB4_5
	b	.LBB4_4
.LBB4_4:
.Ltmp327:
	.loc	1 661 45 is_stmt 1              @ ../Core/Src/processing.c:661:45
	movw	r1, :lower16:SYS_tickTime
	movt	r1, :upper16:SYS_tickTime
	movs	r0, #0
	str	r0, [r1, #8]
	.loc	1 662 13                        @ ../Core/Src/processing.c:662:13
	b	.LBB4_6
.Ltmp328:
.LBB4_5:                                @   in Loop: Header=BB4_1 Depth=1
	.loc	1 651 5                         @ ../Core/Src/processing.c:651:5
	b	.LBB4_1
.LBB4_6:
	.loc	1 666 5                         @ ../Core/Src/processing.c:666:5
	b	.LBB4_7
.LBB4_7:                                @ =>This Inner Loop Header: Depth=1
.Ltmp329:
	.loc	1 668 25                        @ ../Core/Src/processing.c:668:25
	movw	r0, :lower16:SYS_tickTime
	movt	r0, :upper16:SYS_tickTime
	ldr	r0, [r0, #8]
	.loc	1 668 46 is_stmt 0              @ ../Core/Src/processing.c:668:46
	ldrh.w	r1, [sp, #80]
.Ltmp330:
	.loc	1 668 12                        @ ../Core/Src/processing.c:668:12
	cmp	r0, r1
	bls	.LBB4_9
	b	.LBB4_8
.LBB4_8:
.Ltmp331:
	.loc	1 670 23 is_stmt 1              @ ../Core/Src/processing.c:670:23
	movw	r0, :lower16:SetAutoDetecMultimeter.ReturnNum
	movt	r0, :upper16:SetAutoDetecMultimeter.ReturnNum
	movs	r1, #1
	strb	r1, [r0]
	.loc	1 671 13                        @ ../Core/Src/processing.c:671:13
	str	r0, [sp, #84]
	b	.LBB4_15
.Ltmp332:
.LBB4_9:                                @   in Loop: Header=BB4_7 Depth=1
	.loc	1 674 35                        @ ../Core/Src/processing.c:674:35
	movw	r0, :lower16:USART_Data
	movt	r0, :upper16:USART_Data
	movw	r1, #17003
	ldrb	r0, [r0, r1]
.Ltmp333:
	.loc	1 674 12 is_stmt 0              @ ../Core/Src/processing.c:674:12
	cmp	r0, #1
	bne	.LBB4_13
	b	.LBB4_10
.LBB4_10:                               @   in Loop: Header=BB4_7 Depth=1
.Ltmp334:
	.loc	1 676 16 is_stmt 1              @ ../Core/Src/processing.c:676:16
	ldrb.w	r0, [sp, #83]
	vmov	s0, r0
	vcvt.f32.s32	s0, s0
	.loc	1 676 31 is_stmt 0              @ ../Core/Src/processing.c:676:31
	movw	r0, :lower16:USART_Data
	movt	r0, :upper16:USART_Data
	add.w	r0, r0, #17408
	vldr	s2, [r0]
.Ltmp335:
	.loc	1 676 16                        @ ../Core/Src/processing.c:676:16
	vcmp.f32	s0, s2
	vmrs	APSR_nzcv, fpscr
	bne	.LBB4_12
	b	.LBB4_11
.LBB4_11:
.Ltmp336:
	.loc	1 678 49 is_stmt 1              @ ../Core/Src/processing.c:678:49
	movw	r1, :lower16:SYS_tickTime
	movt	r1, :upper16:SYS_tickTime
	movs	r0, #0
	str	r0, [r1, #8]
	.loc	1 679 17                        @ ../Core/Src/processing.c:679:17
	b	.LBB4_14
.Ltmp337:
.LBB4_12:                               @   in Loop: Header=BB4_7 Depth=1
	.loc	1 682 9                         @ ../Core/Src/processing.c:682:9
	b	.LBB4_13
.Ltmp338:
.LBB4_13:                               @   in Loop: Header=BB4_7 Depth=1
	.loc	1 666 5                         @ ../Core/Src/processing.c:666:5
	b	.LBB4_7
.LBB4_14:
	.loc	1 685 15                        @ ../Core/Src/processing.c:685:15
	movw	r0, :lower16:SetAutoDetecMultimeter.ReturnNum
	movt	r0, :upper16:SetAutoDetecMultimeter.ReturnNum
	movs	r1, #0
	strb	r1, [r0]
	.loc	1 686 5                         @ ../Core/Src/processing.c:686:5
	str	r0, [sp, #84]
	b	.LBB4_15
.LBB4_15:
	.loc	1 687 1                         @ ../Core/Src/processing.c:687:1
	ldr	r0, [sp, #84]
	add	sp, #88
	pop	{r7, pc}
.Ltmp339:
.Lfunc_end4:
	.size	SetAutoDetecMultimeter, .Lfunc_end4-SetAutoDetecMultimeter
	.cfi_endproc
	.cantunwind
	.fnend
                                        @ -- End function
	.section	.text.GetMultimeter,"ax",%progbits
	.hidden	GetMultimeter                   @ -- Begin function GetMultimeter
	.globl	GetMultimeter
	.p2align	2
	.type	GetMultimeter,%function
	.code	16                              @ @GetMultimeter
	.thumb_func
GetMultimeter:
.Lfunc_begin5:
	.loc	1 695 0                         @ ../Core/Src/processing.c:695:0
	.fnstart
	.cfi_startproc
@ %bb.0:
	.save	{r7, lr}
	push	{r7, lr}
	.cfi_def_cfa_offset 8
	.cfi_offset lr, -4
	.cfi_offset r7, -8
	.pad	#880
	sub.w	sp, sp, #880
	.cfi_def_cfa_offset 888
                                        @ kill: def $r2 killed $r1
                                        @ kill: def $r2 killed $r0
	strb.w	r0, [sp, #875]
	strh.w	r1, [sp, #872]
.Ltmp340:
	.loc	1 698 19 prologue_end           @ ../Core/Src/processing.c:698:19
	movw	r1, :lower16:.L__const.GetMultimeter.SenfstrBuf1
	movt	r1, :upper16:.L__const.GetMultimeter.SenfstrBuf1
	add	r0, sp, #672
	movs	r2, #200
	str	r2, [sp, #8]                    @ 4-byte Spill
	bl	__aeabi_memcpy
	ldr	r2, [sp, #8]                    @ 4-byte Reload
	.loc	1 699 19                        @ ../Core/Src/processing.c:699:19
	movw	r1, :lower16:.L__const.GetMultimeter.SenfstrBuf2
	movt	r1, :upper16:.L__const.GetMultimeter.SenfstrBuf2
	add	r0, sp, #472
	bl	__aeabi_memcpy
	ldr	r2, [sp, #8]                    @ 4-byte Reload
	.loc	1 700 19                        @ ../Core/Src/processing.c:700:19
	movw	r1, :lower16:.L__const.GetMultimeter.SenfstrBuf3
	movt	r1, :upper16:.L__const.GetMultimeter.SenfstrBuf3
	add	r0, sp, #272
	bl	__aeabi_memcpy
	ldr	r2, [sp, #8]                    @ 4-byte Reload
	.loc	1 701 19                        @ ../Core/Src/processing.c:701:19
	movw	r1, :lower16:.L__const.GetMultimeter.CompareStr
	movt	r1, :upper16:.L__const.GetMultimeter.CompareStr
	add	r0, sp, #72
	bl	__aeabi_memcpy
	add.w	r0, sp, #22
	movs	r1, #50
	.loc	1 702 19                        @ ../Core/Src/processing.c:702:19
	bl	__aeabi_memclr
	movs	r0, #0
	.loc	1 703 19                        @ ../Core/Src/processing.c:703:19
	strb.w	r0, [sp, #21]
.Ltmp341:
	.loc	1 708 8                         @ ../Core/Src/processing.c:708:8
	ldrb.w	r0, [sp, #875]
.Ltmp342:
	.loc	1 708 8 is_stmt 0               @ ../Core/Src/processing.c:708:8
	cbnz	r0, .LBB5_2
	b	.LBB5_1
.LBB5_1:
	.loc	1 0 8                           @ ../Core/Src/processing.c:0:8
	add	r0, sp, #472
.Ltmp343:
	.loc	1 710 18 is_stmt 1              @ ../Core/Src/processing.c:710:18
	str	r0, [sp, #16]
	movs	r0, #1
	.loc	1 711 14                        @ ../Core/Src/processing.c:711:14
	strb.w	r0, [sp, #21]
	.loc	1 712 5                         @ ../Core/Src/processing.c:712:5
	b	.LBB5_8
.Ltmp344:
.LBB5_2:
	.loc	1 713 13                        @ ../Core/Src/processing.c:713:13
	ldrb.w	r0, [sp, #875]
.Ltmp345:
	.loc	1 713 13 is_stmt 0              @ ../Core/Src/processing.c:713:13
	cmp	r0, #1
	bne	.LBB5_4
	b	.LBB5_3
.LBB5_3:
	.loc	1 0 13                          @ ../Core/Src/processing.c:0:13
	add	r0, sp, #672
.Ltmp346:
	.loc	1 715 18 is_stmt 1              @ ../Core/Src/processing.c:715:18
	str	r0, [sp, #16]
	movs	r0, #0
	.loc	1 716 14                        @ ../Core/Src/processing.c:716:14
	strb.w	r0, [sp, #21]
	.loc	1 717 5                         @ ../Core/Src/processing.c:717:5
	b	.LBB5_7
.Ltmp347:
.LBB5_4:
	.loc	1 718 13                        @ ../Core/Src/processing.c:718:13
	ldrb.w	r0, [sp, #875]
.Ltmp348:
	.loc	1 718 13 is_stmt 0              @ ../Core/Src/processing.c:718:13
	cmp	r0, #2
	bne	.LBB5_6
	b	.LBB5_5
.LBB5_5:
	.loc	1 0 13                          @ ../Core/Src/processing.c:0:13
	add	r0, sp, #272
.Ltmp349:
	.loc	1 720 18 is_stmt 1              @ ../Core/Src/processing.c:720:18
	str	r0, [sp, #16]
	movs	r0, #2
	.loc	1 721 14                        @ ../Core/Src/processing.c:721:14
	strb.w	r0, [sp, #21]
	.loc	1 722 5                         @ ../Core/Src/processing.c:722:5
	b	.LBB5_6
.Ltmp350:
.LBB5_6:
	.loc	1 0 5 is_stmt 0                 @ ../Core/Src/processing.c:0:5
	b	.LBB5_7
.LBB5_7:
	b	.LBB5_8
.LBB5_8:
	.loc	1 724 60 is_stmt 1              @ ../Core/Src/processing.c:724:60
	ldrb.w	r0, [sp, #21]
	add	r2, sp, #72
	movs	r1, #50
	.loc	1 724 49 is_stmt 0              @ ../Core/Src/processing.c:724:49
	smlabb	r2, r0, r1, r2
	.loc	1 724 5                         @ ../Core/Src/processing.c:724:5
	mov	r1, sp
	movs	r0, #10
	str	r0, [r1]
	movw	r1, :lower16:.L.str.18
	movt	r1, :upper16:.L.str.18
	add.w	r0, sp, #22
	movs	r3, #13
	bl	sprintf
	movs	r0, #0
.Ltmp351:
	.loc	1 726 14 is_stmt 1              @ ../Core/Src/processing.c:726:14
	strb.w	r0, [sp, #15]
	.loc	1 726 21 is_stmt 0              @ ../Core/Src/processing.c:726:21
	strb.w	r0, [sp, #14]
	.loc	1 726 9                         @ ../Core/Src/processing.c:726:9
	b	.LBB5_9
.LBB5_9:                                @ =>This Loop Header: Depth=1
                                        @     Child Loop BB5_11 Depth 2
                                        @     Child Loop BB5_20 Depth 2
.Ltmp352:
	.loc	1 726 30                        @ ../Core/Src/processing.c:726:30
	ldrb.w	r0, [sp, #15]
.Ltmp353:
	.loc	1 726 5                         @ ../Core/Src/processing.c:726:5
	cmp	r0, #3
	bgt.w	.LBB5_39
	b	.LBB5_10
.LBB5_10:                               @   in Loop: Header=BB5_9 Depth=1
.Ltmp354:
	.loc	1 728 55 is_stmt 1              @ ../Core/Src/processing.c:728:55
	movw	r0, :lower16:USART_Data
	movt	r0, :upper16:USART_Data
	movw	r1, #14988
	add	r1, r0
	movs	r0, #0
	strb.w	r0, [r1, #2014]
	.loc	1 729 56                        @ ../Core/Src/processing.c:729:56
	strb.w	r0, [r1, #2015]
	.loc	1 730 56                        @ ../Core/Src/processing.c:730:56
	strb.w	r0, [r1, #2016]
	.loc	1 731 41                        @ ../Core/Src/processing.c:731:41
	movw	r1, :lower16:SYS_tickTime
	movt	r1, :upper16:SYS_tickTime
	str	r0, [r1, #8]
	.loc	1 732 48                        @ ../Core/Src/processing.c:732:48
	ldr	r2, [sp, #16]
	.loc	1 732 57 is_stmt 0              @ ../Core/Src/processing.c:732:57
	ldrb.w	r0, [sp, #15]
	movs	r1, #50
	.loc	1 732 48                        @ ../Core/Src/processing.c:732:48
	smlabb	r2, r0, r1, r2
	.loc	1 732 15                        @ ../Core/Src/processing.c:732:15
	movw	r0, :lower16:GetMultimeter.Sendstr
	movt	r0, :upper16:GetMultimeter.Sendstr
	str	r0, [sp, #4]                    @ 4-byte Spill
	movw	r1, :lower16:.L.str.19
	movt	r1, :upper16:.L.str.19
	movs	r3, #10
	bl	sprintf
	ldr	r1, [sp, #4]                    @ 4-byte Reload
	.loc	1 732 13                        @ ../Core/Src/processing.c:732:13
	strb.w	r0, [sp, #14]
	.loc	1 733 64 is_stmt 1              @ ../Core/Src/processing.c:733:64
	ldrb.w	r2, [sp, #14]
	.loc	1 733 9 is_stmt 0               @ ../Core/Src/processing.c:733:9
	movw	r0, :lower16:huart6
	movt	r0, :upper16:huart6
	bl	HAL_UART_Transmit_IT
	.loc	1 735 9 is_stmt 1               @ ../Core/Src/processing.c:735:9
	b	.LBB5_11
.LBB5_11:                               @   Parent Loop BB5_9 Depth=1
                                        @ =>  This Inner Loop Header: Depth=2
.Ltmp355:
	.loc	1 737 29                        @ ../Core/Src/processing.c:737:29
	movw	r0, :lower16:SYS_tickTime
	movt	r0, :upper16:SYS_tickTime
	ldr	r0, [r0, #8]
	.loc	1 737 50 is_stmt 0              @ ../Core/Src/processing.c:737:50
	ldrh.w	r1, [sp, #872]
.Ltmp356:
	.loc	1 737 16                        @ ../Core/Src/processing.c:737:16
	cmp	r0, r1
	bls	.LBB5_13
	b	.LBB5_12
.LBB5_12:
.Ltmp357:
	.loc	1 739 27 is_stmt 1              @ ../Core/Src/processing.c:739:27
	movw	r0, :lower16:GetMultimeter.ReturnNum
	movt	r0, :upper16:GetMultimeter.ReturnNum
	movs	r1, #1
	strb	r1, [r0]
	.loc	1 740 17                        @ ../Core/Src/processing.c:740:17
	str	r0, [sp, #876]
	b	.LBB5_54
.Ltmp358:
.LBB5_13:                               @   in Loop: Header=BB5_11 Depth=2
	.loc	1 743 39                        @ ../Core/Src/processing.c:743:39
	movw	r0, :lower16:USART_Data
	movt	r0, :upper16:USART_Data
	movw	r1, #17002
	ldrb	r0, [r0, r1]
.Ltmp359:
	.loc	1 743 16 is_stmt 0              @ ../Core/Src/processing.c:743:16
	cmp	r0, #1
	bne	.LBB5_15
	b	.LBB5_14
.LBB5_14:                               @   in Loop: Header=BB5_9 Depth=1
.Ltmp360:
	.loc	1 745 49 is_stmt 1              @ ../Core/Src/processing.c:745:49
	movw	r1, :lower16:SYS_tickTime
	movt	r1, :upper16:SYS_tickTime
	movs	r0, #0
	str	r0, [r1, #8]
	.loc	1 746 17                        @ ../Core/Src/processing.c:746:17
	b	.LBB5_16
.Ltmp361:
.LBB5_15:                               @   in Loop: Header=BB5_11 Depth=2
	.loc	1 735 9                         @ ../Core/Src/processing.c:735:9
	b	.LBB5_11
.LBB5_16:                               @   in Loop: Header=BB5_9 Depth=1
.Ltmp362:
	.loc	1 750 12                        @ ../Core/Src/processing.c:750:12
	ldrb.w	r0, [sp, #15]
	.loc	1 750 19 is_stmt 0              @ ../Core/Src/processing.c:750:19
	cbz	r0, .LBB5_19
	b	.LBB5_17
.LBB5_17:                               @   in Loop: Header=BB5_9 Depth=1
	.loc	1 750 22                        @ ../Core/Src/processing.c:750:22
	ldrb.w	r0, [sp, #15]
	.loc	1 750 28                        @ ../Core/Src/processing.c:750:28
	cmp	r0, #1
	beq	.LBB5_19
	b	.LBB5_18
.LBB5_18:                               @   in Loop: Header=BB5_9 Depth=1
	.loc	1 750 30                        @ ../Core/Src/processing.c:750:30
	ldrb.w	r0, [sp, #15]
.Ltmp363:
	.loc	1 750 12                        @ ../Core/Src/processing.c:750:12
	cmp	r0, #3
	bne	.LBB5_26
	b	.LBB5_19
.LBB5_19:                               @   in Loop: Header=BB5_9 Depth=1
.Ltmp364:
	.loc	1 752 13 is_stmt 1              @ ../Core/Src/processing.c:752:13
	b	.LBB5_20
.LBB5_20:                               @   Parent Loop BB5_9 Depth=1
                                        @ =>  This Inner Loop Header: Depth=2
.Ltmp365:
	.loc	1 754 33                        @ ../Core/Src/processing.c:754:33
	movw	r0, :lower16:SYS_tickTime
	movt	r0, :upper16:SYS_tickTime
	ldr	r0, [r0, #8]
	.loc	1 754 54 is_stmt 0              @ ../Core/Src/processing.c:754:54
	ldrh.w	r1, [sp, #872]
.Ltmp366:
	.loc	1 754 20                        @ ../Core/Src/processing.c:754:20
	cmp	r0, r1
	bls	.LBB5_22
	b	.LBB5_21
.LBB5_21:
.Ltmp367:
	.loc	1 756 31 is_stmt 1              @ ../Core/Src/processing.c:756:31
	movw	r0, :lower16:GetMultimeter.ReturnNum
	movt	r0, :upper16:GetMultimeter.ReturnNum
	movs	r1, #1
	strb	r1, [r0]
	.loc	1 757 21                        @ ../Core/Src/processing.c:757:21
	str	r0, [sp, #876]
	b	.LBB5_54
.Ltmp368:
.LBB5_22:                               @   in Loop: Header=BB5_20 Depth=2
	.loc	1 760 43                        @ ../Core/Src/processing.c:760:43
	movw	r0, :lower16:USART_Data
	movt	r0, :upper16:USART_Data
	movw	r1, #17003
	ldrb	r0, [r0, r1]
.Ltmp369:
	.loc	1 760 20 is_stmt 0              @ ../Core/Src/processing.c:760:20
	cmp	r0, #1
	bne	.LBB5_24
	b	.LBB5_23
.LBB5_23:                               @   in Loop: Header=BB5_9 Depth=1
.Ltmp370:
	.loc	1 762 21 is_stmt 1              @ ../Core/Src/processing.c:762:21
	b	.LBB5_25
.Ltmp371:
.LBB5_24:                               @   in Loop: Header=BB5_20 Depth=2
	.loc	1 752 13                        @ ../Core/Src/processing.c:752:13
	b	.LBB5_20
.LBB5_25:                               @   in Loop: Header=BB5_9 Depth=1
	.loc	1 765 9                         @ ../Core/Src/processing.c:765:9
	b	.LBB5_26
.Ltmp372:
.LBB5_26:                               @   in Loop: Header=BB5_9 Depth=1
	.loc	1 767 12                        @ ../Core/Src/processing.c:767:12
	ldrb.w	r0, [sp, #15]
.Ltmp373:
	.loc	1 767 12 is_stmt 0              @ ../Core/Src/processing.c:767:12
	cbnz	r0, .LBB5_31
	b	.LBB5_27
.LBB5_27:                               @   in Loop: Header=BB5_9 Depth=1
.Ltmp374:
	.loc	1 769 16 is_stmt 1              @ ../Core/Src/processing.c:769:16
	movw	r0, :lower16:USART_Data
	movt	r0, :upper16:USART_Data
	movw	r1, #17005
	add	r0, r1
	add.w	r1, sp, #22
	bl	strcmp
.Ltmp375:
	.loc	1 769 16 is_stmt 0              @ ../Core/Src/processing.c:769:16
	cbnz	r0, .LBB5_29
	b	.LBB5_28
.LBB5_28:                               @   in Loop: Header=BB5_9 Depth=1
	.loc	1 0 16                          @ ../Core/Src/processing.c:0:16
	add	r0, sp, #72
.Ltmp376:
	.loc	1 771 49 is_stmt 1              @ ../Core/Src/processing.c:771:49
	add.w	r2, r0, #150
	.loc	1 771 5 is_stmt 0               @ ../Core/Src/processing.c:771:5
	mov	r1, sp
	movs	r0, #10
	str	r0, [r1]
	movw	r1, :lower16:.L.str.18
	movt	r1, :upper16:.L.str.18
	add.w	r0, sp, #22
	movs	r3, #13
	bl	sprintf
	.loc	1 772 13 is_stmt 1              @ ../Core/Src/processing.c:772:13
	movw	r1, :lower16:GetMultimeter.SkipFlag
	movt	r1, :upper16:GetMultimeter.SkipFlag
	ldrb	r0, [r1]
	adds	r0, #1
	strb	r0, [r1]
	.loc	1 773 13                        @ ../Core/Src/processing.c:773:13
	b	.LBB5_30
.Ltmp377:
.LBB5_29:                               @   in Loop: Header=BB5_9 Depth=1
	.loc	1 0 13 is_stmt 0                @ ../Core/Src/processing.c:0:13
	movs	r0, #1
.Ltmp378:
	.loc	1 776 7 is_stmt 1               @ ../Core/Src/processing.c:776:7
	strb.w	r0, [sp, #15]
	b	.LBB5_30
.Ltmp379:
.LBB5_30:                               @   in Loop: Header=BB5_9 Depth=1
	.loc	1 778 5                         @ ../Core/Src/processing.c:778:5
	b	.LBB5_38
.Ltmp380:
.LBB5_31:                               @   in Loop: Header=BB5_9 Depth=1
	.loc	1 780 11                        @ ../Core/Src/processing.c:780:11
	ldrb.w	r0, [sp, #15]
.Ltmp381:
	.loc	1 780 11 is_stmt 0              @ ../Core/Src/processing.c:780:11
	cmp	r0, #1
	bne	.LBB5_37
	b	.LBB5_32
.LBB5_32:                               @   in Loop: Header=BB5_9 Depth=1
.Ltmp382:
	.loc	1 782 16 is_stmt 1              @ ../Core/Src/processing.c:782:16
	movw	r0, :lower16:USART_Data
	movt	r0, :upper16:USART_Data
	movw	r1, #17005
	add	r0, r1
	add.w	r1, sp, #22
	bl	strcmp
.Ltmp383:
	.loc	1 782 16 is_stmt 0              @ ../Core/Src/processing.c:782:16
	cbnz	r0, .LBB5_36
	b	.LBB5_33
.LBB5_33:                               @   in Loop: Header=BB5_9 Depth=1
.Ltmp384:
	.loc	1 784 8 is_stmt 1               @ ../Core/Src/processing.c:784:8
	movw	r0, :lower16:GetMultimeter.SkipFlag
	movt	r0, :upper16:GetMultimeter.SkipFlag
	ldrb	r0, [r0]
.Ltmp385:
	.loc	1 784 8 is_stmt 0               @ ../Core/Src/processing.c:784:8
	cmp	r0, #1
	bne	.LBB5_35
	b	.LBB5_34
.LBB5_34:                               @   in Loop: Header=BB5_9 Depth=1
	.loc	1 0 8                           @ ../Core/Src/processing.c:0:8
	movs	r0, #2
.Ltmp386:
	.loc	1 786 8 is_stmt 1               @ ../Core/Src/processing.c:786:8
	strb.w	r0, [sp, #15]
	.loc	1 787 5                         @ ../Core/Src/processing.c:787:5
	b	.LBB5_35
.Ltmp387:
.LBB5_35:                               @   in Loop: Header=BB5_9 Depth=1
	.loc	1 788 17                        @ ../Core/Src/processing.c:788:17
	b	.LBB5_38
.Ltmp388:
.LBB5_36:                               @   in Loop: Header=BB5_9 Depth=1
	.loc	1 790 9                         @ ../Core/Src/processing.c:790:9
	b	.LBB5_37
.Ltmp389:
.LBB5_37:                               @   in Loop: Header=BB5_9 Depth=1
	.loc	1 793 5                         @ ../Core/Src/processing.c:793:5
	b	.LBB5_38
.Ltmp390:
.LBB5_38:                               @   in Loop: Header=BB5_9 Depth=1
	.loc	1 726 38                        @ ../Core/Src/processing.c:726:38
	ldrb.w	r0, [sp, #15]
	adds	r0, #1
	strb.w	r0, [sp, #15]
	.loc	1 726 5 is_stmt 0               @ ../Core/Src/processing.c:726:5
	b	.LBB5_9
.Ltmp391:
.LBB5_39:
	.loc	1 795 8 is_stmt 1               @ ../Core/Src/processing.c:795:8
	ldrb.w	r0, [sp, #875]
.Ltmp392:
	.loc	1 795 8 is_stmt 0               @ ../Core/Src/processing.c:795:8
	cbnz	r0, .LBB5_43
	b	.LBB5_40
.LBB5_40:
.Ltmp393:
	.loc	1 797 52 is_stmt 1              @ ../Core/Src/processing.c:797:52
	movw	r1, :lower16:USART_Data
	movt	r1, :upper16:USART_Data
	movw	r0, #14988
	add	r0, r1
	add.w	r1, r1, #17408
	vldr	s0, [r1]
	vldr	s2, .LCPI5_1
	.loc	1 797 97 is_stmt 0              @ ../Core/Src/processing.c:797:97
	vmul.f32	s0, s0, s2
	.loc	1 797 50                        @ ../Core/Src/processing.c:797:50
	vstr	s0, [r0]
.Ltmp394:
	.loc	1 799 35 is_stmt 1              @ ../Core/Src/processing.c:799:35
	vldr	s0, [r0]
.Ltmp395:
	.loc	1 799 12 is_stmt 0              @ ../Core/Src/processing.c:799:12
	vcmp.f32	s0, #0
	vmrs	APSR_nzcv, fpscr
	bge	.LBB5_42
	b	.LBB5_41
.LBB5_41:
.Ltmp396:
	.loc	1 801 54 is_stmt 1              @ ../Core/Src/processing.c:801:54
	movw	r0, :lower16:USART_Data
	movt	r0, :upper16:USART_Data
	movw	r1, #14988
	add	r0, r1
	vldr	s2, [r0]
	vldr	s0, .LCPI5_0
	vsub.f32	s0, s0, s2
	vstr	s0, [r0]
	.loc	1 802 9                         @ ../Core/Src/processing.c:802:9
	b	.LBB5_42
.Ltmp397:
.LBB5_42:
	.loc	1 803 5                         @ ../Core/Src/processing.c:803:5
	b	.LBB5_53
.Ltmp398:
.LBB5_43:
	.loc	1 804 13                        @ ../Core/Src/processing.c:804:13
	ldrb.w	r0, [sp, #875]
.Ltmp399:
	.loc	1 804 13 is_stmt 0              @ ../Core/Src/processing.c:804:13
	cmp	r0, #1
	bne	.LBB5_47
	b	.LBB5_44
.LBB5_44:
.Ltmp400:
	.loc	1 806 54 is_stmt 1              @ ../Core/Src/processing.c:806:54
	movw	r0, :lower16:USART_Data
	movt	r0, :upper16:USART_Data
	movw	r1, #14988
	add	r0, r1
	ldr.w	r1, [r0, #2420]
	.loc	1 806 52 is_stmt 0              @ ../Core/Src/processing.c:806:52
	str	r1, [r0, #4]
.Ltmp401:
	.loc	1 808 35 is_stmt 1              @ ../Core/Src/processing.c:808:35
	vldr	s0, [r0, #4]
.Ltmp402:
	.loc	1 808 12 is_stmt 0              @ ../Core/Src/processing.c:808:12
	vcmp.f32	s0, #0
	vmrs	APSR_nzcv, fpscr
	bge	.LBB5_46
	b	.LBB5_45
.LBB5_45:
.Ltmp403:
	.loc	1 810 56 is_stmt 1              @ ../Core/Src/processing.c:810:56
	movw	r0, :lower16:USART_Data
	movt	r0, :upper16:USART_Data
	movw	r1, #14992
	add	r0, r1
	vldr	s2, [r0]
	vldr	s0, .LCPI5_0
	vsub.f32	s0, s0, s2
	vstr	s0, [r0]
	.loc	1 811 9                         @ ../Core/Src/processing.c:811:9
	b	.LBB5_46
.Ltmp404:
.LBB5_46:
	.loc	1 812 5                         @ ../Core/Src/processing.c:812:5
	b	.LBB5_52
.Ltmp405:
.LBB5_47:
	.loc	1 813 13                        @ ../Core/Src/processing.c:813:13
	ldrb.w	r0, [sp, #875]
.Ltmp406:
	.loc	1 813 13 is_stmt 0              @ ../Core/Src/processing.c:813:13
	cmp	r0, #2
	bne	.LBB5_51
	b	.LBB5_48
.LBB5_48:
.Ltmp407:
	.loc	1 815 54 is_stmt 1              @ ../Core/Src/processing.c:815:54
	movw	r0, :lower16:USART_Data
	movt	r0, :upper16:USART_Data
	movw	r1, #14988
	add	r0, r1
	ldr.w	r1, [r0, #2420]
	.loc	1 815 52 is_stmt 0              @ ../Core/Src/processing.c:815:52
	str	r1, [r0, #8]
.Ltmp408:
	.loc	1 817 35 is_stmt 1              @ ../Core/Src/processing.c:817:35
	vldr	s0, [r0, #8]
.Ltmp409:
	.loc	1 817 12 is_stmt 0              @ ../Core/Src/processing.c:817:12
	vcmp.f32	s0, #0
	vmrs	APSR_nzcv, fpscr
	bge	.LBB5_50
	b	.LBB5_49
.LBB5_49:
.Ltmp410:
	.loc	1 819 56 is_stmt 1              @ ../Core/Src/processing.c:819:56
	movw	r0, :lower16:USART_Data
	movt	r0, :upper16:USART_Data
	movw	r1, #14996
	add	r0, r1
	vldr	s2, [r0]
	vldr	s0, .LCPI5_0
	vsub.f32	s0, s0, s2
	vstr	s0, [r0]
	.loc	1 820 9                         @ ../Core/Src/processing.c:820:9
	b	.LBB5_50
.Ltmp411:
.LBB5_50:
	.loc	1 821 5                         @ ../Core/Src/processing.c:821:5
	b	.LBB5_51
.Ltmp412:
.LBB5_51:
	.loc	1 0 5 is_stmt 0                 @ ../Core/Src/processing.c:0:5
	b	.LBB5_52
.LBB5_52:
	b	.LBB5_53
.LBB5_53:
	.loc	1 823 15 is_stmt 1              @ ../Core/Src/processing.c:823:15
	movw	r0, :lower16:GetMultimeter.ReturnNum
	movt	r0, :upper16:GetMultimeter.ReturnNum
	movs	r1, #0
	strb	r1, [r0]
	.loc	1 824 5                         @ ../Core/Src/processing.c:824:5
	str	r0, [sp, #876]
	b	.LBB5_54
.LBB5_54:
	.loc	1 825 1                         @ ../Core/Src/processing.c:825:1
	ldr	r0, [sp, #876]
	add.w	sp, sp, #880
	pop	{r7, pc}
.Ltmp413:
	.p2align	2
@ %bb.55:
	.loc	1 0 1 is_stmt 0                 @ ../Core/Src/processing.c:0:1
.LCPI5_0:
	.long	0x80000000                      @ float -0
.LCPI5_1:
	.long	0x447a0000                      @ float 1000
.Lfunc_end5:
	.size	GetMultimeter, .Lfunc_end5-GetMultimeter
	.cfi_endproc
	.cantunwind
	.fnend
                                        @ -- End function
	.section	.text.SetPower,"ax",%progbits
	.hidden	SetPower                        @ -- Begin function SetPower
	.globl	SetPower
	.p2align	2
	.type	SetPower,%function
	.code	16                              @ @SetPower
	.thumb_func
SetPower:
.Lfunc_begin6:
	.loc	1 833 0 is_stmt 1               @ ../Core/Src/processing.c:833:0
	.fnstart
	.cfi_startproc
@ %bb.0:
	.save	{r7, lr}
	push	{r7, lr}
	.cfi_def_cfa_offset 8
	.cfi_offset lr, -4
	.cfi_offset r7, -8
	.pad	#152
	sub	sp, #152
	.cfi_def_cfa_offset 160
                                        @ kill: def $r2 killed $r1
                                        @ kill: def $r2 killed $r0
	vstr	s0, [sp, #144]
	strb.w	r0, [sp, #143]
	strh.w	r1, [sp, #140]
.Ltmp414:
	.loc	1 834 19 prologue_end           @ ../Core/Src/processing.c:834:19
	movw	r1, :lower16:.L__const.SetPower.SendBuf
	movt	r1, :upper16:.L__const.SetPower.SendBuf
	add	r0, sp, #40
	movs	r2, #100
	bl	__aeabi_memcpy
	movs	r0, #0
	.loc	1 838 19                        @ ../Core/Src/processing.c:838:19
	strb.w	r0, [sp, #39]
	.loc	1 841 52                        @ ../Core/Src/processing.c:841:52
	movw	r1, :lower16:USART_Data
	movt	r1, :upper16:USART_Data
	movw	r2, #12384
	add	r1, r2
	strb.w	r0, [r1, #2017]
	.loc	1 842 51                        @ ../Core/Src/processing.c:842:51
	strb.w	r0, [r1, #2016]
	.loc	1 843 52                        @ ../Core/Src/processing.c:843:52
	strb.w	r0, [r1, #2013]
	.loc	1 844 52                        @ ../Core/Src/processing.c:844:52
	strb.w	r0, [r1, #2017]
	.loc	1 845 37                        @ ../Core/Src/processing.c:845:37
	movw	r1, :lower16:SYS_tickTime
	movt	r1, :upper16:SYS_tickTime
	str	r0, [r1, #8]
.Ltmp415:
	.loc	1 847 8                         @ ../Core/Src/processing.c:847:8
	ldrb.w	r0, [sp, #143]
.Ltmp416:
	.loc	1 847 8 is_stmt 0               @ ../Core/Src/processing.c:847:8
	cbnz	r0, .LBB6_2
	b	.LBB6_1
.LBB6_1:
.Ltmp417:
	.loc	1 849 66 is_stmt 1              @ ../Core/Src/processing.c:849:66
	ldr	r0, [sp, #144]
	bl	__aeabi_f2d
	vmov	d0, r0, r1
	.loc	1 849 15 is_stmt 0              @ ../Core/Src/processing.c:849:15
	mov	r0, sp
	movs	r1, #10
	str	r1, [r0, #8]
	vstr	d0, [r0]
	movw	r0, :lower16:SetPower.SendstrTrue
	movt	r0, :upper16:SetPower.SendstrTrue
	movw	r1, :lower16:.L.str.20
	movt	r1, :upper16:.L.str.20
	add	r2, sp, #40
	bl	sprintf
	.loc	1 849 13                        @ ../Core/Src/processing.c:849:13
	strb.w	r0, [sp, #39]
	.loc	1 850 5 is_stmt 1               @ ../Core/Src/processing.c:850:5
	b	.LBB6_2
.Ltmp418:
.LBB6_2:
	.loc	1 852 8                         @ ../Core/Src/processing.c:852:8
	ldrb.w	r0, [sp, #143]
.Ltmp419:
	.loc	1 852 8 is_stmt 0               @ ../Core/Src/processing.c:852:8
	cmp	r0, #1
	bne	.LBB6_4
	b	.LBB6_3
.LBB6_3:
	.loc	1 0 8                           @ ../Core/Src/processing.c:0:8
	add	r0, sp, #40
.Ltmp420:
	.loc	1 854 54 is_stmt 1              @ ../Core/Src/processing.c:854:54
	adds	r0, #20
	.loc	1 854 66 is_stmt 0              @ ../Core/Src/processing.c:854:66
	str	r0, [sp, #32]                   @ 4-byte Spill
	ldr	r0, [sp, #144]
	bl	__aeabi_f2d
	ldr	r2, [sp, #32]                   @ 4-byte Reload
	vmov	d0, r0, r1
	.loc	1 854 15                        @ ../Core/Src/processing.c:854:15
	mov	r0, sp
	movs	r1, #10
	str	r1, [r0, #8]
	vstr	d0, [r0]
	movw	r0, :lower16:SetPower.SendstrTrue
	movt	r0, :upper16:SetPower.SendstrTrue
	movw	r1, :lower16:.L.str.20
	movt	r1, :upper16:.L.str.20
	bl	sprintf
	.loc	1 854 13                        @ ../Core/Src/processing.c:854:13
	strb.w	r0, [sp, #39]
	.loc	1 855 5 is_stmt 1               @ ../Core/Src/processing.c:855:5
	b	.LBB6_4
.Ltmp421:
.LBB6_4:
	.loc	1 857 8                         @ ../Core/Src/processing.c:857:8
	ldrb.w	r0, [sp, #143]
.Ltmp422:
	.loc	1 857 8 is_stmt 0               @ ../Core/Src/processing.c:857:8
	cmp	r0, #2
	bne	.LBB6_6
	b	.LBB6_5
.LBB6_5:
	.loc	1 0 8                           @ ../Core/Src/processing.c:0:8
	add	r0, sp, #40
.Ltmp423:
	.loc	1 859 53 is_stmt 1              @ ../Core/Src/processing.c:859:53
	str	r0, [sp, #12]                   @ 4-byte Spill
	add.w	r2, r0, #40
	.loc	1 859 16 is_stmt 0              @ ../Core/Src/processing.c:859:16
	movw	r0, :lower16:SetPower.SendstrTrue
	movt	r0, :upper16:SetPower.SendstrTrue
	str	r0, [sp, #28]                   @ 4-byte Spill
	movw	r1, :lower16:.L.str.19
	movt	r1, :upper16:.L.str.19
	str	r1, [sp, #16]                   @ 4-byte Spill
	movs	r3, #10
	str	r3, [sp, #20]                   @ 4-byte Spill
	bl	sprintf
	ldr	r1, [sp, #16]                   @ 4-byte Reload
	ldr	r3, [sp, #20]                   @ 4-byte Reload
	mov	r12, r0
	.loc	1 859 13                        @ ../Core/Src/processing.c:859:13
	ldr	r0, [sp, #12]                   @ 4-byte Reload
	ldrb.w	r2, [sp, #39]
	add	r2, r12
	strb.w	r2, [sp, #39]
	.loc	1 860 49 is_stmt 1              @ ../Core/Src/processing.c:860:49
	add.w	r2, r0, #60
	.loc	1 860 16 is_stmt 0              @ ../Core/Src/processing.c:860:16
	movw	r0, :lower16:SetPower.Sendstr
	movt	r0, :upper16:SetPower.Sendstr
	str	r0, [sp, #24]                   @ 4-byte Spill
	bl	sprintf
	ldr	r1, [sp, #24]                   @ 4-byte Reload
	mov	r3, r0
	.loc	1 860 13                        @ ../Core/Src/processing.c:860:13
	ldr	r0, [sp, #28]                   @ 4-byte Reload
	ldrb.w	r2, [sp, #39]
	add	r2, r3
	strb.w	r2, [sp, #39]
	.loc	1 861 9 is_stmt 1               @ ../Core/Src/processing.c:861:9
	bl	strcat
	ldr	r2, [sp, #12]                   @ 4-byte Reload
	ldr	r1, [sp, #16]                   @ 4-byte Reload
	ldr	r3, [sp, #20]                   @ 4-byte Reload
                                        @ kill: def $r12 killed $r0
	.loc	1 862 49                        @ ../Core/Src/processing.c:862:49
	ldr	r0, [sp, #24]                   @ 4-byte Reload
	adds	r2, #80
	.loc	1 862 16 is_stmt 0              @ ../Core/Src/processing.c:862:16
	bl	sprintf
	ldr	r1, [sp, #24]                   @ 4-byte Reload
	mov	r3, r0
	.loc	1 862 13                        @ ../Core/Src/processing.c:862:13
	ldr	r0, [sp, #28]                   @ 4-byte Reload
	ldrb.w	r2, [sp, #39]
	add	r2, r3
	strb.w	r2, [sp, #39]
	.loc	1 863 9 is_stmt 1               @ ../Core/Src/processing.c:863:9
	bl	strcat
	.loc	1 864 5                         @ ../Core/Src/processing.c:864:5
	b	.LBB6_6
.Ltmp424:
.LBB6_6:
	.loc	1 866 59                        @ ../Core/Src/processing.c:866:59
	ldrb.w	r2, [sp, #39]
	.loc	1 866 5 is_stmt 0               @ ../Core/Src/processing.c:866:5
	movw	r0, :lower16:huart3
	movt	r0, :upper16:huart3
	movw	r1, :lower16:SetPower.SendstrTrue
	movt	r1, :upper16:SetPower.SendstrTrue
	bl	HAL_UART_Transmit_IT
	.loc	1 868 5 is_stmt 1               @ ../Core/Src/processing.c:868:5
	b	.LBB6_7
.LBB6_7:                                @ =>This Inner Loop Header: Depth=1
.Ltmp425:
	.loc	1 870 25                        @ ../Core/Src/processing.c:870:25
	movw	r0, :lower16:SYS_tickTime
	movt	r0, :upper16:SYS_tickTime
	ldr	r0, [r0, #8]
	.loc	1 870 46 is_stmt 0              @ ../Core/Src/processing.c:870:46
	ldrh.w	r1, [sp, #140]
.Ltmp426:
	.loc	1 870 12                        @ ../Core/Src/processing.c:870:12
	cmp	r0, r1
	bls	.LBB6_9
	b	.LBB6_8
.LBB6_8:
.Ltmp427:
	.loc	1 872 23 is_stmt 1              @ ../Core/Src/processing.c:872:23
	movw	r0, :lower16:SetPower.ReturnNum
	movt	r0, :upper16:SetPower.ReturnNum
	movs	r1, #1
	strb	r1, [r0]
	.loc	1 873 13                        @ ../Core/Src/processing.c:873:13
	str	r0, [sp, #148]
	b	.LBB6_24
.Ltmp428:
.LBB6_9:                                @   in Loop: Header=BB6_7 Depth=1
	.loc	1 876 35                        @ ../Core/Src/processing.c:876:35
	movw	r0, :lower16:USART_Data
	movt	r0, :upper16:USART_Data
	mov.w	r1, #14400
	ldrb	r0, [r0, r1]
.Ltmp429:
	.loc	1 876 12 is_stmt 0              @ ../Core/Src/processing.c:876:12
	cmp	r0, #1
	bne	.LBB6_14
	b	.LBB6_10
.LBB6_10:
.Ltmp430:
	.loc	1 878 45 is_stmt 1              @ ../Core/Src/processing.c:878:45
	movw	r1, :lower16:SYS_tickTime
	movt	r1, :upper16:SYS_tickTime
	movs	r0, #0
	str	r0, [r1, #8]
.Ltmp431:
	.loc	1 880 16                        @ ../Core/Src/processing.c:880:16
	ldrb.w	r0, [sp, #143]
	.loc	1 880 36 is_stmt 0              @ ../Core/Src/processing.c:880:36
	cbz	r0, .LBB6_12
	b	.LBB6_11
.LBB6_11:
	.loc	1 880 39                        @ ../Core/Src/processing.c:880:39
	ldrb.w	r0, [sp, #143]
.Ltmp432:
	.loc	1 880 16                        @ ../Core/Src/processing.c:880:16
	cmp	r0, #1
	bne	.LBB6_13
	b	.LBB6_12
.LBB6_12:
	.loc	1 0 16                          @ ../Core/Src/processing.c:0:16
	movs	r0, #0
.Ltmp433:
	.loc	1 882 17 is_stmt 1              @ ../Core/Src/processing.c:882:17
	str	r0, [sp, #148]
	b	.LBB6_24
.Ltmp434:
.LBB6_13:
	.loc	1 885 13                        @ ../Core/Src/processing.c:885:13
	b	.LBB6_15
.Ltmp435:
.LBB6_14:                               @   in Loop: Header=BB6_7 Depth=1
	.loc	1 868 5                         @ ../Core/Src/processing.c:868:5
	b	.LBB6_7
.LBB6_15:
.Ltmp436:
	.loc	1 889 8                         @ ../Core/Src/processing.c:889:8
	ldrb.w	r0, [sp, #143]
.Ltmp437:
	.loc	1 889 8 is_stmt 0               @ ../Core/Src/processing.c:889:8
	cmp	r0, #2
	bne	.LBB6_23
	b	.LBB6_16
.LBB6_16:
.Ltmp438:
	.loc	1 891 9 is_stmt 1               @ ../Core/Src/processing.c:891:9
	b	.LBB6_17
.LBB6_17:                               @ =>This Inner Loop Header: Depth=1
.Ltmp439:
	.loc	1 893 29                        @ ../Core/Src/processing.c:893:29
	movw	r0, :lower16:SYS_tickTime
	movt	r0, :upper16:SYS_tickTime
	ldr	r0, [r0, #8]
	.loc	1 893 50 is_stmt 0              @ ../Core/Src/processing.c:893:50
	ldrh.w	r1, [sp, #140]
.Ltmp440:
	.loc	1 893 16                        @ ../Core/Src/processing.c:893:16
	cmp	r0, r1
	bls	.LBB6_19
	b	.LBB6_18
.LBB6_18:
.Ltmp441:
	.loc	1 895 27 is_stmt 1              @ ../Core/Src/processing.c:895:27
	movw	r0, :lower16:SetPower.ReturnNum
	movt	r0, :upper16:SetPower.ReturnNum
	movs	r1, #1
	strb	r1, [r0]
	.loc	1 896 17                        @ ../Core/Src/processing.c:896:17
	str	r0, [sp, #148]
	b	.LBB6_24
.Ltmp442:
.LBB6_19:                               @   in Loop: Header=BB6_17 Depth=1
	.loc	1 899 39                        @ ../Core/Src/processing.c:899:39
	movw	r0, :lower16:USART_Data
	movt	r0, :upper16:USART_Data
	movw	r1, #14401
	ldrb	r0, [r0, r1]
.Ltmp443:
	.loc	1 899 16 is_stmt 0              @ ../Core/Src/processing.c:899:16
	cmp	r0, #3
	bne	.LBB6_21
	b	.LBB6_20
.LBB6_20:
.Ltmp444:
	.loc	1 901 17 is_stmt 1              @ ../Core/Src/processing.c:901:17
	b	.LBB6_22
.Ltmp445:
.LBB6_21:                               @   in Loop: Header=BB6_17 Depth=1
	.loc	1 891 9                         @ ../Core/Src/processing.c:891:9
	b	.LBB6_17
.LBB6_22:
	.loc	1 904 5                         @ ../Core/Src/processing.c:904:5
	b	.LBB6_23
.Ltmp446:
.LBB6_23:
	.loc	1 906 48                        @ ../Core/Src/processing.c:906:48
	movw	r1, :lower16:USART_Data
	movt	r1, :upper16:USART_Data
	movw	r2, #12384
	adds	r0, r1, r2
	ldr.w	r3, [r0, #2420]
	.loc	1 906 46 is_stmt 0              @ ../Core/Src/processing.c:906:46
	str	r3, [r0, #4]
	.loc	1 907 46 is_stmt 1              @ ../Core/Src/processing.c:907:46
	ldr.w	r3, [r0, #2424]
	.loc	1 907 44 is_stmt 0              @ ../Core/Src/processing.c:907:44
	str	r3, [r0, #8]
	.loc	1 908 48 is_stmt 1              @ ../Core/Src/processing.c:908:48
	ldr.w	r0, [r0, #2428]
	.loc	1 908 46 is_stmt 0              @ ../Core/Src/processing.c:908:46
	str	r0, [r1, r2]
	.loc	1 909 15 is_stmt 1              @ ../Core/Src/processing.c:909:15
	movw	r0, :lower16:SetPower.ReturnNum
	movt	r0, :upper16:SetPower.ReturnNum
	movs	r1, #0
	strb	r1, [r0]
	.loc	1 910 5                         @ ../Core/Src/processing.c:910:5
	str	r0, [sp, #148]
	b	.LBB6_24
.LBB6_24:
	.loc	1 911 1                         @ ../Core/Src/processing.c:911:1
	ldr	r0, [sp, #148]
	add	sp, #152
	pop	{r7, pc}
.Ltmp447:
.Lfunc_end6:
	.size	SetPower, .Lfunc_end6-SetPower
	.cfi_endproc
	.cantunwind
	.fnend
                                        @ -- End function
	.section	.text.SetPowerOut,"ax",%progbits
	.hidden	SetPowerOut                     @ -- Begin function SetPowerOut
	.globl	SetPowerOut
	.p2align	2
	.type	SetPowerOut,%function
	.code	16                              @ @SetPowerOut
	.thumb_func
SetPowerOut:
.Lfunc_begin7:
	.loc	1 919 0                         @ ../Core/Src/processing.c:919:0
	.fnstart
	.cfi_startproc
@ %bb.0:
	.save	{r7, lr}
	push	{r7, lr}
	.cfi_def_cfa_offset 8
	.cfi_offset lr, -4
	.cfi_offset r7, -8
	.pad	#72
	sub	sp, #72
	.cfi_def_cfa_offset 80
                                        @ kill: def $r3 killed $r2
                                        @ kill: def $r3 killed $r1
                                        @ kill: def $r3 killed $r0
	strb.w	r0, [sp, #67]
	strb.w	r1, [sp, #66]
	strh.w	r2, [sp, #64]
.Ltmp448:
	.loc	1 921 19 prologue_end           @ ../Core/Src/processing.c:921:19
	movw	r1, :lower16:.L__const.SetPowerOut.SendBuf
	movt	r1, :upper16:.L__const.SetPowerOut.SendBuf
	add	r0, sp, #4
	movs	r2, #60
	bl	__aeabi_memcpy
	movs	r0, #0
	.loc	1 923 19                        @ ../Core/Src/processing.c:923:19
	strb.w	r0, [sp, #3]
	.loc	1 924 52                        @ ../Core/Src/processing.c:924:52
	movw	r1, :lower16:USART_Data
	movt	r1, :upper16:USART_Data
	movw	r2, #12384
	add	r1, r2
	strb.w	r0, [r1, #2017]
	.loc	1 925 51                        @ ../Core/Src/processing.c:925:51
	strb.w	r0, [r1, #2016]
	.loc	1 926 52                        @ ../Core/Src/processing.c:926:52
	strb.w	r0, [r1, #2013]
	.loc	1 927 52                        @ ../Core/Src/processing.c:927:52
	strb.w	r0, [r1, #2017]
	.loc	1 928 37                        @ ../Core/Src/processing.c:928:37
	movw	r1, :lower16:SYS_tickTime
	movt	r1, :upper16:SYS_tickTime
	str	r0, [r1, #8]
.Ltmp449:
	.loc	1 930 8                         @ ../Core/Src/processing.c:930:8
	ldrb.w	r0, [sp, #67]
.Ltmp450:
	.loc	1 930 8 is_stmt 0               @ ../Core/Src/processing.c:930:8
	cbnz	r0, .LBB7_2
	b	.LBB7_1
.LBB7_1:
.Ltmp451:
	.loc	1 932 60 is_stmt 1              @ ../Core/Src/processing.c:932:60
	ldrb.w	r0, [sp, #66]
	.loc	1 932 52 is_stmt 0              @ ../Core/Src/processing.c:932:52
	add.w	r1, r0, r0, lsl #2
	add	r0, sp, #4
	add.w	r2, r0, r1, lsl #2
	.loc	1 932 15                        @ ../Core/Src/processing.c:932:15
	movw	r0, :lower16:SetPowerOut.SendstrTrue
	movt	r0, :upper16:SetPowerOut.SendstrTrue
	movw	r1, :lower16:.L.str.19
	movt	r1, :upper16:.L.str.19
	movs	r3, #10
	bl	sprintf
	.loc	1 932 13                        @ ../Core/Src/processing.c:932:13
	strb.w	r0, [sp, #3]
	.loc	1 933 5 is_stmt 1               @ ../Core/Src/processing.c:933:5
	b	.LBB7_3
.Ltmp452:
.LBB7_2:
	.loc	1 0 5 is_stmt 0                 @ ../Core/Src/processing.c:0:5
	add	r0, sp, #4
.Ltmp453:
	.loc	1 936 52 is_stmt 1              @ ../Core/Src/processing.c:936:52
	add.w	r2, r0, #40
	.loc	1 936 15 is_stmt 0              @ ../Core/Src/processing.c:936:15
	movw	r0, :lower16:SetPowerOut.SendstrTrue
	movt	r0, :upper16:SetPowerOut.SendstrTrue
	movw	r1, :lower16:.L.str.19
	movt	r1, :upper16:.L.str.19
	movs	r3, #10
	bl	sprintf
	.loc	1 936 13                        @ ../Core/Src/processing.c:936:13
	strb.w	r0, [sp, #3]
	b	.LBB7_3
.Ltmp454:
.LBB7_3:
	.loc	1 939 59 is_stmt 1              @ ../Core/Src/processing.c:939:59
	ldrb.w	r2, [sp, #3]
	.loc	1 939 5 is_stmt 0               @ ../Core/Src/processing.c:939:5
	movw	r0, :lower16:huart3
	movt	r0, :upper16:huart3
	movw	r1, :lower16:SetPowerOut.SendstrTrue
	movt	r1, :upper16:SetPowerOut.SendstrTrue
	bl	HAL_UART_Transmit_IT
	.loc	1 941 5 is_stmt 1               @ ../Core/Src/processing.c:941:5
	b	.LBB7_4
.LBB7_4:                                @ =>This Inner Loop Header: Depth=1
.Ltmp455:
	.loc	1 943 25                        @ ../Core/Src/processing.c:943:25
	movw	r0, :lower16:SYS_tickTime
	movt	r0, :upper16:SYS_tickTime
	ldr	r0, [r0, #8]
	.loc	1 943 46 is_stmt 0              @ ../Core/Src/processing.c:943:46
	ldrh.w	r1, [sp, #64]
.Ltmp456:
	.loc	1 943 12                        @ ../Core/Src/processing.c:943:12
	cmp	r0, r1
	bls	.LBB7_6
	b	.LBB7_5
.LBB7_5:
.Ltmp457:
	.loc	1 945 23 is_stmt 1              @ ../Core/Src/processing.c:945:23
	movw	r0, :lower16:SetPowerOut.ReturnNum
	movt	r0, :upper16:SetPowerOut.ReturnNum
	movs	r1, #1
	strb	r1, [r0]
	.loc	1 946 13                        @ ../Core/Src/processing.c:946:13
	str	r0, [sp, #68]
	b	.LBB7_18
.Ltmp458:
.LBB7_6:                                @   in Loop: Header=BB7_4 Depth=1
	.loc	1 949 35                        @ ../Core/Src/processing.c:949:35
	movw	r0, :lower16:USART_Data
	movt	r0, :upper16:USART_Data
	mov.w	r1, #14400
	ldrb	r0, [r0, r1]
.Ltmp459:
	.loc	1 949 12 is_stmt 0              @ ../Core/Src/processing.c:949:12
	cmp	r0, #1
	bne	.LBB7_8
	b	.LBB7_7
.LBB7_7:
.Ltmp460:
	.loc	1 951 45 is_stmt 1              @ ../Core/Src/processing.c:951:45
	movw	r1, :lower16:SYS_tickTime
	movt	r1, :upper16:SYS_tickTime
	movs	r0, #0
	str	r0, [r1, #8]
	.loc	1 952 13                        @ ../Core/Src/processing.c:952:13
	b	.LBB7_9
.Ltmp461:
.LBB7_8:                                @   in Loop: Header=BB7_4 Depth=1
	.loc	1 941 5                         @ ../Core/Src/processing.c:941:5
	b	.LBB7_4
.LBB7_9:
.Ltmp462:
	.loc	1 956 8                         @ ../Core/Src/processing.c:956:8
	ldrb.w	r0, [sp, #67]
.Ltmp463:
	.loc	1 956 8 is_stmt 0               @ ../Core/Src/processing.c:956:8
	cbz	r0, .LBB7_17
	b	.LBB7_10
.LBB7_10:
.Ltmp464:
	.loc	1 958 9 is_stmt 1               @ ../Core/Src/processing.c:958:9
	b	.LBB7_11
.LBB7_11:                               @ =>This Inner Loop Header: Depth=1
.Ltmp465:
	.loc	1 960 29                        @ ../Core/Src/processing.c:960:29
	movw	r0, :lower16:SYS_tickTime
	movt	r0, :upper16:SYS_tickTime
	ldr	r0, [r0, #8]
	.loc	1 960 50 is_stmt 0              @ ../Core/Src/processing.c:960:50
	ldrh.w	r1, [sp, #64]
.Ltmp466:
	.loc	1 960 16                        @ ../Core/Src/processing.c:960:16
	cmp	r0, r1
	bls	.LBB7_13
	b	.LBB7_12
.LBB7_12:
.Ltmp467:
	.loc	1 962 27 is_stmt 1              @ ../Core/Src/processing.c:962:27
	movw	r0, :lower16:SetPowerOut.ReturnNum
	movt	r0, :upper16:SetPowerOut.ReturnNum
	movs	r1, #1
	strb	r1, [r0]
	.loc	1 963 17                        @ ../Core/Src/processing.c:963:17
	str	r0, [sp, #68]
	b	.LBB7_18
.Ltmp468:
.LBB7_13:                               @   in Loop: Header=BB7_11 Depth=1
	.loc	1 966 39                        @ ../Core/Src/processing.c:966:39
	movw	r0, :lower16:USART_Data
	movt	r0, :upper16:USART_Data
	movw	r1, #14397
	ldrb	r0, [r0, r1]
.Ltmp469:
	.loc	1 966 16 is_stmt 0              @ ../Core/Src/processing.c:966:16
	cmp	r0, #1
	bne	.LBB7_15
	b	.LBB7_14
.LBB7_14:
.Ltmp470:
	.loc	1 968 17 is_stmt 1              @ ../Core/Src/processing.c:968:17
	b	.LBB7_16
.Ltmp471:
.LBB7_15:                               @   in Loop: Header=BB7_11 Depth=1
	.loc	1 958 9                         @ ../Core/Src/processing.c:958:9
	b	.LBB7_11
.LBB7_16:
	.loc	1 971 5                         @ ../Core/Src/processing.c:971:5
	b	.LBB7_17
.Ltmp472:
.LBB7_17:
	.loc	1 973 15                        @ ../Core/Src/processing.c:973:15
	movw	r0, :lower16:SetPowerOut.ReturnNum
	movt	r0, :upper16:SetPowerOut.ReturnNum
	movs	r1, #0
	strb	r1, [r0]
	.loc	1 974 43                        @ ../Core/Src/processing.c:974:43
	movw	r2, :lower16:USART_Data
	movt	r2, :upper16:USART_Data
	movw	r1, #14804
	add	r1, r2
	vldr	s0, [r1]
	vcvt.s32.f32	s0, s0
	vmov	r1, s0
	movw	r3, #12396
	.loc	1 974 41 is_stmt 0              @ ../Core/Src/processing.c:974:41
	strb	r1, [r2, r3]
	.loc	1 975 5 is_stmt 1               @ ../Core/Src/processing.c:975:5
	str	r0, [sp, #68]
	b	.LBB7_18
.LBB7_18:
	.loc	1 976 1                         @ ../Core/Src/processing.c:976:1
	ldr	r0, [sp, #68]
	add	sp, #72
	pop	{r7, pc}
.Ltmp473:
.Lfunc_end7:
	.size	SetPowerOut, .Lfunc_end7-SetPowerOut
	.cfi_endproc
	.cantunwind
	.fnend
                                        @ -- End function
	.section	.text.SensorTransmit,"ax",%progbits
	.hidden	SensorTransmit                  @ -- Begin function SensorTransmit
	.globl	SensorTransmit
	.p2align	2
	.type	SensorTransmit,%function
	.code	16                              @ @SensorTransmit
	.thumb_func
SensorTransmit:
.Lfunc_begin8:
	.loc	1 981 0                         @ ../Core/Src/processing.c:981:0
	.fnstart
	.cfi_startproc
@ %bb.0:
	.save	{r7, lr}
	push	{r7, lr}
	.cfi_def_cfa_offset 8
	.cfi_offset lr, -4
	.cfi_offset r7, -8
	.pad	#16
	sub	sp, #16
	.cfi_def_cfa_offset 24
                                        @ kill: def $r2 killed $r1
	str	r0, [sp, #8]
	strh.w	r1, [sp, #6]
	movs	r0, #0
.Ltmp474:
	.loc	1 985 19 prologue_end           @ ../Core/Src/processing.c:985:19
	strb.w	r0, [sp, #5]
	.loc	1 986 52                        @ ../Core/Src/processing.c:986:52
	movw	r1, :lower16:USART_Data
	movt	r1, :upper16:USART_Data
	movw	r2, #14884
	adds	r3, r1, r2
	strb	r0, [r3, #1]
	.loc	1 987 51                        @ ../Core/Src/processing.c:987:51
	strb	r0, [r1, r2]
	.loc	1 988 37                        @ ../Core/Src/processing.c:988:37
	movw	r1, :lower16:SYS_tickTime
	movt	r1, :upper16:SYS_tickTime
	str	r0, [r1, #8]
	.loc	1 990 47                        @ ../Core/Src/processing.c:990:47
	ldr	r2, [sp, #8]
	.loc	1 990 11 is_stmt 0              @ ../Core/Src/processing.c:990:11
	movw	r0, :lower16:SensorTransmit.StringTrue
	movt	r0, :upper16:SensorTransmit.StringTrue
	str	r0, [sp]                        @ 4-byte Spill
	movw	r1, :lower16:.L.str.19
	movt	r1, :upper16:.L.str.19
	movs	r3, #10
	bl	sprintf
	ldr	r1, [sp]                        @ 4-byte Reload
	.loc	1 990 9                         @ ../Core/Src/processing.c:990:9
	strb.w	r0, [sp, #5]
	.loc	1 991 59 is_stmt 1              @ ../Core/Src/processing.c:991:59
	ldrb.w	r2, [sp, #5]
	.loc	1 991 5 is_stmt 0               @ ../Core/Src/processing.c:991:5
	movw	r0, :lower16:huart4
	movt	r0, :upper16:huart4
	bl	HAL_UART_Transmit_IT
	.loc	1 993 5 is_stmt 1               @ ../Core/Src/processing.c:993:5
	b	.LBB8_1
.LBB8_1:                                @ =>This Inner Loop Header: Depth=1
.Ltmp475:
	.loc	1 995 25                        @ ../Core/Src/processing.c:995:25
	movw	r0, :lower16:SYS_tickTime
	movt	r0, :upper16:SYS_tickTime
	ldr	r0, [r0, #8]
	.loc	1 995 46 is_stmt 0              @ ../Core/Src/processing.c:995:46
	ldrh.w	r1, [sp, #6]
.Ltmp476:
	.loc	1 995 12                        @ ../Core/Src/processing.c:995:12
	cmp	r0, r1
	bls	.LBB8_3
	b	.LBB8_2
.LBB8_2:
.Ltmp477:
	.loc	1 997 23 is_stmt 1              @ ../Core/Src/processing.c:997:23
	movw	r0, :lower16:SensorTransmit.ReturnNum
	movt	r0, :upper16:SensorTransmit.ReturnNum
	movs	r1, #1
	strb	r1, [r0]
	.loc	1 998 13                        @ ../Core/Src/processing.c:998:13
	str	r0, [sp, #12]
	b	.LBB8_13
.Ltmp478:
.LBB8_3:                                @   in Loop: Header=BB8_1 Depth=1
	.loc	1 1001 35                       @ ../Core/Src/processing.c:1001:35
	movw	r0, :lower16:USART_Data
	movt	r0, :upper16:USART_Data
	movw	r1, #14884
	ldrb	r0, [r0, r1]
.Ltmp479:
	.loc	1 1001 12 is_stmt 0             @ ../Core/Src/processing.c:1001:12
	cmp	r0, #1
	bne	.LBB8_5
	b	.LBB8_4
.LBB8_4:
.Ltmp480:
	.loc	1 1003 45 is_stmt 1             @ ../Core/Src/processing.c:1003:45
	movw	r1, :lower16:SYS_tickTime
	movt	r1, :upper16:SYS_tickTime
	movs	r0, #0
	str	r0, [r1, #8]
	.loc	1 1004 13                       @ ../Core/Src/processing.c:1004:13
	b	.LBB8_6
.Ltmp481:
.LBB8_5:                                @   in Loop: Header=BB8_1 Depth=1
	.loc	1 993 5                         @ ../Core/Src/processing.c:993:5
	b	.LBB8_1
.LBB8_6:
	.loc	1 1008 5                        @ ../Core/Src/processing.c:1008:5
	b	.LBB8_7
.LBB8_7:                                @ =>This Inner Loop Header: Depth=1
.Ltmp482:
	.loc	1 1010 25                       @ ../Core/Src/processing.c:1010:25
	movw	r0, :lower16:SYS_tickTime
	movt	r0, :upper16:SYS_tickTime
	ldr	r0, [r0, #8]
	.loc	1 1010 46 is_stmt 0             @ ../Core/Src/processing.c:1010:46
	ldrh.w	r1, [sp, #6]
.Ltmp483:
	.loc	1 1010 12                       @ ../Core/Src/processing.c:1010:12
	cmp	r0, r1
	bls	.LBB8_9
	b	.LBB8_8
.LBB8_8:
.Ltmp484:
	.loc	1 1012 23 is_stmt 1             @ ../Core/Src/processing.c:1012:23
	movw	r0, :lower16:SensorTransmit.ReturnNum
	movt	r0, :upper16:SensorTransmit.ReturnNum
	movs	r1, #1
	strb	r1, [r0]
	.loc	1 1013 13                       @ ../Core/Src/processing.c:1013:13
	str	r0, [sp, #12]
	b	.LBB8_13
.Ltmp485:
.LBB8_9:                                @   in Loop: Header=BB8_7 Depth=1
	.loc	1 1016 35                       @ ../Core/Src/processing.c:1016:35
	movw	r0, :lower16:USART_Data
	movt	r0, :upper16:USART_Data
	movw	r1, #14885
	ldrb	r0, [r0, r1]
.Ltmp486:
	.loc	1 1016 12 is_stmt 0             @ ../Core/Src/processing.c:1016:12
	cmp	r0, #1
	bne	.LBB8_11
	b	.LBB8_10
.LBB8_10:
.Ltmp487:
	.loc	1 1018 13 is_stmt 1             @ ../Core/Src/processing.c:1018:13
	b	.LBB8_12
.Ltmp488:
.LBB8_11:                               @   in Loop: Header=BB8_7 Depth=1
	.loc	1 1008 5                        @ ../Core/Src/processing.c:1008:5
	b	.LBB8_7
.LBB8_12:
	.loc	1 1022 15                       @ ../Core/Src/processing.c:1022:15
	movw	r0, :lower16:SensorTransmit.ReturnNum
	movt	r0, :upper16:SensorTransmit.ReturnNum
	movs	r1, #0
	strb	r1, [r0]
	.loc	1 1023 5                        @ ../Core/Src/processing.c:1023:5
	str	r0, [sp, #12]
	b	.LBB8_13
.LBB8_13:
	.loc	1 1025 1                        @ ../Core/Src/processing.c:1025:1
	ldr	r0, [sp, #12]
	add	sp, #16
	pop	{r7, pc}
.Ltmp489:
.Lfunc_end8:
	.size	SensorTransmit, .Lfunc_end8-SensorTransmit
	.cfi_endproc
	.cantunwind
	.fnend
                                        @ -- End function
	.section	.text.ScreenTransmit,"ax",%progbits
	.hidden	ScreenTransmit                  @ -- Begin function ScreenTransmit
	.globl	ScreenTransmit
	.p2align	2
	.type	ScreenTransmit,%function
	.code	16                              @ @ScreenTransmit
	.thumb_func
ScreenTransmit:
.Lfunc_begin9:
	.loc	1 1028 0                        @ ../Core/Src/processing.c:1028:0
	.fnstart
	.cfi_startproc
@ %bb.0:
	.save	{r7, lr}
	push	{r7, lr}
	.cfi_def_cfa_offset 8
	.cfi_offset lr, -4
	.cfi_offset r7, -8
	.pad	#248
	sub	sp, #248
	.cfi_def_cfa_offset 256
                                        @ kill: def $r12 killed $r3
                                        @ kill: def $r12 killed $r2
	str	r0, [sp, #240]
	str	r1, [sp, #236]
	strb.w	r2, [sp, #235]
	strh.w	r3, [sp, #232]
	movs	r0, #0
.Ltmp490:
	.loc	1 1031 24 prologue_end          @ ../Core/Src/processing.c:1031:24
	str	r0, [sp, #16]                   @ 4-byte Spill
	strh.w	r0, [sp, #230]
	.loc	1 1031 39 is_stmt 0             @ ../Core/Src/processing.c:1031:39
	strh.w	r0, [sp, #228]
	add	r0, sp, #24
	movs	r1, #204
	.loc	1 1032 19 is_stmt 1             @ ../Core/Src/processing.c:1032:19
	bl	__aeabi_memclr
	ldr	r0, [sp, #16]                   @ 4-byte Reload
	.loc	1 1034 37                       @ ../Core/Src/processing.c:1034:37
	movw	r1, :lower16:SYS_tickTime
	movt	r1, :upper16:SYS_tickTime
	str	r0, [r1, #8]
	.loc	1 1035 5                        @ ../Core/Src/processing.c:1035:5
	ldr	r1, [sp, #240]
	movw	r2, #11378
	.loc	1 1035 46 is_stmt 0             @ ../Core/Src/processing.c:1035:46
	strb	r0, [r1, r2]
	.loc	1 1037 15 is_stmt 1             @ ../Core/Src/processing.c:1037:15
	movw	r1, :lower16:ScreenTransmit.StringTrue
	movt	r1, :upper16:ScreenTransmit.StringTrue
	strb	r0, [r1]
.Ltmp491:
	.loc	1 1039 23                       @ ../Core/Src/processing.c:1039:23
	strb.w	r0, [sp, #23]
	.loc	1 1039 9 is_stmt 0              @ ../Core/Src/processing.c:1039:9
	b	.LBB9_1
.LBB9_1:                                @ =>This Inner Loop Header: Depth=1
.Ltmp492:
	.loc	1 1039 30                       @ ../Core/Src/processing.c:1039:30
	ldrb.w	r0, [sp, #23]
	.loc	1 1039 34                       @ ../Core/Src/processing.c:1039:34
	ldrb.w	r1, [sp, #235]
.Ltmp493:
	.loc	1 1039 5                        @ ../Core/Src/processing.c:1039:5
	cmp	r0, r1
	bge	.LBB9_4
	b	.LBB9_2
.LBB9_2:                                @   in Loop: Header=BB9_1 Depth=1
.Ltmp494:
	.loc	1 1041 63 is_stmt 1             @ ../Core/Src/processing.c:1041:63
	ldr	r2, [sp, #236]
	.loc	1 1041 67 is_stmt 0             @ ../Core/Src/processing.c:1041:67
	ldrb.w	r0, [sp, #23]
	movs	r1, #200
	.loc	1 1041 63                       @ ../Core/Src/processing.c:1041:63
	smlabb	r2, r0, r1, r2
	.loc	1 1041 24                       @ ../Core/Src/processing.c:1041:24
	mov	r0, sp
	movs	r3, #255
	str	r3, [r0, #4]
	str	r3, [r0]
	movw	r1, :lower16:.L.str.21
	movt	r1, :upper16:.L.str.21
	add	r0, sp, #24
	str	r0, [sp, #12]                   @ 4-byte Spill
	bl	sprintf
	ldr	r1, [sp, #12]                   @ 4-byte Reload
	.loc	1 1041 22                       @ ../Core/Src/processing.c:1041:22
	strh.w	r0, [sp, #228]
	.loc	1 1043 21 is_stmt 1             @ ../Core/Src/processing.c:1043:21
	ldrh.w	r0, [sp, #228]
	.loc	1 1043 36 is_stmt 0             @ ../Core/Src/processing.c:1043:36
	ldrh.w	r2, [sp, #230]
	.loc	1 1043 34                       @ ../Core/Src/processing.c:1043:34
	add	r0, r2
	.loc	1 1043 19                       @ ../Core/Src/processing.c:1043:19
	strh.w	r0, [sp, #230]
	.loc	1 1044 9 is_stmt 1              @ ../Core/Src/processing.c:1044:9
	movw	r0, :lower16:ScreenTransmit.StringTrue
	movt	r0, :upper16:ScreenTransmit.StringTrue
	bl	strcat
	.loc	1 1045 5                        @ ../Core/Src/processing.c:1045:5
	b	.LBB9_3
.Ltmp495:
.LBB9_3:                                @   in Loop: Header=BB9_1 Depth=1
	.loc	1 1039 42                       @ ../Core/Src/processing.c:1039:42
	ldrb.w	r0, [sp, #23]
	adds	r0, #1
	strb.w	r0, [sp, #23]
	.loc	1 1039 5 is_stmt 0              @ ../Core/Src/processing.c:1039:5
	b	.LBB9_1
.Ltmp496:
.LBB9_4:
	.loc	1 1047 59 is_stmt 1             @ ../Core/Src/processing.c:1047:59
	ldrh.w	r2, [sp, #230]
	.loc	1 1047 5 is_stmt 0              @ ../Core/Src/processing.c:1047:5
	movw	r0, :lower16:huart1
	movt	r0, :upper16:huart1
	movw	r1, :lower16:ScreenTransmit.StringTrue
	movt	r1, :upper16:ScreenTransmit.StringTrue
	bl	HAL_UART_Transmit_IT
	.loc	1 1049 5 is_stmt 1              @ ../Core/Src/processing.c:1049:5
	b	.LBB9_5
.LBB9_5:                                @ =>This Inner Loop Header: Depth=1
.Ltmp497:
	.loc	1 1051 25                       @ ../Core/Src/processing.c:1051:25
	movw	r0, :lower16:SYS_tickTime
	movt	r0, :upper16:SYS_tickTime
	ldr	r0, [r0, #8]
	.loc	1 1051 46 is_stmt 0             @ ../Core/Src/processing.c:1051:46
	ldrh.w	r1, [sp, #232]
.Ltmp498:
	.loc	1 1051 12                       @ ../Core/Src/processing.c:1051:12
	cmp	r0, r1
	bls	.LBB9_7
	b	.LBB9_6
.LBB9_6:
.Ltmp499:
	.loc	1 1053 23 is_stmt 1             @ ../Core/Src/processing.c:1053:23
	movw	r0, :lower16:ScreenTransmit.ReturnNum
	movt	r0, :upper16:ScreenTransmit.ReturnNum
	movs	r1, #1
	strb	r1, [r0]
	.loc	1 1054 13                       @ ../Core/Src/processing.c:1054:13
	str	r0, [sp, #244]
	b	.LBB9_11
.Ltmp500:
.LBB9_7:                                @   in Loop: Header=BB9_5 Depth=1
	.loc	1 1057 12                       @ ../Core/Src/processing.c:1057:12
	ldr	r0, [sp, #240]
	movw	r1, #11378
	.loc	1 1057 30 is_stmt 0             @ ../Core/Src/processing.c:1057:30
	ldrb	r0, [r0, r1]
.Ltmp501:
	.loc	1 1057 12                       @ ../Core/Src/processing.c:1057:12
	cmp	r0, #1
	bne	.LBB9_9
	b	.LBB9_8
.LBB9_8:
.Ltmp502:
	.loc	1 1059 45 is_stmt 1             @ ../Core/Src/processing.c:1059:45
	movw	r1, :lower16:SYS_tickTime
	movt	r1, :upper16:SYS_tickTime
	movs	r0, #0
	str	r0, [r1, #8]
	.loc	1 1060 13                       @ ../Core/Src/processing.c:1060:13
	b	.LBB9_10
.Ltmp503:
.LBB9_9:                                @   in Loop: Header=BB9_5 Depth=1
	.loc	1 1049 5                        @ ../Core/Src/processing.c:1049:5
	b	.LBB9_5
.LBB9_10:
	.loc	1 1064 15                       @ ../Core/Src/processing.c:1064:15
	movw	r0, :lower16:ScreenTransmit.ReturnNum
	movt	r0, :upper16:ScreenTransmit.ReturnNum
	movs	r1, #0
	strb	r1, [r0]
	.loc	1 1065 5                        @ ../Core/Src/processing.c:1065:5
	str	r0, [sp, #244]
	b	.LBB9_11
.LBB9_11:
	.loc	1 1066 1                        @ ../Core/Src/processing.c:1066:1
	ldr	r0, [sp, #244]
	add	sp, #248
	pop	{r7, pc}
.Ltmp504:
.Lfunc_end9:
	.size	ScreenTransmit, .Lfunc_end9-ScreenTransmit
	.cfi_endproc
	.cantunwind
	.fnend
                                        @ -- End function
	.section	.text.StringChangeLine,"ax",%progbits
	.hidden	StringChangeLine                @ -- Begin function StringChangeLine
	.globl	StringChangeLine
	.p2align	2
	.type	StringChangeLine,%function
	.code	16                              @ @StringChangeLine
	.thumb_func
StringChangeLine:
.Lfunc_begin10:
	.loc	1 1071 0                        @ ../Core/Src/processing.c:1071:0
	.fnstart
	.cfi_startproc
@ %bb.0:
	.save	{r7, lr}
	push	{r7, lr}
	.cfi_def_cfa_offset 8
	.cfi_offset lr, -4
	.cfi_offset r7, -8
	.pad	#24
	sub	sp, #24
	.cfi_def_cfa_offset 32
                                        @ kill: def $r12 killed $r3
	str	r0, [sp, #20]
	str	r1, [sp, #16]
	str	r2, [sp, #12]
	strb.w	r3, [sp, #11]
	movs	r0, #0
.Ltmp505:
	.loc	1 1072 10 prologue_end          @ ../Core/Src/processing.c:1072:10
	strb.w	r0, [sp, #10]
.Ltmp506:
	.loc	1 1074 24                       @ ../Core/Src/processing.c:1074:24
	strb.w	r0, [sp, #9]
	.loc	1 1074 44 is_stmt 0             @ ../Core/Src/processing.c:1074:44
	ldr	r0, [sp, #16]
	.loc	1 1074 37                       @ ../Core/Src/processing.c:1074:37
	bl	strlen
	.loc	1 1074 31                       @ ../Core/Src/processing.c:1074:31
	strb.w	r0, [sp, #8]
	.loc	1 1074 9                        @ ../Core/Src/processing.c:1074:9
	b	.LBB10_1
.LBB10_1:                               @ =>This Inner Loop Header: Depth=1
.Ltmp507:
	.loc	1 1074 50                       @ ../Core/Src/processing.c:1074:50
	ldrb.w	r0, [sp, #9]
	.loc	1 1074 54                       @ ../Core/Src/processing.c:1074:54
	ldrb.w	r1, [sp, #8]
.Ltmp508:
	.loc	1 1074 5                        @ ../Core/Src/processing.c:1074:5
	cmp	r0, r1
	bge	.LBB10_4
	b	.LBB10_2
.LBB10_2:                               @   in Loop: Header=BB10_1 Depth=1
.Ltmp509:
	.loc	1 1076 24 is_stmt 1             @ ../Core/Src/processing.c:1076:24
	ldr	r0, [sp, #16]
	.loc	1 1076 28 is_stmt 0             @ ../Core/Src/processing.c:1076:28
	ldrb.w	r2, [sp, #9]
	.loc	1 1076 24                       @ ../Core/Src/processing.c:1076:24
	ldrb	r0, [r0, r2]
	.loc	1 1076 9                        @ ../Core/Src/processing.c:1076:9
	ldr	r1, [sp, #20]
	.loc	1 1076 22                       @ ../Core/Src/processing.c:1076:22
	strb	r0, [r1, r2]
	.loc	1 1077 3 is_stmt 1              @ ../Core/Src/processing.c:1077:3
	ldr	r1, [sp, #20]
	.loc	1 1077 13 is_stmt 0             @ ../Core/Src/processing.c:1077:13
	ldrb.w	r0, [sp, #9]
	.loc	1 1077 14                       @ ../Core/Src/processing.c:1077:14
	add	r1, r0
	movs	r0, #0
	.loc	1 1077 18                       @ ../Core/Src/processing.c:1077:18
	strb	r0, [r1, #1]
	.loc	1 1078 5 is_stmt 1              @ ../Core/Src/processing.c:1078:5
	b	.LBB10_3
.Ltmp510:
.LBB10_3:                               @   in Loop: Header=BB10_1 Depth=1
	.loc	1 1074 60                       @ ../Core/Src/processing.c:1074:60
	ldrb.w	r0, [sp, #9]
	adds	r0, #1
	strb.w	r0, [sp, #9]
	.loc	1 1074 5 is_stmt 0              @ ../Core/Src/processing.c:1074:5
	b	.LBB10_1
.Ltmp511:
.LBB10_4:
	.loc	1 1080 8 is_stmt 1              @ ../Core/Src/processing.c:1080:8
	ldrb.w	r0, [sp, #11]
.Ltmp512:
	.loc	1 1080 8 is_stmt 0              @ ../Core/Src/processing.c:1080:8
	cbnz	r0, .LBB10_8
	b	.LBB10_5
.LBB10_5:
.Ltmp513:
	.loc	1 1082 12 is_stmt 1             @ ../Core/Src/processing.c:1082:12
	ldr	r0, [sp, #12]
	ldrb	r0, [r0]
.Ltmp514:
	.loc	1 1082 12 is_stmt 0             @ ../Core/Src/processing.c:1082:12
	cmp	r0, #32
	beq	.LBB10_7
	b	.LBB10_6
.LBB10_6:
.Ltmp515:
	.loc	1 1084 20 is_stmt 1             @ ../Core/Src/processing.c:1084:20
	ldr	r0, [sp, #20]
	.loc	1 1084 31 is_stmt 0             @ ../Core/Src/processing.c:1084:31
	ldr	r1, [sp, #12]
	.loc	1 1084 13                       @ ../Core/Src/processing.c:1084:13
	bl	strcat
	.loc	1 1085 9 is_stmt 1              @ ../Core/Src/processing.c:1085:9
	b	.LBB10_7
.Ltmp516:
.LBB10_7:
	.loc	1 1086 5                        @ ../Core/Src/processing.c:1086:5
	b	.LBB10_17
.Ltmp517:
.LBB10_8:
	.loc	1 1087 13                       @ ../Core/Src/processing.c:1087:13
	ldrb.w	r0, [sp, #11]
.Ltmp518:
	.loc	1 1087 13 is_stmt 0             @ ../Core/Src/processing.c:1087:13
	cmp	r0, #1
	bne	.LBB10_16
	b	.LBB10_9
.LBB10_9:
.Ltmp519:
	.loc	1 1089 12 is_stmt 1             @ ../Core/Src/processing.c:1089:12
	ldr	r0, [sp, #12]
	ldrb	r0, [r0]
.Ltmp520:
	.loc	1 1089 12 is_stmt 0             @ ../Core/Src/processing.c:1089:12
	cmp	r0, #32
	beq	.LBB10_11
	b	.LBB10_10
.LBB10_10:
.Ltmp521:
	.loc	1 1091 13 is_stmt 1             @ ../Core/Src/processing.c:1091:13
	movw	r1, :lower16:.L.str.22
	movt	r1, :upper16:.L.str.22
	add.w	r0, sp, #10
	str	r0, [sp, #4]                    @ 4-byte Spill
	movs	r2, #34
	bl	sprintf
	ldr	r1, [sp, #4]                    @ 4-byte Reload
	.loc	1 1092 20                       @ ../Core/Src/processing.c:1092:20
	ldr	r0, [sp, #20]
	.loc	1 1092 13 is_stmt 0             @ ../Core/Src/processing.c:1092:13
	bl	strcat
	.loc	1 1093 20 is_stmt 1             @ ../Core/Src/processing.c:1093:20
	ldr	r0, [sp, #20]
	.loc	1 1093 31 is_stmt 0             @ ../Core/Src/processing.c:1093:31
	ldr	r1, [sp, #12]
	.loc	1 1093 13                       @ ../Core/Src/processing.c:1093:13
	bl	strcat
	ldr	r1, [sp, #4]                    @ 4-byte Reload
	.loc	1 1094 20 is_stmt 1             @ ../Core/Src/processing.c:1094:20
	ldr	r0, [sp, #20]
	.loc	1 1094 13 is_stmt 0             @ ../Core/Src/processing.c:1094:13
	bl	strcat
	.loc	1 1095 9 is_stmt 1              @ ../Core/Src/processing.c:1095:9
	b	.LBB10_15
.Ltmp522:
.LBB10_11:
	.loc	1 1096 17                       @ ../Core/Src/processing.c:1096:17
	ldr	r0, [sp, #12]
	ldrb	r0, [r0]
	.loc	1 1096 31 is_stmt 0             @ ../Core/Src/processing.c:1096:31
	cmp	r0, #32
	bne	.LBB10_14
	b	.LBB10_12
.LBB10_12:
	.loc	1 1096 34                       @ ../Core/Src/processing.c:1096:34
	ldr	r0, [sp, #12]
	ldrb	r0, [r0, #1]
.Ltmp523:
	.loc	1 1096 17                       @ ../Core/Src/processing.c:1096:17
	cmp	r0, #32
	bne	.LBB10_14
	b	.LBB10_13
.LBB10_13:
.Ltmp524:
	.loc	1 1098 13 is_stmt 1             @ ../Core/Src/processing.c:1098:13
	movw	r1, :lower16:.L.str.22
	movt	r1, :upper16:.L.str.22
	add.w	r0, sp, #10
	str	r0, [sp]                        @ 4-byte Spill
	movs	r2, #34
	bl	sprintf
	ldr	r1, [sp]                        @ 4-byte Reload
	.loc	1 1099 20                       @ ../Core/Src/processing.c:1099:20
	ldr	r0, [sp, #20]
	.loc	1 1099 13 is_stmt 0             @ ../Core/Src/processing.c:1099:13
	bl	strcat
	.loc	1 1100 20 is_stmt 1             @ ../Core/Src/processing.c:1100:20
	ldr	r0, [sp, #20]
	.loc	1 1100 13 is_stmt 0             @ ../Core/Src/processing.c:1100:13
	movw	r1, :lower16:.L.str.23
	movt	r1, :upper16:.L.str.23
	bl	strcat
	ldr	r1, [sp]                        @ 4-byte Reload
	.loc	1 1101 20 is_stmt 1             @ ../Core/Src/processing.c:1101:20
	ldr	r0, [sp, #20]
	.loc	1 1101 13 is_stmt 0             @ ../Core/Src/processing.c:1101:13
	bl	strcat
	.loc	1 1102 9 is_stmt 1              @ ../Core/Src/processing.c:1102:9
	b	.LBB10_14
.Ltmp525:
.LBB10_14:
	.loc	1 0 9 is_stmt 0                 @ ../Core/Src/processing.c:0:9
	b	.LBB10_15
.LBB10_15:
	.loc	1 1103 5 is_stmt 1              @ ../Core/Src/processing.c:1103:5
	b	.LBB10_16
.Ltmp526:
.LBB10_16:
	.loc	1 0 5 is_stmt 0                 @ ../Core/Src/processing.c:0:5
	b	.LBB10_17
.LBB10_17:
	.loc	1 1105 1 is_stmt 1              @ ../Core/Src/processing.c:1105:1
	add	sp, #24
	pop	{r7, pc}
.Ltmp527:
.Lfunc_end10:
	.size	StringChangeLine, .Lfunc_end10-StringChangeLine
	.cfi_endproc
	.cantunwind
	.fnend
                                        @ -- End function
	.section	.text.PWMSetCurrent,"ax",%progbits
	.hidden	PWMSetCurrent                   @ -- Begin function PWMSetCurrent
	.globl	PWMSetCurrent
	.p2align	2
	.type	PWMSetCurrent,%function
	.code	16                              @ @PWMSetCurrent
	.thumb_func
PWMSetCurrent:
.Lfunc_begin11:
	.loc	1 1108 0                        @ ../Core/Src/processing.c:1108:0
	.fnstart
	.cfi_startproc
@ %bb.0:
	.pad	#8
	sub	sp, #8
	.cfi_def_cfa_offset 8
                                        @ kill: def $r2 killed $r1
                                        @ kill: def $r2 killed $r0
	strb.w	r0, [sp, #7]
	strh.w	r1, [sp, #4]
	movs	r0, #0
.Ltmp528:
	.loc	1 1109 11 prologue_end          @ ../Core/Src/processing.c:1109:11
	str	r0, [sp]
.Ltmp529:
	.loc	1 1110 8                        @ ../Core/Src/processing.c:1110:8
	ldrb.w	r0, [sp, #7]
.Ltmp530:
	.loc	1 1110 8 is_stmt 0              @ ../Core/Src/processing.c:1110:8
	cbz	r0, .LBB11_2
	b	.LBB11_1
.LBB11_1:
.Ltmp531:
	.loc	1 1112 17 is_stmt 1             @ ../Core/Src/processing.c:1112:17
	ldrh.w	r0, [sp, #4]
	vmov	s0, r0
	vcvt.f32.s32	s0, s0
	.loc	1 1112 44 is_stmt 0             @ ../Core/Src/processing.c:1112:44
	movw	r0, :lower16:comVariableBlock
	movt	r0, :upper16:comVariableBlock
	.loc	1 1112 83                       @ ../Core/Src/processing.c:1112:83
	vldr	s2, [r0, #816]
	.loc	1 1112 44                       @ ../Core/Src/processing.c:1112:44
	vldr	s4, [r0, #820]
	.loc	1 1112 25                       @ ../Core/Src/processing.c:1112:25
	vsub.f32	s0, s0, s4
	.loc	1 1112 63                       @ ../Core/Src/processing.c:1112:63
	vdiv.f32	s0, s0, s2
	.loc	1 1112 14                       @ ../Core/Src/processing.c:1112:14
	vstr	s0, [sp]
	.loc	1 1113 32 is_stmt 1             @ ../Core/Src/processing.c:1113:32
	vldr	s0, [sp]
	.loc	1 1113 15 is_stmt 0             @ ../Core/Src/processing.c:1113:15
	movw	r0, :lower16:htim2
	movt	r0, :upper16:htim2
	ldr	r0, [r0]
	.loc	1 1113 30                       @ ../Core/Src/processing.c:1113:30
	vcvt.u32.f32	s0, s0
	vstr	s0, [r0, #60]
	.loc	1 1114 5 is_stmt 1              @ ../Core/Src/processing.c:1114:5
	b	.LBB11_3
.Ltmp532:
.LBB11_2:
	.loc	1 1117 17                       @ ../Core/Src/processing.c:1117:17
	ldrh.w	r0, [sp, #4]
	vmov	s0, r0
	vcvt.f32.s32	s0, s0
	.loc	1 1117 43 is_stmt 0             @ ../Core/Src/processing.c:1117:43
	movw	r0, :lower16:comVariableBlock
	movt	r0, :upper16:comVariableBlock
	.loc	1 1117 82                       @ ../Core/Src/processing.c:1117:82
	vldr	s2, [r0, #808]
	.loc	1 1117 43                       @ ../Core/Src/processing.c:1117:43
	vldr	s4, [r0, #812]
	.loc	1 1117 25                       @ ../Core/Src/processing.c:1117:25
	vsub.f32	s0, s0, s4
	.loc	1 1117 62                       @ ../Core/Src/processing.c:1117:62
	vdiv.f32	s0, s0, s2
	.loc	1 1117 14                       @ ../Core/Src/processing.c:1117:14
	vstr	s0, [sp]
	.loc	1 1118 32 is_stmt 1             @ ../Core/Src/processing.c:1118:32
	vldr	s0, [sp]
	.loc	1 1118 15 is_stmt 0             @ ../Core/Src/processing.c:1118:15
	movw	r0, :lower16:htim9
	movt	r0, :upper16:htim9
	ldr	r0, [r0]
	.loc	1 1118 30                       @ ../Core/Src/processing.c:1118:30
	vcvt.u32.f32	s0, s0
	vstr	s0, [r0, #56]
	b	.LBB11_3
.Ltmp533:
.LBB11_3:
	.loc	1 1132 1 is_stmt 1              @ ../Core/Src/processing.c:1132:1
	add	sp, #8
	bx	lr
.Ltmp534:
.Lfunc_end11:
	.size	PWMSetCurrent, .Lfunc_end11-PWMSetCurrent
	.cfi_endproc
	.cantunwind
	.fnend
                                        @ -- End function
	.section	.text.OutWindowsTxt2,"ax",%progbits
	.hidden	OutWindowsTxt2                  @ -- Begin function OutWindowsTxt2
	.globl	OutWindowsTxt2
	.p2align	2
	.type	OutWindowsTxt2,%function
	.code	16                              @ @OutWindowsTxt2
	.thumb_func
OutWindowsTxt2:
.Lfunc_begin12:
	.loc	1 1143 0                        @ ../Core/Src/processing.c:1143:0
	.fnstart
	.cfi_startproc
@ %bb.0:
	.save	{r7, lr}
	push	{r7, lr}
	.cfi_def_cfa_offset 8
	.cfi_offset lr, -4
	.cfi_offset r7, -8
	.pad	#64
	sub	sp, #64
	.cfi_def_cfa_offset 72
                                        @ kill: def $r12 killed $r3
                                        @ kill: def $r12 killed $r2
                                        @ kill: def $r12 killed $r1
	str	r0, [sp, #56]
	strb.w	r1, [sp, #55]
	strb.w	r2, [sp, #54]
	strh.w	r3, [sp, #52]
	movs	r0, #0
.Ltmp535:
	.loc	1 1152 24 prologue_end          @ ../Core/Src/processing.c:1152:24
	strh.w	r0, [sp, #50]
.Ltmp536:
	.loc	1 1155 8                        @ ../Core/Src/processing.c:1155:8
	ldrb.w	r0, [sp, #54]
.Ltmp537:
	.loc	1 1155 8 is_stmt 0              @ ../Core/Src/processing.c:1155:8
	cbz	r0, .LBB12_2
	b	.LBB12_1
.LBB12_1:
.Ltmp538:
	.loc	1 1157 23 is_stmt 1             @ ../Core/Src/processing.c:1157:23
	movw	r1, :lower16:OutWindowsTxt2.OutWindowsTxtBuf1
	movt	r1, :upper16:OutWindowsTxt2.OutWindowsTxtBuf1
	movs	r0, #0
	strb	r0, [r1]
	.loc	1 1158 23                       @ ../Core/Src/processing.c:1158:23
	movw	r1, :lower16:OutWindowsTxt2.OutWindowsTxtBuf2
	movt	r1, :upper16:OutWindowsTxt2.OutWindowsTxtBuf2
	strb	r0, [r1]
	.loc	1 1159 23                       @ ../Core/Src/processing.c:1159:23
	movw	r1, :lower16:OutWindowsTxt2.OutWindowsTxtSend
	movt	r1, :upper16:OutWindowsTxt2.OutWindowsTxtSend
	strb	r0, [r1]
	.loc	1 1160 11                       @ ../Core/Src/processing.c:1160:11
	movw	r1, :lower16:OutWindowsTxt2.i
	movt	r1, :upper16:OutWindowsTxt2.i
	strb	r0, [r1]
	.loc	1 1161 15                       @ ../Core/Src/processing.c:1161:15
	movw	r1, :lower16:OutWindowsTxt2.Val_y
	movt	r1, :upper16:OutWindowsTxt2.Val_y
	strh	r0, [r1]
	.loc	1 1162 5                        @ ../Core/Src/processing.c:1162:5
	b	.LBB12_2
.Ltmp539:
.LBB12_2:
	.loc	1 1164 30                       @ ../Core/Src/processing.c:1164:30
	movw	r0, :lower16:OutWindowsTxt2.i
	movt	r0, :upper16:OutWindowsTxt2.i
	ldrb	r0, [r0]
	vmov	s0, r0
	vcvt.f32.s32	s0, s0
	.loc	1 1164 49 is_stmt 0             @ ../Core/Src/processing.c:1164:49
	movw	r0, :lower16:comVariableBlock
	movt	r0, :upper16:comVariableBlock
	vldr	s2, [r0, #800]
	.loc	1 1164 68                       @ ../Core/Src/processing.c:1164:68
	vmul.f32	s0, s0, s2
	vmov.f32	s2, #5.000000e-01
	vadd.f32	s0, s0, s2
	.loc	1 1164 30                       @ ../Core/Src/processing.c:1164:30
	vcvt.s32.f32	s0, s0
	vmov	r1, s0
	.loc	1 1164 28                       @ ../Core/Src/processing.c:1164:28
	strb.w	r1, [r0, #796]
.Ltmp540:
	.loc	1 1165 22 is_stmt 1             @ ../Core/Src/processing.c:1165:22
	ldrb.w	r0, [r0, #796]
	.loc	1 1165 5 is_stmt 0              @ ../Core/Src/processing.c:1165:5
	vmov	s0, r0
	vcvt.f32.s32	s0, s0
	vldr	s2, .LCPI12_0
.Ltmp541:
	.loc	1 1165 5                        @ ../Core/Src/processing.c:1165:5
	vcmp.f32	s0, s2
	vmrs	APSR_nzcv, fpscr
	ble	.LBB12_4
	b	.LBB12_3
.LBB12_3:
.Ltmp542:
	.loc	1 1167 29 is_stmt 1             @ ../Core/Src/processing.c:1167:29
	movw	r1, :lower16:comVariableBlock
	movt	r1, :upper16:comVariableBlock
	movs	r0, #100
	strb.w	r0, [r1, #796]
	.loc	1 1168 2                        @ ../Core/Src/processing.c:1168:2
	b	.LBB12_4
.Ltmp543:
.LBB12_4:
	.loc	1 1169 22                       @ ../Core/Src/processing.c:1169:22
	movw	r0, :lower16:comVariableBlock
	movt	r0, :upper16:comVariableBlock
	ldrb	r0, [r0, #13]
.Ltmp544:
	.loc	1 1169 5 is_stmt 0              @ ../Core/Src/processing.c:1169:5
	cmp	r0, #1
	bne	.LBB12_6
	b	.LBB12_5
.LBB12_5:
.Ltmp545:
	.loc	1 1171 12 is_stmt 1             @ ../Core/Src/processing.c:1171:12
	movw	r0, :lower16:OutWindowsTxt2.StopShow
	movt	r0, :upper16:OutWindowsTxt2.StopShow
	str	r0, [sp, #56]
	.loc	1 1172 2                        @ ../Core/Src/processing.c:1172:2
	b	.LBB12_6
.Ltmp546:
.LBB12_6:
	.loc	1 1174 37                       @ ../Core/Src/processing.c:1174:37
	movw	r1, :lower16:SYS_tickTime
	movt	r1, :upper16:SYS_tickTime
	movs	r0, #0
	str	r0, [r1, #8]
	.loc	1 1175 51                       @ ../Core/Src/processing.c:1175:51
	movw	r1, :lower16:USART_Data
	movt	r1, :upper16:USART_Data
	movw	r2, #11378
	strb	r0, [r1, r2]
	.loc	1 1177 70                       @ ../Core/Src/processing.c:1177:70
	movw	r0, :lower16:OutWindowsTxt2.i
	movt	r0, :upper16:OutWindowsTxt2.i
	str	r0, [sp, #44]                   @ 4-byte Spill
	ldrb	r0, [r0]
	.loc	1 1177 56 is_stmt 0             @ ../Core/Src/processing.c:1177:56
	add.w	r1, r0, r0, lsl #2
	movw	r0, :lower16:WindowsTxtStr
	movt	r0, :upper16:WindowsTxtStr
	add.w	r2, r0, r1, lsl #3
	.loc	1 1177 74                       @ ../Core/Src/processing.c:1177:74
	ldr	r3, [sp, #56]
	.loc	1 1177 105                      @ ../Core/Src/processing.c:1177:105
	ldrb.w	r0, [sp, #55]
	.loc	1 1177 91                       @ ../Core/Src/processing.c:1177:91
	add.w	r1, r0, r0, lsl #2
	movw	r0, :lower16:OutWindowsTxt2.Result_TxtTrs
	movt	r0, :upper16:OutWindowsTxt2.Result_TxtTrs
	add.w	r0, r0, r1, lsl #1
	.loc	1 1177 5                        @ ../Core/Src/processing.c:1177:5
	mov	r1, sp
	mov.w	r12, #10
	str.w	r12, [r1, #12]
	mov.w	r12, #13
	str.w	r12, [r1, #8]
	str	r0, [r1, #4]
	movs	r0, #32
	str	r0, [r1]
	movw	r0, :lower16:OutWindowsTxt2.OutWindowsTxtBuf1
	movt	r0, :upper16:OutWindowsTxt2.OutWindowsTxtBuf1
	str	r0, [sp, #36]                   @ 4-byte Spill
	movw	r1, :lower16:.L.str.24
	movt	r1, :upper16:.L.str.24
	bl	sprintf
	ldr	r1, [sp, #36]                   @ 4-byte Reload
	.loc	1 1178 5 is_stmt 1              @ ../Core/Src/processing.c:1178:5
	movw	r0, :lower16:OutWindowsTxt2.OutWindowsTxtBuf2
	movt	r0, :upper16:OutWindowsTxt2.OutWindowsTxtBuf2
	str	r0, [sp, #20]                   @ 4-byte Spill
	bl	strcat
	ldr	r3, [sp, #20]                   @ 4-byte Reload
	.loc	1 1179 11                       @ ../Core/Src/processing.c:1179:11
	mov	r0, sp
	movs	r1, #255
	str	r1, [sp, #28]                   @ 4-byte Spill
	str	r1, [r0, #12]
	str	r1, [r0, #8]
	str	r1, [r0, #4]
	movs	r2, #34
	str	r2, [sp, #32]                   @ 4-byte Spill
	str	r2, [r0]
	movw	r0, :lower16:OutWindowsTxt2.OutWindowsTxtSend
	movt	r0, :upper16:OutWindowsTxt2.OutWindowsTxtSend
	str	r0, [sp, #40]                   @ 4-byte Spill
	movw	r1, :lower16:.L.str.25
	movt	r1, :upper16:.L.str.25
	bl	sprintf
	ldr	r3, [sp, #28]                   @ 4-byte Reload
	mov	r1, r0
	.loc	1 1179 9 is_stmt 0              @ ../Core/Src/processing.c:1179:9
	ldr	r0, [sp, #36]                   @ 4-byte Reload
	strh.w	r1, [sp, #50]
	.loc	1 1181 86 is_stmt 1             @ ../Core/Src/processing.c:1181:86
	movw	r1, :lower16:comVariableBlock
	movt	r1, :upper16:comVariableBlock
	str	r1, [sp, #24]                   @ 4-byte Spill
	ldrb.w	r2, [r1, #796]
	.loc	1 1181 7 is_stmt 0              @ ../Core/Src/processing.c:1181:7
	mov	r1, sp
	str	r3, [r1, #4]
	str	r3, [r1]
	movw	r1, :lower16:.L.str.26
	movt	r1, :upper16:.L.str.26
	bl	sprintf
	ldr	r1, [sp, #36]                   @ 4-byte Reload
	mov	r3, r0
	.loc	1 1181 5                        @ ../Core/Src/processing.c:1181:5
	ldr	r0, [sp, #40]                   @ 4-byte Reload
	ldrh.w	r2, [sp, #50]
	add	r2, r3
	strh.w	r2, [sp, #50]
	.loc	1 1182 2 is_stmt 1              @ ../Core/Src/processing.c:1182:2
	bl	strcat
	ldr	r1, [sp, #24]                   @ 4-byte Reload
	ldr.w	r12, [sp, #28]                  @ 4-byte Reload
	ldr	r2, [sp, #32]                   @ 4-byte Reload
                                        @ kill: def $r3 killed $r0
	.loc	1 1184 96                       @ ../Core/Src/processing.c:1184:96
	ldr	r0, [sp, #36]                   @ 4-byte Reload
	ldrb.w	r3, [r1, #796]
	.loc	1 1184 7 is_stmt 0              @ ../Core/Src/processing.c:1184:7
	mov	r1, sp
	str.w	r12, [r1, #12]
	str.w	r12, [r1, #8]
	str.w	r12, [r1, #4]
	str	r2, [r1]
	movw	r1, :lower16:.L.str.27
	movt	r1, :upper16:.L.str.27
	bl	sprintf
	ldr	r1, [sp, #36]                   @ 4-byte Reload
	mov	r3, r0
	.loc	1 1184 5                        @ ../Core/Src/processing.c:1184:5
	ldr	r0, [sp, #40]                   @ 4-byte Reload
	ldrh.w	r2, [sp, #50]
	add	r2, r3
	strh.w	r2, [sp, #50]
	.loc	1 1185 2 is_stmt 1              @ ../Core/Src/processing.c:1185:2
	bl	strcat
	ldr	r1, [sp, #40]                   @ 4-byte Reload
	.loc	1 1187 66                       @ ../Core/Src/processing.c:1187:66
	ldrh.w	r2, [sp, #50]
	.loc	1 1187 5 is_stmt 0              @ ../Core/Src/processing.c:1187:5
	movw	r0, :lower16:huart1
	movt	r0, :upper16:huart1
	bl	HAL_UART_Transmit_IT
	ldr	r1, [sp, #44]                   @ 4-byte Reload
	.loc	1 1188 6 is_stmt 1              @ ../Core/Src/processing.c:1188:6
	ldrb	r0, [r1]
	adds	r0, #1
	strb	r0, [r1]
	.loc	1 1190 5                        @ ../Core/Src/processing.c:1190:5
	b	.LBB12_7
.LBB12_7:                               @ =>This Inner Loop Header: Depth=1
.Ltmp547:
	.loc	1 1192 25                       @ ../Core/Src/processing.c:1192:25
	movw	r0, :lower16:SYS_tickTime
	movt	r0, :upper16:SYS_tickTime
	ldr	r0, [r0, #8]
	.loc	1 1192 46 is_stmt 0             @ ../Core/Src/processing.c:1192:46
	ldrh.w	r1, [sp, #52]
.Ltmp548:
	.loc	1 1192 12                       @ ../Core/Src/processing.c:1192:12
	cmp	r0, r1
	bls	.LBB12_9
	b	.LBB12_8
.LBB12_8:
.Ltmp549:
	.loc	1 1195 14 is_stmt 1             @ ../Core/Src/processing.c:1195:14
	movw	r0, :lower16:OutWindowsTxt2.ReturnNum
	movt	r0, :upper16:OutWindowsTxt2.ReturnNum
	movs	r1, #0
	strb	r1, [r0]
	.loc	1 1196 13                       @ ../Core/Src/processing.c:1196:13
	str	r0, [sp, #60]
	b	.LBB12_23
.Ltmp550:
.LBB12_9:                               @   in Loop: Header=BB12_7 Depth=1
	.loc	1 1199 35                       @ ../Core/Src/processing.c:1199:35
	movw	r0, :lower16:USART_Data
	movt	r0, :upper16:USART_Data
	movw	r1, #11378
	ldrb	r0, [r0, r1]
.Ltmp551:
	.loc	1 1199 12 is_stmt 0             @ ../Core/Src/processing.c:1199:12
	cmp	r0, #1
	bne	.LBB12_11
	b	.LBB12_10
.LBB12_10:
.Ltmp552:
	.loc	1 1201 45 is_stmt 1             @ ../Core/Src/processing.c:1201:45
	movw	r1, :lower16:SYS_tickTime
	movt	r1, :upper16:SYS_tickTime
	movs	r0, #0
	str	r0, [r1, #8]
	.loc	1 1202 13                       @ ../Core/Src/processing.c:1202:13
	b	.LBB12_12
.Ltmp553:
.LBB12_11:                              @   in Loop: Header=BB12_7 Depth=1
	.loc	1 1190 5                        @ ../Core/Src/processing.c:1190:5
	b	.LBB12_7
.LBB12_12:
.Ltmp554:
	.loc	1 1206 8                        @ ../Core/Src/processing.c:1206:8
	movw	r0, :lower16:OutWindowsTxt2.i
	movt	r0, :upper16:OutWindowsTxt2.i
	ldrb	r0, [r0]
.Ltmp555:
	.loc	1 1206 8 is_stmt 0              @ ../Core/Src/processing.c:1206:8
	cmp	r0, #15
	blt	.LBB12_20
	b	.LBB12_13
.LBB12_13:
.Ltmp556:
	.loc	1 1208 15 is_stmt 1             @ ../Core/Src/processing.c:1208:15
	movw	r0, :lower16:OutWindowsTxt2.Val_y
	movt	r0, :upper16:OutWindowsTxt2.Val_y
	ldrh	r1, [r0]
	adds	r1, #30
	strh	r1, [r0]
	.loc	1 1209 41                       @ ../Core/Src/processing.c:1209:41
	movw	r2, :lower16:SYS_tickTime
	movt	r2, :upper16:SYS_tickTime
	movs	r1, #0
	str	r1, [r2, #8]
	.loc	1 1210 55                       @ ../Core/Src/processing.c:1210:55
	movw	r2, :lower16:USART_Data
	movt	r2, :upper16:USART_Data
	movw	r3, #11378
	strb	r1, [r2, r3]
	.loc	1 1211 84                       @ ../Core/Src/processing.c:1211:84
	ldrh	r2, [r0]
	.loc	1 1211 15 is_stmt 0             @ ../Core/Src/processing.c:1211:15
	mov	r0, sp
	movs	r3, #255
	str	r3, [r0, #4]
	str	r3, [r0]
	movw	r0, :lower16:OutWindowsTxt2.OutWindowsTxtSend
	movt	r0, :upper16:OutWindowsTxt2.OutWindowsTxtSend
	str	r0, [sp, #16]                   @ 4-byte Spill
	movw	r1, :lower16:.L.str.28
	movt	r1, :upper16:.L.str.28
	bl	sprintf
	ldr	r1, [sp, #16]                   @ 4-byte Reload
	.loc	1 1211 13                       @ ../Core/Src/processing.c:1211:13
	strh.w	r0, [sp, #50]
	.loc	1 1212 70 is_stmt 1             @ ../Core/Src/processing.c:1212:70
	ldrh.w	r2, [sp, #50]
	.loc	1 1212 9 is_stmt 0              @ ../Core/Src/processing.c:1212:9
	movw	r0, :lower16:huart1
	movt	r0, :upper16:huart1
	bl	HAL_UART_Transmit_IT
	.loc	1 1214 9 is_stmt 1              @ ../Core/Src/processing.c:1214:9
	b	.LBB12_14
.LBB12_14:                              @ =>This Inner Loop Header: Depth=1
.Ltmp557:
	.loc	1 1216 29                       @ ../Core/Src/processing.c:1216:29
	movw	r0, :lower16:SYS_tickTime
	movt	r0, :upper16:SYS_tickTime
	ldr	r0, [r0, #8]
	.loc	1 1216 50 is_stmt 0             @ ../Core/Src/processing.c:1216:50
	ldrh.w	r1, [sp, #52]
.Ltmp558:
	.loc	1 1216 16                       @ ../Core/Src/processing.c:1216:16
	cmp	r0, r1
	bls	.LBB12_16
	b	.LBB12_15
.LBB12_15:
.Ltmp559:
	.loc	1 1219 27 is_stmt 1             @ ../Core/Src/processing.c:1219:27
	movw	r0, :lower16:OutWindowsTxt2.ReturnNum
	movt	r0, :upper16:OutWindowsTxt2.ReturnNum
	movs	r1, #0
	strb	r1, [r0]
	.loc	1 1220 17                       @ ../Core/Src/processing.c:1220:17
	str	r0, [sp, #60]
	b	.LBB12_23
.Ltmp560:
.LBB12_16:                              @   in Loop: Header=BB12_14 Depth=1
	.loc	1 1223 39                       @ ../Core/Src/processing.c:1223:39
	movw	r0, :lower16:USART_Data
	movt	r0, :upper16:USART_Data
	movw	r1, #11378
	ldrb	r0, [r0, r1]
.Ltmp561:
	.loc	1 1223 16 is_stmt 0             @ ../Core/Src/processing.c:1223:16
	cmp	r0, #1
	bne	.LBB12_18
	b	.LBB12_17
.LBB12_17:
.Ltmp562:
	.loc	1 1225 49 is_stmt 1             @ ../Core/Src/processing.c:1225:49
	movw	r1, :lower16:SYS_tickTime
	movt	r1, :upper16:SYS_tickTime
	movs	r0, #0
	str	r0, [r1, #8]
	.loc	1 1226 17                       @ ../Core/Src/processing.c:1226:17
	b	.LBB12_19
.Ltmp563:
.LBB12_18:                              @   in Loop: Header=BB12_14 Depth=1
	.loc	1 1214 9                        @ ../Core/Src/processing.c:1214:9
	b	.LBB12_14
.LBB12_19:
	.loc	1 1229 5                        @ ../Core/Src/processing.c:1229:5
	b	.LBB12_20
.Ltmp564:
.LBB12_20:
	.loc	1 1230 22                       @ ../Core/Src/processing.c:1230:22
	movw	r0, :lower16:comVariableBlock
	movt	r0, :upper16:comVariableBlock
	ldrb	r0, [r0, #13]
.Ltmp565:
	.loc	1 1230 5 is_stmt 0              @ ../Core/Src/processing.c:1230:5
	cmp	r0, #1
	bne	.LBB12_22
	b	.LBB12_21
.LBB12_21:
.Ltmp566:
	.loc	1 1232 13 is_stmt 1             @ ../Core/Src/processing.c:1232:13
	movw	r0, :lower16:OutWindowsTxt2.ReturnNum
	movt	r0, :upper16:OutWindowsTxt2.ReturnNum
	movs	r1, #1
	strb	r1, [r0]
	.loc	1 1233 3                        @ ../Core/Src/processing.c:1233:3
	str	r0, [sp, #60]
	b	.LBB12_23
.Ltmp567:
.LBB12_22:
	.loc	1 1235 15                       @ ../Core/Src/processing.c:1235:15
	movw	r0, :lower16:OutWindowsTxt2.ReturnNum
	movt	r0, :upper16:OutWindowsTxt2.ReturnNum
	movs	r1, #0
	strb	r1, [r0]
	.loc	1 1236 5                        @ ../Core/Src/processing.c:1236:5
	str	r0, [sp, #60]
	b	.LBB12_23
.LBB12_23:
	.loc	1 1237 1                        @ ../Core/Src/processing.c:1237:1
	ldr	r0, [sp, #60]
	add	sp, #64
	pop	{r7, pc}
.Ltmp568:
	.p2align	2
@ %bb.24:
	.loc	1 0 1 is_stmt 0                 @ ../Core/Src/processing.c:0:1
.LCPI12_0:
	.long	0x42c80000                      @ float 100
.Lfunc_end12:
	.size	OutWindowsTxt2, .Lfunc_end12-OutWindowsTxt2
	.cfi_endproc
	.cantunwind
	.fnend
                                        @ -- End function
	.section	.text.MeasurResultTransmit,"ax",%progbits
	.hidden	MeasurResultTransmit            @ -- Begin function MeasurResultTransmit
	.globl	MeasurResultTransmit
	.p2align	2
	.type	MeasurResultTransmit,%function
	.code	16                              @ @MeasurResultTransmit
	.thumb_func
MeasurResultTransmit:
.Lfunc_begin13:
	.loc	1 1243 0 is_stmt 1              @ ../Core/Src/processing.c:1243:0
	.fnstart
	.cfi_startproc
@ %bb.0:
	.save	{r7, lr}
	push	{r7, lr}
	.cfi_def_cfa_offset 8
	.cfi_offset lr, -4
	.cfi_offset r7, -8
	.pad	#232
	sub	sp, #232
	.cfi_def_cfa_offset 240
                                        @ kill: def $r2 killed $r1
                                        @ kill: def $r2 killed $r0
	strb.w	r0, [sp, #227]
	strh.w	r1, [sp, #224]
.Ltmp569:
	.loc	1 1248 19 prologue_end          @ ../Core/Src/processing.c:1248:19
	movw	r1, :lower16:.L__const.MeasurResultTransmit.showTXT
	movt	r1, :upper16:.L__const.MeasurResultTransmit.showTXT
	add	r0, sp, #144
	movs	r2, #80
	bl	__aeabi_memcpy
	.loc	1 1249 19                       @ ../Core/Src/processing.c:1249:19
	movw	r1, :lower16:.L__const.MeasurResultTransmit.mainResultTxtSendBuf
	movt	r1, :upper16:.L__const.MeasurResultTransmit.mainResultTxtSendBuf
	add.w	r0, sp, #114
	movs	r2, #30
	str	r2, [sp, #36]                   @ 4-byte Spill
	bl	__aeabi_memcpy
	ldr	r2, [sp, #36]                   @ 4-byte Reload
	.loc	1 1250 19                       @ ../Core/Src/processing.c:1250:19
	movw	r1, :lower16:.L__const.MeasurResultTransmit.mainResultTxtSendBuf1
	movt	r1, :upper16:.L__const.MeasurResultTransmit.mainResultTxtSendBuf1
	add	r0, sp, #84
	bl	__aeabi_memcpy
	.loc	1 1251 19                       @ ../Core/Src/processing.c:1251:19
	movw	r1, :lower16:.L__const.MeasurResultTransmit.colour
	movt	r1, :upper16:.L__const.MeasurResultTransmit.colour
	add	r0, sp, #44
	movs	r2, #40
	bl	__aeabi_memcpy
	movs	r0, #0
	.loc	1 1252 19                       @ ../Core/Src/processing.c:1252:19
	strb.w	r0, [sp, #43]
.Ltmp570:
	.loc	1 1256 5                        @ ../Core/Src/processing.c:1256:5
	ldrb.w	r0, [sp, #227]
.Ltmp571:
	.loc	1 1256 5 is_stmt 0              @ ../Core/Src/processing.c:1256:5
	cbnz	r0, .LBB13_2
	b	.LBB13_1
.LBB13_1:
.Ltmp572:
	.loc	1 1258 34 is_stmt 1             @ ../Core/Src/processing.c:1258:34
	movw	r1, :lower16:comVariableBlock
	movt	r1, :upper16:comVariableBlock
	movs	r0, #0
	strb	r0, [r1, #18]
	.loc	1 1259 2                        @ ../Core/Src/processing.c:1259:2
	b	.LBB13_20
.Ltmp573:
.LBB13_2:
	.loc	1 1259 11 is_stmt 0             @ ../Core/Src/processing.c:1259:11
	ldrb.w	r0, [sp, #227]
.Ltmp574:
	.loc	1 1259 11                       @ ../Core/Src/processing.c:1259:11
	cmp	r0, #1
	bne	.LBB13_11
	b	.LBB13_3
.LBB13_3:
.Ltmp575:
	.loc	1 1261 34 is_stmt 1             @ ../Core/Src/processing.c:1261:34
	movw	r0, :lower16:comVariableBlock
	movt	r0, :upper16:comVariableBlock
	movs	r1, #1
	strb	r1, [r0, #18]
.Ltmp576:
	.loc	1 1262 23                       @ ../Core/Src/processing.c:1262:23
	ldrh.w	r0, [r0, #794]
.Ltmp577:
	.loc	1 1262 6 is_stmt 0              @ ../Core/Src/processing.c:1262:6
	cbz	r0, .LBB13_5
	b	.LBB13_4
.LBB13_4:
.Ltmp578:
	.loc	1 1264 70 is_stmt 1             @ ../Core/Src/processing.c:1264:70
	movw	r1, :lower16:comVariableBlock
	movt	r1, :upper16:comVariableBlock
	ldrb	r0, [r1, #18]
	.loc	1 1264 35 is_stmt 0             @ ../Core/Src/processing.c:1264:35
	ldrb.w	r3, [r1, #785]
	.loc	1 1264 4                        @ ../Core/Src/processing.c:1264:4
	movw	r2, :lower16:ID_TempResult
	movt	r2, :upper16:ID_TempResult
	.loc	1 1264 52                       @ ../Core/Src/processing.c:1264:52
	strb	r0, [r2, r3]
	.loc	1 1265 40 is_stmt 1             @ ../Core/Src/processing.c:1265:40
	ldrh.w	r0, [r1, #792]
	adds	r0, #1
	strh.w	r0, [r1, #792]
	.loc	1 1266 35                       @ ../Core/Src/processing.c:1266:35
	ldrh.w	r0, [r1, #790]
	adds	r0, #1
	strh.w	r0, [r1, #790]
	.loc	1 1267 3                        @ ../Core/Src/processing.c:1267:3
	b	.LBB13_5
.Ltmp579:
.LBB13_5:
	.loc	1 1269 23                       @ ../Core/Src/processing.c:1269:23
	movw	r0, :lower16:comVariableBlock
	movt	r0, :upper16:comVariableBlock
	ldrh.w	r0, [r0, #794]
.Ltmp580:
	.loc	1 1269 6 is_stmt 0              @ ../Core/Src/processing.c:1269:6
	cbnz	r0, .LBB13_10
	b	.LBB13_6
.LBB13_6:
.Ltmp581:
	.loc	1 1271 38 is_stmt 1             @ ../Core/Src/processing.c:1271:38
	movw	r0, :lower16:comVariableBlock
	movt	r0, :upper16:comVariableBlock
	ldrb.w	r1, [r0, #786]
	.loc	1 1271 7 is_stmt 0              @ ../Core/Src/processing.c:1271:7
	movw	r0, :lower16:ID_TempResult
	movt	r0, :upper16:ID_TempResult
	ldrb	r0, [r0, r1]
	.loc	1 1271 72                       @ ../Core/Src/processing.c:1271:72
	cmp	r0, #2
	beq	.LBB13_8
	b	.LBB13_7
.LBB13_7:
	.loc	1 1272 36 is_stmt 1             @ ../Core/Src/processing.c:1272:36
	movw	r0, :lower16:comVariableBlock
	movt	r0, :upper16:comVariableBlock
	ldrb.w	r1, [r0, #786]
	.loc	1 1272 5 is_stmt 0              @ ../Core/Src/processing.c:1272:5
	movw	r0, :lower16:ID_TempResult
	movt	r0, :upper16:ID_TempResult
	ldrb	r0, [r0, r1]
.Ltmp582:
	.loc	1 1271 7 is_stmt 1              @ ../Core/Src/processing.c:1271:7
	cmp	r0, #3
	bne	.LBB13_9
	b	.LBB13_8
.LBB13_8:
.Ltmp583:
	.loc	1 1274 36                       @ ../Core/Src/processing.c:1274:36
	movw	r1, :lower16:comVariableBlock
	movt	r1, :upper16:comVariableBlock
	ldrb.w	r3, [r1, #786]
	.loc	1 1274 5 is_stmt 0              @ ../Core/Src/processing.c:1274:5
	movw	r2, :lower16:ID_TempResult
	movt	r2, :upper16:ID_TempResult
	movs	r0, #1
	.loc	1 1274 57                       @ ../Core/Src/processing.c:1274:57
	strb	r0, [r2, r3]
	.loc	1 1275 36 is_stmt 1             @ ../Core/Src/processing.c:1275:36
	ldrh.w	r0, [r1, #790]
	adds	r0, #1
	strh.w	r0, [r1, #790]
	.loc	1 1276 37                       @ ../Core/Src/processing.c:1276:37
	ldrh.w	r0, [r1, #788]
	subs	r0, #1
	strh.w	r0, [r1, #788]
	.loc	1 1277 4                        @ ../Core/Src/processing.c:1277:4
	b	.LBB13_9
.Ltmp584:
.LBB13_9:
	.loc	1 1278 3                        @ ../Core/Src/processing.c:1278:3
	b	.LBB13_10
.Ltmp585:
.LBB13_10:
	.loc	1 1281 2                        @ ../Core/Src/processing.c:1281:2
	b	.LBB13_19
.Ltmp586:
.LBB13_11:
	.loc	1 1281 11 is_stmt 0             @ ../Core/Src/processing.c:1281:11
	ldrb.w	r0, [sp, #227]
.Ltmp587:
	.loc	1 1281 11                       @ ../Core/Src/processing.c:1281:11
	cmp	r0, #2
	bne	.LBB13_15
	b	.LBB13_12
.LBB13_12:
.Ltmp588:
	.loc	1 1283 34 is_stmt 1             @ ../Core/Src/processing.c:1283:34
	movw	r0, :lower16:comVariableBlock
	movt	r0, :upper16:comVariableBlock
	movs	r1, #2
	strb	r1, [r0, #18]
	.loc	1 1284 69                       @ ../Core/Src/processing.c:1284:69
	ldrb	r1, [r0, #18]
	.loc	1 1284 34 is_stmt 0             @ ../Core/Src/processing.c:1284:34
	ldrb.w	r3, [r0, #785]
	.loc	1 1284 3                        @ ../Core/Src/processing.c:1284:3
	movw	r2, :lower16:ID_TempResult
	movt	r2, :upper16:ID_TempResult
	.loc	1 1284 51                       @ ../Core/Src/processing.c:1284:51
	strb	r1, [r2, r3]
.Ltmp589:
	.loc	1 1285 23 is_stmt 1             @ ../Core/Src/processing.c:1285:23
	ldrh.w	r0, [r0, #794]
.Ltmp590:
	.loc	1 1285 6 is_stmt 0              @ ../Core/Src/processing.c:1285:6
	cbz	r0, .LBB13_14
	b	.LBB13_13
.LBB13_13:
.Ltmp591:
	.loc	1 1287 40 is_stmt 1             @ ../Core/Src/processing.c:1287:40
	movw	r1, :lower16:comVariableBlock
	movt	r1, :upper16:comVariableBlock
	ldrh.w	r0, [r1, #792]
	adds	r0, #1
	strh.w	r0, [r1, #792]
	.loc	1 1288 36                       @ ../Core/Src/processing.c:1288:36
	ldrh.w	r0, [r1, #788]
	adds	r0, #1
	strh.w	r0, [r1, #788]
	.loc	1 1289 3                        @ ../Core/Src/processing.c:1289:3
	b	.LBB13_14
.Ltmp592:
.LBB13_14:
	.loc	1 1291 2                        @ ../Core/Src/processing.c:1291:2
	b	.LBB13_18
.Ltmp593:
.LBB13_15:
	.loc	1 1291 11 is_stmt 0             @ ../Core/Src/processing.c:1291:11
	ldrb.w	r0, [sp, #227]
.Ltmp594:
	.loc	1 1291 11                       @ ../Core/Src/processing.c:1291:11
	cmp	r0, #3
	bne	.LBB13_17
	b	.LBB13_16
.LBB13_16:
.Ltmp595:
	.loc	1 1293 34 is_stmt 1             @ ../Core/Src/processing.c:1293:34
	movw	r1, :lower16:comVariableBlock
	movt	r1, :upper16:comVariableBlock
	movs	r0, #3
	strb	r0, [r1, #18]
	.loc	1 1294 69                       @ ../Core/Src/processing.c:1294:69
	ldrb	r0, [r1, #18]
	.loc	1 1294 34 is_stmt 0             @ ../Core/Src/processing.c:1294:34
	ldrb.w	r2, [r1, #785]
	.loc	1 1294 3                        @ ../Core/Src/processing.c:1294:3
	movw	r1, :lower16:ID_TempResult
	movt	r1, :upper16:ID_TempResult
	.loc	1 1294 51                       @ ../Core/Src/processing.c:1294:51
	strb	r0, [r1, r2]
	.loc	1 1295 2 is_stmt 1              @ ../Core/Src/processing.c:1295:2
	b	.LBB13_17
.Ltmp596:
.LBB13_17:
	.loc	1 0 2 is_stmt 0                 @ ../Core/Src/processing.c:0:2
	b	.LBB13_18
.LBB13_18:
	b	.LBB13_19
.LBB13_19:
	b	.LBB13_20
.LBB13_20:
	.loc	1 1300 37 is_stmt 1             @ ../Core/Src/processing.c:1300:37
	movw	r1, :lower16:SYS_tickTime
	movt	r1, :upper16:SYS_tickTime
	movs	r0, #0
	str	r0, [r1, #8]
	.loc	1 1301 51                       @ ../Core/Src/processing.c:1301:51
	movw	r1, :lower16:USART_Data
	movt	r1, :upper16:USART_Data
	movw	r2, #11378
	strb	r0, [r1, r2]
	.loc	1 1304 53                       @ ../Core/Src/processing.c:1304:53
	ldrb.w	r0, [sp, #227]
	.loc	1 1304 45 is_stmt 0             @ ../Core/Src/processing.c:1304:45
	add.w	r1, r0, r0, lsl #2
	add	r0, sp, #144
	add.w	r0, r0, r1, lsl #2
	.loc	1 1303 11 is_stmt 1             @ ../Core/Src/processing.c:1303:11
	mov	r1, sp
	movs	r2, #255
	str	r2, [sp, #24]                   @ 4-byte Spill
	str	r2, [r1, #16]
	str	r2, [r1, #12]
	str	r2, [r1, #8]
	movs	r3, #34
	str	r3, [r1, #4]
	str	r0, [r1]
	movw	r0, :lower16:MeasurResultTransmit.mainResultTxtSend
	movt	r0, :upper16:MeasurResultTransmit.mainResultTxtSend
	str	r0, [sp, #32]                   @ 4-byte Spill
	movw	r1, :lower16:.L.str.29
	movt	r1, :upper16:.L.str.29
	add.w	r2, sp, #114
	bl	sprintf
	mov	r1, r0
	.loc	1 1303 9 is_stmt 0              @ ../Core/Src/processing.c:1303:9
	ldr	r0, [sp, #24]                   @ 4-byte Reload
	strb.w	r1, [sp, #43]
	.loc	1 1308 50 is_stmt 1             @ ../Core/Src/processing.c:1308:50
	ldrb.w	r1, [sp, #227]
	.loc	1 1308 43 is_stmt 0             @ ../Core/Src/processing.c:1308:43
	add.w	r2, r1, r1, lsl #2
	add	r1, sp, #44
	add.w	r3, r1, r2, lsl #1
	.loc	1 1307 12 is_stmt 1             @ ../Core/Src/processing.c:1307:12
	mov	r1, sp
	str	r0, [r1, #8]
	str	r0, [r1, #4]
	str	r0, [r1]
	movw	r0, :lower16:MeasurResultTransmit.mainResultTxtBuf
	movt	r0, :upper16:MeasurResultTransmit.mainResultTxtBuf
	str	r0, [sp, #28]                   @ 4-byte Spill
	movw	r1, :lower16:.L.str.30
	movt	r1, :upper16:.L.str.30
	add	r2, sp, #84
	bl	sprintf
	ldr	r1, [sp, #28]                   @ 4-byte Reload
	mov	r3, r0
	.loc	1 1307 9 is_stmt 0              @ ../Core/Src/processing.c:1307:9
	ldr	r0, [sp, #32]                   @ 4-byte Reload
	ldrb.w	r2, [sp, #43]
	add	r2, r3
	strb.w	r2, [sp, #43]
	.loc	1 1310 5 is_stmt 1              @ ../Core/Src/processing.c:1310:5
	bl	strcat
	ldr	r1, [sp, #32]                   @ 4-byte Reload
	.loc	1 1312 66                       @ ../Core/Src/processing.c:1312:66
	ldrb.w	r2, [sp, #43]
	.loc	1 1312 5 is_stmt 0              @ ../Core/Src/processing.c:1312:5
	movw	r0, :lower16:huart1
	movt	r0, :upper16:huart1
	bl	HAL_UART_Transmit_IT
	.loc	1 1315 5 is_stmt 1              @ ../Core/Src/processing.c:1315:5
	b	.LBB13_21
.LBB13_21:                              @ =>This Inner Loop Header: Depth=1
.Ltmp597:
	.loc	1 1317 25                       @ ../Core/Src/processing.c:1317:25
	movw	r0, :lower16:SYS_tickTime
	movt	r0, :upper16:SYS_tickTime
	ldr	r0, [r0, #8]
	.loc	1 1317 46 is_stmt 0             @ ../Core/Src/processing.c:1317:46
	ldrh.w	r1, [sp, #224]
.Ltmp598:
	.loc	1 1317 12                       @ ../Core/Src/processing.c:1317:12
	cmp	r0, r1
	bls	.LBB13_23
	b	.LBB13_22
.LBB13_22:
.Ltmp599:
	.loc	1 1319 23 is_stmt 1             @ ../Core/Src/processing.c:1319:23
	movw	r0, :lower16:MeasurResultTransmit.ReturnNum
	movt	r0, :upper16:MeasurResultTransmit.ReturnNum
	movs	r1, #1
	strb	r1, [r0]
	.loc	1 1320 13                       @ ../Core/Src/processing.c:1320:13
	str	r0, [sp, #228]
	b	.LBB13_27
.Ltmp600:
.LBB13_23:                              @   in Loop: Header=BB13_21 Depth=1
	.loc	1 1323 35                       @ ../Core/Src/processing.c:1323:35
	movw	r0, :lower16:USART_Data
	movt	r0, :upper16:USART_Data
	movw	r1, #11378
	ldrb	r0, [r0, r1]
.Ltmp601:
	.loc	1 1323 12 is_stmt 0             @ ../Core/Src/processing.c:1323:12
	cmp	r0, #1
	bne	.LBB13_25
	b	.LBB13_24
.LBB13_24:
.Ltmp602:
	.loc	1 1325 45 is_stmt 1             @ ../Core/Src/processing.c:1325:45
	movw	r1, :lower16:SYS_tickTime
	movt	r1, :upper16:SYS_tickTime
	movs	r0, #0
	str	r0, [r1, #8]
	.loc	1 1326 13                       @ ../Core/Src/processing.c:1326:13
	b	.LBB13_26
.Ltmp603:
.LBB13_25:                              @   in Loop: Header=BB13_21 Depth=1
	.loc	1 1315 5                        @ ../Core/Src/processing.c:1315:5
	b	.LBB13_21
.LBB13_26:
	.loc	1 1330 15                       @ ../Core/Src/processing.c:1330:15
	movw	r0, :lower16:MeasurResultTransmit.ReturnNum
	movt	r0, :upper16:MeasurResultTransmit.ReturnNum
	movs	r1, #0
	strb	r1, [r0]
	.loc	1 1331 5                        @ ../Core/Src/processing.c:1331:5
	str	r0, [sp, #228]
	b	.LBB13_27
.LBB13_27:
	.loc	1 1332 1                        @ ../Core/Src/processing.c:1332:1
	ldr	r0, [sp, #228]
	add	sp, #232
	pop	{r7, pc}
.Ltmp604:
.Lfunc_end13:
	.size	MeasurResultTransmit, .Lfunc_end13-MeasurResultTransmit
	.cfi_endproc
	.cantunwind
	.fnend
                                        @ -- End function
	.section	.text.NixieTubeTransmit,"ax",%progbits
	.hidden	NixieTubeTransmit               @ -- Begin function NixieTubeTransmit
	.globl	NixieTubeTransmit
	.p2align	2
	.type	NixieTubeTransmit,%function
	.code	16                              @ @NixieTubeTransmit
	.thumb_func
NixieTubeTransmit:
.Lfunc_begin14:
	.loc	1 1340 0                        @ ../Core/Src/processing.c:1340:0
	.fnstart
	.cfi_startproc
@ %bb.0:
	.save	{r7, lr}
	push	{r7, lr}
	.cfi_def_cfa_offset 8
	.cfi_offset lr, -4
	.cfi_offset r7, -8
	.pad	#72
	sub	sp, #72
	.cfi_def_cfa_offset 80
                                        @ kill: def $r3 killed $r2
                                        @ kill: def $r3 killed $r1
                                        @ kill: def $r3 killed $r0
	strb.w	r0, [sp, #67]
	strb.w	r1, [sp, #66]
	strh.w	r2, [sp, #64]
	movs	r0, #0
.Ltmp605:
	.loc	1 1343 24 prologue_end          @ ../Core/Src/processing.c:1343:24
	str	r0, [sp, #12]                   @ 4-byte Spill
	strh.w	r0, [sp, #62]
	.loc	1 1344 19                       @ ../Core/Src/processing.c:1344:19
	movw	r1, :lower16:.L__const.NixieTubeTransmit.str
	movt	r1, :upper16:.L__const.NixieTubeTransmit.str
	add.w	r0, sp, #22
	movs	r2, #40
	bl	__aeabi_memcpy
                                        @ kill: def $r1 killed $r0
.Ltmp606:
	.loc	1 1347 10                       @ ../Core/Src/processing.c:1347:10
	ldr	r0, [sp, #12]                   @ 4-byte Reload
	str	r0, [sp, #16]
	.loc	1 1347 6 is_stmt 0              @ ../Core/Src/processing.c:1347:6
	b	.LBB14_1
.LBB14_1:                               @ =>This Loop Header: Depth=1
                                        @     Child Loop BB14_3 Depth 2
                                        @     Child Loop BB14_9 Depth 2
.Ltmp607:
	.loc	1 1347 14                       @ ../Core/Src/processing.c:1347:14
	ldr	r0, [sp, #16]
	.loc	1 1347 16                       @ ../Core/Src/processing.c:1347:16
	movw	r1, :lower16:Resend
	movt	r1, :upper16:Resend
	ldrb	r1, [r1]
.Ltmp608:
	.loc	1 1347 2                        @ ../Core/Src/processing.c:1347:2
	cmp	r0, r1
	bge.w	.LBB14_20
	b	.LBB14_2
.LBB14_2:                               @   in Loop: Header=BB14_1 Depth=1
.Ltmp609:
	.loc	1 1351 35 is_stmt 1             @ ../Core/Src/processing.c:1351:35
	movw	r1, :lower16:SYS_tickTime
	movt	r1, :upper16:SYS_tickTime
	movs	r0, #0
	str	r0, [r1, #8]
	.loc	1 1352 49                       @ ../Core/Src/processing.c:1352:49
	movw	r1, :lower16:USART_Data
	movt	r1, :upper16:USART_Data
	movw	r2, #14884
	strb	r0, [r1, r2]
	add	r1, r2
	.loc	1 1353 50                       @ ../Core/Src/processing.c:1353:50
	strb	r0, [r1, #1]
	.loc	1 1356 57                       @ ../Core/Src/processing.c:1356:57
	ldrb.w	r0, [sp, #66]
	.loc	1 1356 53 is_stmt 0             @ ../Core/Src/processing.c:1356:53
	add.w	r1, r0, r0, lsl #2
	add.w	r0, sp, #22
	add.w	r2, r0, r1, lsl #2
	.loc	1 1356 66                       @ ../Core/Src/processing.c:1356:66
	ldrb.w	r0, [sp, #67]
	.loc	1 1356 80                       @ ../Core/Src/processing.c:1356:80
	adds	r3, r0, #1
	.loc	1 1356 15                       @ ../Core/Src/processing.c:1356:15
	mov	r1, sp
	movs	r0, #10
	str	r0, [r1]
	movw	r0, :lower16:NixieTubeTransmit.StringTrue
	movt	r0, :upper16:NixieTubeTransmit.StringTrue
	str	r0, [sp, #8]                    @ 4-byte Spill
	movw	r1, :lower16:.L.str.31
	movt	r1, :upper16:.L.str.31
	bl	sprintf
	ldr	r1, [sp, #8]                    @ 4-byte Reload
	.loc	1 1356 13                       @ ../Core/Src/processing.c:1356:13
	strh.w	r0, [sp, #62]
	.loc	1 1357 57 is_stmt 1             @ ../Core/Src/processing.c:1357:57
	ldrh.w	r2, [sp, #62]
	.loc	1 1357 3 is_stmt 0              @ ../Core/Src/processing.c:1357:3
	movw	r0, :lower16:huart4
	movt	r0, :upper16:huart4
	bl	HAL_UART_Transmit_IT
	.loc	1 1359 3 is_stmt 1              @ ../Core/Src/processing.c:1359:3
	b	.LBB14_3
.LBB14_3:                               @   Parent Loop BB14_1 Depth=1
                                        @ =>  This Inner Loop Header: Depth=2
.Ltmp610:
	.loc	1 1361 20                       @ ../Core/Src/processing.c:1361:20
	movw	r0, :lower16:SYS_tickTime
	movt	r0, :upper16:SYS_tickTime
	ldr	r0, [r0, #8]
	.loc	1 1361 41 is_stmt 0             @ ../Core/Src/processing.c:1361:41
	ldrh.w	r1, [sp, #64]
.Ltmp611:
	.loc	1 1361 7                        @ ../Core/Src/processing.c:1361:7
	cmp	r0, r1
	bls	.LBB14_5
	b	.LBB14_4
.LBB14_4:
.Ltmp612:
	.loc	1 1363 15 is_stmt 1             @ ../Core/Src/processing.c:1363:15
	movw	r0, :lower16:NixieTubeTransmit.ReturnNum
	movt	r0, :upper16:NixieTubeTransmit.ReturnNum
	movs	r1, #1
	strb	r1, [r0]
	.loc	1 1364 5                        @ ../Core/Src/processing.c:1364:5
	str	r0, [sp, #68]
	b	.LBB14_21
.Ltmp613:
.LBB14_5:                               @   in Loop: Header=BB14_3 Depth=2
	.loc	1 1367 30                       @ ../Core/Src/processing.c:1367:30
	movw	r0, :lower16:USART_Data
	movt	r0, :upper16:USART_Data
	movw	r1, #14884
	ldrb	r0, [r0, r1]
.Ltmp614:
	.loc	1 1367 7 is_stmt 0              @ ../Core/Src/processing.c:1367:7
	cmp	r0, #1
	bne	.LBB14_7
	b	.LBB14_6
.LBB14_6:                               @   in Loop: Header=BB14_1 Depth=1
.Ltmp615:
	.loc	1 1369 37 is_stmt 1             @ ../Core/Src/processing.c:1369:37
	movw	r1, :lower16:SYS_tickTime
	movt	r1, :upper16:SYS_tickTime
	movs	r0, #0
	str	r0, [r1, #8]
	.loc	1 1370 5                        @ ../Core/Src/processing.c:1370:5
	b	.LBB14_8
.Ltmp616:
.LBB14_7:                               @   in Loop: Header=BB14_3 Depth=2
	.loc	1 1359 3                        @ ../Core/Src/processing.c:1359:3
	b	.LBB14_3
.LBB14_8:                               @   in Loop: Header=BB14_1 Depth=1
	.loc	1 1374 3                        @ ../Core/Src/processing.c:1374:3
	b	.LBB14_9
.LBB14_9:                               @   Parent Loop BB14_1 Depth=1
                                        @ =>  This Inner Loop Header: Depth=2
.Ltmp617:
	.loc	1 1376 20                       @ ../Core/Src/processing.c:1376:20
	movw	r0, :lower16:SYS_tickTime
	movt	r0, :upper16:SYS_tickTime
	ldr	r0, [r0, #8]
	.loc	1 1376 40 is_stmt 0             @ ../Core/Src/processing.c:1376:40
	movw	r1, :lower16:ResendTime
	movt	r1, :upper16:ResendTime
	ldrb	r1, [r1]
	.loc	1 1376 52                       @ ../Core/Src/processing.c:1376:52
	cmp	r0, r1
	bls	.LBB14_12
	b	.LBB14_10
.LBB14_10:                              @   in Loop: Header=BB14_9 Depth=2
	.loc	1 1376 55                       @ ../Core/Src/processing.c:1376:55
	ldr	r0, [sp, #16]
	.loc	1 1376 57                       @ ../Core/Src/processing.c:1376:57
	movw	r1, :lower16:Resend
	movt	r1, :upper16:Resend
	ldrb	r1, [r1]
.Ltmp618:
	.loc	1 1376 7                        @ ../Core/Src/processing.c:1376:7
	cmp	r0, r1
	bge	.LBB14_12
	b	.LBB14_11
.LBB14_11:                              @   in Loop: Header=BB14_1 Depth=1
.Ltmp619:
	.loc	1 1378 5 is_stmt 1              @ ../Core/Src/processing.c:1378:5
	b	.LBB14_18
.Ltmp620:
.LBB14_12:                              @   in Loop: Header=BB14_9 Depth=2
	.loc	1 1379 26                       @ ../Core/Src/processing.c:1379:26
	movw	r0, :lower16:SYS_tickTime
	movt	r0, :upper16:SYS_tickTime
	ldr	r0, [r0, #8]
	.loc	1 1379 47 is_stmt 0             @ ../Core/Src/processing.c:1379:47
	ldrh.w	r1, [sp, #64]
.Ltmp621:
	.loc	1 1379 13                       @ ../Core/Src/processing.c:1379:13
	cmp	r0, r1
	bls	.LBB14_14
	b	.LBB14_13
.LBB14_13:
.Ltmp622:
	.loc	1 1381 15 is_stmt 1             @ ../Core/Src/processing.c:1381:15
	movw	r0, :lower16:NixieTubeTransmit.ReturnNum
	movt	r0, :upper16:NixieTubeTransmit.ReturnNum
	movs	r1, #1
	strb	r1, [r0]
	.loc	1 1382 5                        @ ../Core/Src/processing.c:1382:5
	str	r0, [sp, #68]
	b	.LBB14_21
.Ltmp623:
.LBB14_14:                              @   in Loop: Header=BB14_9 Depth=2
	.loc	1 0 5 is_stmt 0                 @ ../Core/Src/processing.c:0:5
	b	.LBB14_15
.LBB14_15:                              @   in Loop: Header=BB14_9 Depth=2
.Ltmp624:
	.loc	1 1384 30 is_stmt 1             @ ../Core/Src/processing.c:1384:30
	movw	r0, :lower16:USART_Data
	movt	r0, :upper16:USART_Data
	movw	r1, #14885
	ldrb	r0, [r0, r1]
.Ltmp625:
	.loc	1 1384 7 is_stmt 0              @ ../Core/Src/processing.c:1384:7
	cmp	r0, #1
	bne	.LBB14_17
	b	.LBB14_16
.LBB14_16:                              @   in Loop: Header=BB14_1 Depth=1
.Ltmp626:
	.loc	1 1386 5 is_stmt 1              @ ../Core/Src/processing.c:1386:5
	b	.LBB14_18
.Ltmp627:
.LBB14_17:                              @   in Loop: Header=BB14_9 Depth=2
	.loc	1 1374 3                        @ ../Core/Src/processing.c:1374:3
	b	.LBB14_9
.LBB14_18:                              @   in Loop: Header=BB14_1 Depth=1
	.loc	1 1389 2                        @ ../Core/Src/processing.c:1389:2
	b	.LBB14_19
.Ltmp628:
.LBB14_19:                              @   in Loop: Header=BB14_1 Depth=1
	.loc	1 1347 24                       @ ../Core/Src/processing.c:1347:24
	ldr	r0, [sp, #16]
	adds	r0, #1
	str	r0, [sp, #16]
	.loc	1 1347 2 is_stmt 0              @ ../Core/Src/processing.c:1347:2
	b	.LBB14_1
.Ltmp629:
.LBB14_20:
	.loc	1 1390 15 is_stmt 1             @ ../Core/Src/processing.c:1390:15
	movw	r0, :lower16:NixieTubeTransmit.ReturnNum
	movt	r0, :upper16:NixieTubeTransmit.ReturnNum
	movs	r1, #0
	strb	r1, [r0]
	.loc	1 1391 5                        @ ../Core/Src/processing.c:1391:5
	str	r0, [sp, #68]
	b	.LBB14_21
.LBB14_21:
	.loc	1 1393 1                        @ ../Core/Src/processing.c:1393:1
	ldr	r0, [sp, #68]
	add	sp, #72
	pop	{r7, pc}
.Ltmp630:
.Lfunc_end14:
	.size	NixieTubeTransmit, .Lfunc_end14-NixieTubeTransmit
	.cfi_endproc
	.cantunwind
	.fnend
                                        @ -- End function
	.section	.text.SensorInstructionTransmit,"ax",%progbits
	.hidden	SensorInstructionTransmit       @ -- Begin function SensorInstructionTransmit
	.globl	SensorInstructionTransmit
	.p2align	2
	.type	SensorInstructionTransmit,%function
	.code	16                              @ @SensorInstructionTransmit
	.thumb_func
SensorInstructionTransmit:
.Lfunc_begin15:
	.loc	1 1397 0                        @ ../Core/Src/processing.c:1397:0
	.fnstart
	.cfi_startproc
@ %bb.0:
	.save	{r7, lr}
	push	{r7, lr}
	.cfi_def_cfa_offset 8
	.cfi_offset lr, -4
	.cfi_offset r7, -8
	.pad	#24
	sub	sp, #24
	.cfi_def_cfa_offset 32
                                        @ kill: def $r2 killed $r1
	str	r0, [sp, #16]
	strh.w	r1, [sp, #14]
	movs	r0, #0
.Ltmp631:
	.loc	1 1400 24 prologue_end          @ ../Core/Src/processing.c:1400:24
	strh.w	r0, [sp, #12]
.Ltmp632:
	.loc	1 1402 11                       @ ../Core/Src/processing.c:1402:11
	str	r0, [sp, #8]
	.loc	1 1402 7 is_stmt 0              @ ../Core/Src/processing.c:1402:7
	b	.LBB15_1
.LBB15_1:                               @ =>This Loop Header: Depth=1
                                        @     Child Loop BB15_3 Depth 2
                                        @     Child Loop BB15_9 Depth 2
.Ltmp633:
	.loc	1 1402 15                       @ ../Core/Src/processing.c:1402:15
	ldr	r0, [sp, #8]
	.loc	1 1402 17                       @ ../Core/Src/processing.c:1402:17
	movw	r1, :lower16:Resend
	movt	r1, :upper16:Resend
	ldrb	r1, [r1]
.Ltmp634:
	.loc	1 1402 2                        @ ../Core/Src/processing.c:1402:2
	cmp	r0, r1
	bge.w	.LBB15_26
	b	.LBB15_2
.LBB15_2:                               @   in Loop: Header=BB15_1 Depth=1
.Ltmp635:
	.loc	1 1405 49 is_stmt 1             @ ../Core/Src/processing.c:1405:49
	movw	r1, :lower16:USART_Data
	movt	r1, :upper16:USART_Data
	movw	r2, #14884
	movs	r0, #0
	str	r0, [sp, #4]                    @ 4-byte Spill
	strb	r0, [r1, r2]
	add	r1, r2
	.loc	1 1406 50                       @ ../Core/Src/processing.c:1406:50
	strb	r0, [r1, #1]
	.loc	1 1408 51                       @ ../Core/Src/processing.c:1408:51
	ldr	r2, [sp, #16]
	.loc	1 1408 15 is_stmt 0             @ ../Core/Src/processing.c:1408:15
	movw	r0, :lower16:SensorInstructionTransmit.StringTrue
	movt	r0, :upper16:SensorInstructionTransmit.StringTrue
	str	r0, [sp]                        @ 4-byte Spill
	movw	r1, :lower16:.L.str.19
	movt	r1, :upper16:.L.str.19
	movs	r3, #10
	bl	sprintf
	ldr	r1, [sp]                        @ 4-byte Reload
	.loc	1 1408 13                       @ ../Core/Src/processing.c:1408:13
	strh.w	r0, [sp, #12]
	.loc	1 1409 57 is_stmt 1             @ ../Core/Src/processing.c:1409:57
	ldrh.w	r2, [sp, #12]
	.loc	1 1409 3 is_stmt 0              @ ../Core/Src/processing.c:1409:3
	movw	r0, :lower16:huart4
	movt	r0, :upper16:huart4
	bl	HAL_UART_Transmit_IT
                                        @ kill: def $r1 killed $r0
	.loc	1 1410 35 is_stmt 1             @ ../Core/Src/processing.c:1410:35
	ldr	r0, [sp, #4]                    @ 4-byte Reload
	movw	r1, :lower16:SYS_tickTime
	movt	r1, :upper16:SYS_tickTime
	str	r0, [r1, #8]
	.loc	1 1411 3                        @ ../Core/Src/processing.c:1411:3
	b	.LBB15_3
.LBB15_3:                               @   Parent Loop BB15_1 Depth=1
                                        @ =>  This Inner Loop Header: Depth=2
.Ltmp636:
	.loc	1 1413 20                       @ ../Core/Src/processing.c:1413:20
	movw	r0, :lower16:SYS_tickTime
	movt	r0, :upper16:SYS_tickTime
	ldr	r0, [r0, #8]
	.loc	1 1413 41 is_stmt 0             @ ../Core/Src/processing.c:1413:41
	ldrh.w	r1, [sp, #14]
.Ltmp637:
	.loc	1 1413 7                        @ ../Core/Src/processing.c:1413:7
	cmp	r0, r1
	bls	.LBB15_5
	b	.LBB15_4
.LBB15_4:
.Ltmp638:
	.loc	1 1415 15 is_stmt 1             @ ../Core/Src/processing.c:1415:15
	movw	r0, :lower16:SensorInstructionTransmit.ReturnNum
	movt	r0, :upper16:SensorInstructionTransmit.ReturnNum
	movs	r1, #1
	strb	r1, [r0]
	.loc	1 1416 5                        @ ../Core/Src/processing.c:1416:5
	str	r0, [sp, #20]
	b	.LBB15_27
.Ltmp639:
.LBB15_5:                               @   in Loop: Header=BB15_3 Depth=2
	.loc	1 1419 30                       @ ../Core/Src/processing.c:1419:30
	movw	r0, :lower16:USART_Data
	movt	r0, :upper16:USART_Data
	movw	r1, #14884
	ldrb	r0, [r0, r1]
.Ltmp640:
	.loc	1 1419 7 is_stmt 0              @ ../Core/Src/processing.c:1419:7
	cmp	r0, #1
	bne	.LBB15_7
	b	.LBB15_6
.LBB15_6:                               @   in Loop: Header=BB15_1 Depth=1
.Ltmp641:
	.loc	1 1421 37 is_stmt 1             @ ../Core/Src/processing.c:1421:37
	movw	r1, :lower16:SYS_tickTime
	movt	r1, :upper16:SYS_tickTime
	movs	r0, #0
	str	r0, [r1, #8]
	.loc	1 1422 5                        @ ../Core/Src/processing.c:1422:5
	b	.LBB15_8
.Ltmp642:
.LBB15_7:                               @   in Loop: Header=BB15_3 Depth=2
	.loc	1 1411 3                        @ ../Core/Src/processing.c:1411:3
	b	.LBB15_3
.LBB15_8:                               @   in Loop: Header=BB15_1 Depth=1
	.loc	1 1427 3                        @ ../Core/Src/processing.c:1427:3
	b	.LBB15_9
.LBB15_9:                               @   Parent Loop BB15_1 Depth=1
                                        @ =>  This Inner Loop Header: Depth=2
.Ltmp643:
	.loc	1 1430 30                       @ ../Core/Src/processing.c:1430:30
	movw	r0, :lower16:USART_Data
	movt	r0, :upper16:USART_Data
	ldrb	r0, [r0]
	.loc	1 1430 49 is_stmt 0             @ ../Core/Src/processing.c:1430:49
	cbnz	r0, .LBB15_15
	b	.LBB15_10
.LBB15_10:                              @   in Loop: Header=BB15_9 Depth=2
	.loc	1 1431 34 is_stmt 1             @ ../Core/Src/processing.c:1431:34
	ldr	r1, [sp, #16]
	.loc	1 1431 5 is_stmt 0              @ ../Core/Src/processing.c:1431:5
	movw	r0, :lower16:.L.str.32
	movt	r0, :upper16:.L.str.32
	bl	strcmp
	.loc	1 1431 52                       @ ../Core/Src/processing.c:1431:52
	cbz	r0, .LBB15_15
	b	.LBB15_11
.LBB15_11:                              @   in Loop: Header=BB15_9 Depth=2
	.loc	1 1432 37 is_stmt 1             @ ../Core/Src/processing.c:1432:37
	ldr	r1, [sp, #16]
	.loc	1 1432 5 is_stmt 0              @ ../Core/Src/processing.c:1432:5
	movw	r0, :lower16:.L.str.33
	movt	r0, :upper16:.L.str.33
	bl	strcmp
.Ltmp644:
	.loc	1 1430 7 is_stmt 1              @ ../Core/Src/processing.c:1430:7
	cbz	r0, .LBB15_15
	b	.LBB15_12
.LBB15_12:                              @   in Loop: Header=BB15_9 Depth=2
.Ltmp645:
	.loc	1 1434 27                       @ ../Core/Src/processing.c:1434:27
	movw	r0, :lower16:comVariableBlock
	movt	r0, :upper16:comVariableBlock
	ldrb	r0, [r0, #13]
.Ltmp646:
	.loc	1 1434 10 is_stmt 0             @ ../Core/Src/processing.c:1434:10
	cmp	r0, #1
	bne	.LBB15_14
	b	.LBB15_13
.LBB15_13:
.Ltmp647:
	.loc	1 1436 17 is_stmt 1             @ ../Core/Src/processing.c:1436:17
	movw	r0, :lower16:SensorInstructionTransmit.ReturnNum
	movt	r0, :upper16:SensorInstructionTransmit.ReturnNum
	movs	r1, #5
	strb	r1, [r0]
	.loc	1 1437 7                        @ ../Core/Src/processing.c:1437:7
	str	r0, [sp, #20]
	b	.LBB15_27
.Ltmp648:
.LBB15_14:                              @   in Loop: Header=BB15_9 Depth=2
	.loc	1 1439 4                        @ ../Core/Src/processing.c:1439:4
	b	.LBB15_15
.Ltmp649:
.LBB15_15:                              @   in Loop: Header=BB15_9 Depth=2
	.loc	1 1440 20                       @ ../Core/Src/processing.c:1440:20
	movw	r0, :lower16:SYS_tickTime
	movt	r0, :upper16:SYS_tickTime
	ldr	r0, [r0, #8]
	.loc	1 1440 40 is_stmt 0             @ ../Core/Src/processing.c:1440:40
	movw	r1, :lower16:ResendTime
	movt	r1, :upper16:ResendTime
	ldrb	r1, [r1]
	.loc	1 1440 52                       @ ../Core/Src/processing.c:1440:52
	cmp	r0, r1
	bls	.LBB15_18
	b	.LBB15_16
.LBB15_16:                              @   in Loop: Header=BB15_9 Depth=2
	.loc	1 1440 55                       @ ../Core/Src/processing.c:1440:55
	ldr	r0, [sp, #8]
	.loc	1 1440 57                       @ ../Core/Src/processing.c:1440:57
	movw	r1, :lower16:Resend
	movt	r1, :upper16:Resend
	ldrb	r1, [r1]
	.loc	1 1440 63                       @ ../Core/Src/processing.c:1440:63
	subs	r1, #1
.Ltmp650:
	.loc	1 1440 7                        @ ../Core/Src/processing.c:1440:7
	cmp	r0, r1
	bge	.LBB15_18
	b	.LBB15_17
.LBB15_17:                              @   in Loop: Header=BB15_1 Depth=1
.Ltmp651:
	.loc	1 1442 5 is_stmt 1              @ ../Core/Src/processing.c:1442:5
	b	.LBB15_24
.Ltmp652:
.LBB15_18:                              @   in Loop: Header=BB15_9 Depth=2
	.loc	1 1443 26                       @ ../Core/Src/processing.c:1443:26
	movw	r0, :lower16:SYS_tickTime
	movt	r0, :upper16:SYS_tickTime
	ldr	r0, [r0, #8]
	.loc	1 1443 47 is_stmt 0             @ ../Core/Src/processing.c:1443:47
	ldrh.w	r1, [sp, #14]
.Ltmp653:
	.loc	1 1443 13                       @ ../Core/Src/processing.c:1443:13
	cmp	r0, r1
	bls	.LBB15_20
	b	.LBB15_19
.LBB15_19:
.Ltmp654:
	.loc	1 1445 15 is_stmt 1             @ ../Core/Src/processing.c:1445:15
	movw	r0, :lower16:SensorInstructionTransmit.ReturnNum
	movt	r0, :upper16:SensorInstructionTransmit.ReturnNum
	movs	r1, #1
	strb	r1, [r0]
	.loc	1 1446 5                        @ ../Core/Src/processing.c:1446:5
	str	r0, [sp, #20]
	b	.LBB15_27
.Ltmp655:
.LBB15_20:                              @   in Loop: Header=BB15_9 Depth=2
	.loc	1 0 5 is_stmt 0                 @ ../Core/Src/processing.c:0:5
	b	.LBB15_21
.LBB15_21:                              @   in Loop: Header=BB15_9 Depth=2
.Ltmp656:
	.loc	1 1449 30 is_stmt 1             @ ../Core/Src/processing.c:1449:30
	movw	r0, :lower16:USART_Data
	movt	r0, :upper16:USART_Data
	movw	r1, #14885
	ldrb	r0, [r0, r1]
.Ltmp657:
	.loc	1 1449 7 is_stmt 0              @ ../Core/Src/processing.c:1449:7
	cmp	r0, #1
	bne	.LBB15_23
	b	.LBB15_22
.LBB15_22:
.Ltmp658:
	.loc	1 1451 15 is_stmt 1             @ ../Core/Src/processing.c:1451:15
	movw	r0, :lower16:SensorInstructionTransmit.ReturnNum
	movt	r0, :upper16:SensorInstructionTransmit.ReturnNum
	movs	r1, #0
	strb	r1, [r0]
	.loc	1 1452 5                        @ ../Core/Src/processing.c:1452:5
	str	r0, [sp, #20]
	b	.LBB15_27
.Ltmp659:
.LBB15_23:                              @   in Loop: Header=BB15_9 Depth=2
	.loc	1 1427 3                        @ ../Core/Src/processing.c:1427:3
	b	.LBB15_9
.LBB15_24:                              @   in Loop: Header=BB15_1 Depth=1
	.loc	1 1455 2                        @ ../Core/Src/processing.c:1455:2
	b	.LBB15_25
.Ltmp660:
.LBB15_25:                              @   in Loop: Header=BB15_1 Depth=1
	.loc	1 1402 25                       @ ../Core/Src/processing.c:1402:25
	ldr	r0, [sp, #8]
	adds	r0, #1
	str	r0, [sp, #8]
	.loc	1 1402 2 is_stmt 0              @ ../Core/Src/processing.c:1402:2
	b	.LBB15_1
.Ltmp661:
.LBB15_26:
	.loc	1 1457 15 is_stmt 1             @ ../Core/Src/processing.c:1457:15
	movw	r0, :lower16:SensorInstructionTransmit.ReturnNum
	movt	r0, :upper16:SensorInstructionTransmit.ReturnNum
	movs	r1, #0
	strb	r1, [r0]
	.loc	1 1458 5                        @ ../Core/Src/processing.c:1458:5
	str	r0, [sp, #20]
	b	.LBB15_27
.LBB15_27:
	.loc	1 1460 1                        @ ../Core/Src/processing.c:1460:1
	ldr	r0, [sp, #20]
	add	sp, #24
	pop	{r7, pc}
.Ltmp662:
.Lfunc_end15:
	.size	SensorInstructionTransmit, .Lfunc_end15-SensorInstructionTransmit
	.cfi_endproc
	.cantunwind
	.fnend
                                        @ -- End function
	.section	.text.My_Delay,"ax",%progbits
	.hidden	My_Delay                        @ -- Begin function My_Delay
	.globl	My_Delay
	.p2align	2
	.type	My_Delay,%function
	.code	16                              @ @My_Delay
	.thumb_func
My_Delay:
.Lfunc_begin16:
	.loc	1 1466 0                        @ ../Core/Src/processing.c:1466:0
	.fnstart
	.cfi_startproc
@ %bb.0:
	.save	{r7, lr}
	push	{r7, lr}
	.cfi_def_cfa_offset 8
	.cfi_offset lr, -4
	.cfi_offset r7, -8
	.pad	#16
	sub	sp, #16
	.cfi_def_cfa_offset 24
	str	r0, [sp, #8]
.Ltmp663:
	.loc	1 1467 24 prologue_end          @ ../Core/Src/processing.c:1467:24
	bl	HAL_GetTick
	.loc	1 1467 12 is_stmt 0             @ ../Core/Src/processing.c:1467:12
	str	r0, [sp, #4]
	.loc	1 1468 19 is_stmt 1             @ ../Core/Src/processing.c:1468:19
	ldr	r0, [sp, #8]
	.loc	1 1468 12 is_stmt 0             @ ../Core/Src/processing.c:1468:12
	str	r0, [sp]
.Ltmp664:
	.loc	1 1471 7 is_stmt 1              @ ../Core/Src/processing.c:1471:7
	ldr	r0, [sp]
.Ltmp665:
	.loc	1 1471 7 is_stmt 0              @ ../Core/Src/processing.c:1471:7
	adds	r0, #1
	cbz	r0, .LBB16_2
	b	.LBB16_1
.LBB16_1:
.Ltmp666:
	.loc	1 1473 24 is_stmt 1             @ ../Core/Src/processing.c:1473:24
	movw	r0, :lower16:uwTickFreq
	movt	r0, :upper16:uwTickFreq
	ldrb	r1, [r0]
	.loc	1 1473 10 is_stmt 0             @ ../Core/Src/processing.c:1473:10
	ldr	r0, [sp]
	add	r0, r1
	str	r0, [sp]
	.loc	1 1474 3 is_stmt 1              @ ../Core/Src/processing.c:1474:3
	b	.LBB16_2
.Ltmp667:
.LBB16_2:
	.loc	1 1476 3                        @ ../Core/Src/processing.c:1476:3
	b	.LBB16_3
.LBB16_3:                               @ =>This Inner Loop Header: Depth=1
	.loc	1 1476 10 is_stmt 0             @ ../Core/Src/processing.c:1476:10
	bl	HAL_GetTick
	.loc	1 1476 26                       @ ../Core/Src/processing.c:1476:26
	ldr	r1, [sp, #4]
	.loc	1 1476 24                       @ ../Core/Src/processing.c:1476:24
	subs	r0, r0, r1
	.loc	1 1476 39                       @ ../Core/Src/processing.c:1476:39
	ldr	r1, [sp]
	.loc	1 1476 3                        @ ../Core/Src/processing.c:1476:3
	cmp	r0, r1
	bhs	.LBB16_9
	b	.LBB16_4
.LBB16_4:                               @   in Loop: Header=BB16_3 Depth=1
.Ltmp668:
	.loc	1 1478 31 is_stmt 1             @ ../Core/Src/processing.c:1478:31
	movw	r0, :lower16:USART_Data
	movt	r0, :upper16:USART_Data
	ldrb	r0, [r0]
.Ltmp669:
	.loc	1 1478 8 is_stmt 0              @ ../Core/Src/processing.c:1478:8
	cbnz	r0, .LBB16_8
	b	.LBB16_5
.LBB16_5:                               @   in Loop: Header=BB16_3 Depth=1
.Ltmp670:
	.loc	1 1480 25 is_stmt 1             @ ../Core/Src/processing.c:1480:25
	movw	r0, :lower16:comVariableBlock
	movt	r0, :upper16:comVariableBlock
	ldrb	r0, [r0, #13]
.Ltmp671:
	.loc	1 1480 8 is_stmt 0              @ ../Core/Src/processing.c:1480:8
	cmp	r0, #1
	bne	.LBB16_7
	b	.LBB16_6
.LBB16_6:
	.loc	1 0 8                           @ ../Core/Src/processing.c:0:8
	movs	r0, #0
.Ltmp672:
	.loc	1 1482 5 is_stmt 1              @ ../Core/Src/processing.c:1482:5
	strb.w	r0, [sp, #15]
	b	.LBB16_9
.Ltmp673:
.LBB16_7:                               @   in Loop: Header=BB16_3 Depth=1
	.loc	1 1484 3                        @ ../Core/Src/processing.c:1484:3
	b	.LBB16_8
.Ltmp674:
.LBB16_8:                               @   in Loop: Header=BB16_3 Depth=1
	.loc	1 1476 3                        @ ../Core/Src/processing.c:1476:3
	b	.LBB16_3
.LBB16_9:
	.loc	1 1487 1                        @ ../Core/Src/processing.c:1487:1
	ldrb.w	r0, [sp, #15]
	add	sp, #16
	pop	{r7, pc}
.Ltmp675:
.Lfunc_end16:
	.size	My_Delay, .Lfunc_end16-My_Delay
	.cfi_endproc
	.cantunwind
	.fnend
                                        @ -- End function
	.hidden	WindowsTxtStr                   @ @WindowsTxtStr
	.type	WindowsTxtStr,%object
	.section	.rodata.WindowsTxtStr,"a",%progbits
	.globl	WindowsTxtStr
WindowsTxtStr:
	.asciz	"\265\347\321\2716V \000\000\000\000\000\000\000\000\000\000\000\000\000\000\000\000\000\000\000\000\000\000\000\000\000\000\000\000\000\000\000\000"
	.asciz	"\265\347\321\2715V \000\000\000\000\000\000\000\000\000\000\000\000\000\000\000\000\000\000\000\000\000\000\000\000\000\000\000\000\000\000\000\000"
	.asciz	"\265\347\321\271AVCC \000\000\000\000\000\000\000\000\000\000\000\000\000\000\000\000\000\000\000\000\000\000\000\000\000\000\000\000\000\000"
	.asciz	"\265\347\321\2713.3V \000\000\000\000\000\000\000\000\000\000\000\000\000\000\000\000\000\000\000\000\000\000\000\000\000\000\000\000\000\000"
	.asciz	"\320\243\327\274\263\365\312\274\273\257\000\000\000\000\000\000\000\000\000\000\000\000\000\000\000\000\000\000\000\000\000\000\000\000\000\000\000\000\000"
	.asciz	"\320\243\327\274\312\375\276\335\262\250\266\257FINE \000\000\000\000\000\000\000\000\000\000\000\000\000\000\000\000\000\000\000\000\000\000"
	.asciz	"\320\243\327\274FINE100mA \000\000\000\000\000\000\000\000\000\000\000\000\000\000\000\000\000\000\000\000\000\000\000\000\000"
	.asciz	"\320\243\327\274FINE\327\324\274\354 \000\000\000\000\000\000\000\000\000\000\000\000\000\000\000\000\000\000\000\000\000\000\000\000\000\000"
	.asciz	"\320\243\327\274FINE DAC \000\000\000\000\000\000\000\000\000\000\000\000\000\000\000\000\000\000\000\000\000\000\000\000\000\000"
	.asciz	"\320\243\327\274\265\347\301\367FINE \000\000\000\000\000\000\000\000\000\000\000\000\000\000\000\000\000\000\000\000\000\000\000\000\000\000"
	.asciz	"\320\243\327\274\312\375\326\265FINE \000\000\000\000\000\000\000\000\000\000\000\000\000\000\000\000\000\000\000\000\000\000\000\000\000\000"
	.asciz	"\320\243\327\274\262\250\266\257FINE \000\000\000\000\000\000\000\000\000\000\000\000\000\000\000\000\000\000\000\000\000\000\000\000\000\000"
	.asciz	"\320\243\327\274\304\243\312\275\307\320\273\273\000\000\000\000\000\000\000\000\000\000\000\000\000\000\000\000\000\000\000\000\000\000\000\000\000\000\000"
	.asciz	"\320\243\327\274\312\375\276\335\262\250\266\257HIGH \000\000\000\000\000\000\000\000\000\000\000\000\000\000\000\000\000\000\000\000\000\000"
	.asciz	"\320\243\327\274\320\243\327\274HIGH60mA \000\000\000\000\000\000\000\000\000\000\000\000\000\000\000\000\000\000\000\000\000\000"
	.asciz	"\320\243\327\274HIGH\327\324\274\354 \000\000\000\000\000\000\000\000\000\000\000\000\000\000\000\000\000\000\000\000\000\000\000\000\000\000"
	.asciz	"\320\243\327\274HIGH DAC \000\000\000\000\000\000\000\000\000\000\000\000\000\000\000\000\000\000\000\000\000\000\000\000\000\000"
	.asciz	"\320\243\327\274\265\347\301\367HIGH \000\000\000\000\000\000\000\000\000\000\000\000\000\000\000\000\000\000\000\000\000\000\000\000\000\000"
	.asciz	"\320\243\327\274\312\375\326\265HIGH \000\000\000\000\000\000\000\000\000\000\000\000\000\000\000\000\000\000\000\000\000\000\000\000\000\000"
	.asciz	"\320\243\327\274\262\250\266\257HIGH \000\000\000\000\000\000\000\000\000\000\000\000\000\000\000\000\000\000\000\000\000\000\000\000\000\000"
	.asciz	"\312\375\302\353\271\3341\000\000\000\000\000\000\000\000\000\000\000\000\000\000\000\000\000\000\000\000\000\000\000\000\000\000\000\000\000\000\000\000"
	.asciz	"\312\375\302\353\271\3342\000\000\000\000\000\000\000\000\000\000\000\000\000\000\000\000\000\000\000\000\000\000\000\000\000\000\000\000\000\000\000\000"
	.asciz	"\312\375\302\353\271\3343\000\000\000\000\000\000\000\000\000\000\000\000\000\000\000\000\000\000\000\000\000\000\000\000\000\000\000\000\000\000\000\000"
	.asciz	"\312\375\302\353\271\3344\000\000\000\000\000\000\000\000\000\000\000\000\000\000\000\000\000\000\000\000\000\000\000\000\000\000\000\000\000\000\000\000"
	.asciz	"\312\375\302\353\271\3345\000\000\000\000\000\000\000\000\000\000\000\000\000\000\000\000\000\000\000\000\000\000\000\000\000\000\000\000\000\000\000\000"
	.asciz	"\312\375\302\353\271\3346\000\000\000\000\000\000\000\000\000\000\000\000\000\000\000\000\000\000\000\000\000\000\000\000\000\000\000\000\000\000\000\000"
	.asciz	"\312\375\302\353\271\3347\000\000\000\000\000\000\000\000\000\000\000\000\000\000\000\000\000\000\000\000\000\000\000\000\000\000\000\000\000\000\000\000"
	.asciz	"\312\375\302\353\271\3348\000\000\000\000\000\000\000\000\000\000\000\000\000\000\000\000\000\000\000\000\000\000\000\000\000\000\000\000\000\000\000\000"
	.asciz	"\317\373\272\304\265\347\301\367 \000\000\000\000\000\000\000\000\000\000\000\000\000\000\000\000\000\000\000\000\000\000\000\000\000\000\000\000\000\000"
	.asciz	"\312\344\310\353\317\337\000\000\000\000\000\000\000\000\000\000\000\000\000\000\000\000\000\000\000\000\000\000\000\000\000\000\000\000\000\000\000\000\000"
	.asciz	"NPN\302\251\265\347\265\347\301\367 \000\000\000\000\000\000\000\000\000\000\000\000\000\000\000\000\000\000\000\000\000\000\000\000\000\000\000"
	.asciz	"NPN\277\252\306\364\265\347\301\367 \000\000\000\000\000\000\000\000\000\000\000\000\000\000\000\000\000\000\000\000\000\000\000\000\000\000\000"
	.asciz	"NPN\327\324\274\354\270\272\324\330 \000\000\000\000\000\000\000\000\000\000\000\000\000\000\000\000\000\000\000\000\000\000\000\000\000\000\000"
	.asciz	"NPN\266\314\302\267\327\324\274\354 \000\000\000\000\000\000\000\000\000\000\000\000\000\000\000\000\000\000\000\000\000\000\000\000\000\000\000"
	.asciz	"NPN\266\314\302\267\264\370\324\330\327\324\274\354 \000\000\000\000\000\000\000\000\000\000\000\000\000\000\000\000\000\000\000\000\000\000\000"
	.asciz	"NPN\266\314\302\267\264\370\324\330 \000\000\000\000\000\000\000\000\000\000\000\000\000\000\000\000\000\000\000\000\000\000\000\000\000\000\000"
	.asciz	"NPN\262\320\323\340\265\347\301\367 \000\000\000\000\000\000\000\000\000\000\000\000\000\000\000\000\000\000\000\000\000\000\000\000\000\000\000"
	.asciz	"NPN\262\320\323\340\265\347\321\271 \000\000\000\000\000\000\000\000\000\000\000\000\000\000\000\000\000\000\000\000\000\000\000\000\000\000\000"
	.asciz	"PNP\302\251\265\347\265\347\301\367 \000\000\000\000\000\000\000\000\000\000\000\000\000\000\000\000\000\000\000\000\000\000\000\000\000\000\000"
	.asciz	"PNP\277\252\306\364\265\347\301\367 \000\000\000\000\000\000\000\000\000\000\000\000\000\000\000\000\000\000\000\000\000\000\000\000\000\000\000"
	.asciz	"PNP\327\324\274\354\270\272\324\330 \000\000\000\000\000\000\000\000\000\000\000\000\000\000\000\000\000\000\000\000\000\000\000\000\000\000\000"
	.asciz	"PNP\266\314\302\267\327\324\274\354 \000\000\000\000\000\000\000\000\000\000\000\000\000\000\000\000\000\000\000\000\000\000\000\000\000\000\000"
	.asciz	"PNP\266\314\302\267\264\370\324\330\327\324\274\354 \000\000\000\000\000\000\000\000\000\000\000\000\000\000\000\000\000\000\000\000\000\000\000"
	.asciz	"PNP\266\314\302\267\264\370\324\330 \000\000\000\000\000\000\000\000\000\000\000\000\000\000\000\000\000\000\000\000\000\000\000\000\000\000\000"
	.asciz	"PNP\262\320\323\340\265\347\301\367 \000\000\000\000\000\000\000\000\000\000\000\000\000\000\000\000\000\000\000\000\000\000\000\000\000\000\000"
	.asciz	"PNP\262\320\323\340\265\347\321\271 \000\000\000\000\000\000\000\000\000\000\000\000\000\000\000\000\000\000\000\000\000\000\000\000\000\000\000"
	.asciz	"\265\347\324\264\267\264\275\323\262\342\312\324\000\000\000\000\000\000\000\000\000\000\000\000\000\000\000\000\000\000\000\000\000\000\000\000\000\000\000"
	.asciz	"\260\264\274\374\262\342\312\324\326\320\000\000\000\000\000\000\000\000\000\000\000\000\000\000\000\000\000\000\000\000\000\000\000\000\000\000\000\000\000"
	.asciz	"\260\264\274\374\262\342\312\324 \000\000\000\000\000\000\000\000\000\000\000\000\000\000\000\000\000\000\000\000\000\000\000\000\000\000\000\000\000\000"
	.size	WindowsTxtStr, 1960

	.type	DataFilling.StringBuf,%object   @ @DataFilling.StringBuf
	.section	.bss.DataFilling.StringBuf,"aw",%nobits
DataFilling.StringBuf:
	.zero	50
	.size	DataFilling.StringBuf, 50

	.type	.L.str,%object                  @ @.str
	.section	.rodata.str1.1,"aMS",%progbits,1
.L.str:
	.asciz	"page_main"
	.size	.L.str, 10

	.type	.L.str.1,%object                @ @.str.1
.L.str.1:
	.asciz	"page main%c%c%c"
	.size	.L.str.1, 16

	.type	.L.str.2,%object                @ @.str.2
.L.str.2:
	.asciz	"page_CurConsume_T"
	.size	.L.str.2, 18

	.type	.L.str.3,%object                @ @.str.3
.L.str.3:
	.asciz	"page CC_T%c%c%c"
	.size	.L.str.3, 16

	.type	.L.str.4,%object                @ @.str.4
.L.str.4:
	.asciz	"page_KV_T"
	.size	.L.str.4, 10

	.type	.L.str.5,%object                @ @.str.5
.L.str.5:
	.asciz	"page KV_T%c%c%c"
	.size	.L.str.5, 16

	.type	.L.str.6,%object                @ @.str.6
.L.str.6:
	.asciz	"page_HL_T"
	.size	.L.str.6, 10

	.type	.L.str.7,%object                @ @.str.7
.L.str.7:
	.asciz	"page HL_T%c%c%c"
	.size	.L.str.7, 16

	.type	.L.str.8,%object                @ @.str.8
.L.str.8:
	.asciz	"page_Setting"
	.size	.L.str.8, 13

	.type	.L.str.9,%object                @ @.str.9
.L.str.9:
	.asciz	"page Setting%c%c%c"
	.size	.L.str.9, 19

	.type	.L.str.10,%object               @ @.str.10
.L.str.10:
	.asciz	"page_Data"
	.size	.L.str.10, 10

	.type	.L.str.11,%object               @ @.str.11
.L.str.11:
	.asciz	"page Data%c%c%c"
	.size	.L.str.11, 16

	.type	.L.str.12,%object               @ @.str.12
.L.str.12:
	.asciz	"page_Button"
	.size	.L.str.12, 12

	.type	.L.str.13,%object               @ @.str.13
.L.str.13:
	.asciz	"page Button%c%c%c"
	.size	.L.str.13, 18

	.type	.L.str.14,%object               @ @.str.14
.L.str.14:
	.asciz	"page_Cali"
	.size	.L.str.14, 10

	.type	.L.str.15,%object               @ @.str.15
.L.str.15:
	.asciz	"page Cali%c%c%c"
	.size	.L.str.15, 16

	.type	.L.str.16,%object               @ @.str.16
.L.str.16:
	.asciz	"mainClickVa10.val=1000%c%c%c"
	.size	.L.str.16, 29

	.type	SetAutoDetecMultimeter.ReturnNum,%object @ @SetAutoDetecMultimeter.ReturnNum
	.section	.bss.SetAutoDetecMultimeter.ReturnNum,"aw",%nobits
SetAutoDetecMultimeter.ReturnNum:
	.byte	0                               @ 0x0
	.size	SetAutoDetecMultimeter.ReturnNum, 1

	.type	SetAutoDetecMultimeter.Sendstr,%object @ @SetAutoDetecMultimeter.Sendstr
	.section	.bss.SetAutoDetecMultimeter.Sendstr,"aw",%nobits
SetAutoDetecMultimeter.Sendstr:
	.zero	50
	.size	SetAutoDetecMultimeter.Sendstr, 50

	.type	.L__const.SetAutoDetecMultimeter.SenfstrBu,%object @ @__const.SetAutoDetecMultimeter.SenfstrBu
	.section	.rodata..L__const.SetAutoDetecMultimeter.SenfstrBu,"a",%progbits
.L__const.SetAutoDetecMultimeter.SenfstrBu:
	.asciz	"CONF:AUTO OFF\000\000\000\000\000\000"
	.asciz	"CONF:AUTO ON\000\000\000\000\000\000\000"
	.asciz	"CONF:AUTO ?\000\000\000\000\000\000\000\000"
	.size	.L__const.SetAutoDetecMultimeter.SenfstrBu, 60

	.type	.L.str.17,%object               @ @.str.17
	.section	.rodata.str1.1,"aMS",%progbits,1
.L.str.17:
	.asciz	"%s%c%s%c"
	.size	.L.str.17, 9

	.type	GetMultimeter.ReturnNum,%object @ @GetMultimeter.ReturnNum
	.section	.bss.GetMultimeter.ReturnNum,"aw",%nobits
GetMultimeter.ReturnNum:
	.byte	0                               @ 0x0
	.size	GetMultimeter.ReturnNum, 1

	.type	GetMultimeter.Sendstr,%object   @ @GetMultimeter.Sendstr
	.section	.bss.GetMultimeter.Sendstr,"aw",%nobits
GetMultimeter.Sendstr:
	.zero	50
	.size	GetMultimeter.Sendstr, 50

	.type	.L__const.GetMultimeter.SenfstrBuf1,%object @ @__const.GetMultimeter.SenfstrBuf1
	.section	.rodata..L__const.GetMultimeter.SenfstrBuf1,"a",%progbits
.L__const.GetMultimeter.SenfstrBuf1:
	.asciz	"CONFigure:FUNCtion?\000\000\000\000\000\000\000\000\000\000\000\000\000\000\000\000\000\000\000\000\000\000\000\000\000\000\000\000\000\000"
	.asciz	"CONFigure:RANGe?\000\000\000\000\000\000\000\000\000\000\000\000\000\000\000\000\000\000\000\000\000\000\000\000\000\000\000\000\000\000\000\000\000"
	.asciz	"CONF:VOLT:DC 20\000\000\000\000\000\000\000\000\000\000\000\000\000\000\000\000\000\000\000\000\000\000\000\000\000\000\000\000\000\000\000\000\000\000"
	.asciz	"VAL1?\000\000\000\000\000\000\000\000\000\000\000\000\000\000\000\000\000\000\000\000\000\000\000\000\000\000\000\000\000\000\000\000\000\000\000\000\000\000\000\000\000\000\000\000"
	.size	.L__const.GetMultimeter.SenfstrBuf1, 200

	.type	.L__const.GetMultimeter.SenfstrBuf2,%object @ @__const.GetMultimeter.SenfstrBuf2
	.section	.rodata..L__const.GetMultimeter.SenfstrBuf2,"a",%progbits
.L__const.GetMultimeter.SenfstrBuf2:
	.asciz	"CONFigure:FUNCtion?\000\000\000\000\000\000\000\000\000\000\000\000\000\000\000\000\000\000\000\000\000\000\000\000\000\000\000\000\000\000"
	.asciz	"CONFigure:RANGe?\000\000\000\000\000\000\000\000\000\000\000\000\000\000\000\000\000\000\000\000\000\000\000\000\000\000\000\000\000\000\000\000\000"
	.asciz	"CONF:CURR:DC 10e-2\000\000\000\000\000\000\000\000\000\000\000\000\000\000\000\000\000\000\000\000\000\000\000\000\000\000\000\000\000\000\000"
	.asciz	"VAL1?\000\000\000\000\000\000\000\000\000\000\000\000\000\000\000\000\000\000\000\000\000\000\000\000\000\000\000\000\000\000\000\000\000\000\000\000\000\000\000\000\000\000\000\000"
	.size	.L__const.GetMultimeter.SenfstrBuf2, 200

	.type	.L__const.GetMultimeter.SenfstrBuf3,%object @ @__const.GetMultimeter.SenfstrBuf3
	.section	.rodata..L__const.GetMultimeter.SenfstrBuf3,"a",%progbits
.L__const.GetMultimeter.SenfstrBuf3:
	.asciz	"CONFigure:FUNCtion?\000\000\000\000\000\000\000\000\000\000\000\000\000\000\000\000\000\000\000\000\000\000\000\000\000\000\000\000\000\000"
	.asciz	"CONFigure:RANGe?\000\000\000\000\000\000\000\000\000\000\000\000\000\000\000\000\000\000\000\000\000\000\000\000\000\000\000\000\000\000\000\000\000"
	.asciz	"CONF:VOLT:AC 20\000\000\000\000\000\000\000\000\000\000\000\000\000\000\000\000\000\000\000\000\000\000\000\000\000\000\000\000\000\000\000\000\000\000"
	.asciz	"VAL1?\000\000\000\000\000\000\000\000\000\000\000\000\000\000\000\000\000\000\000\000\000\000\000\000\000\000\000\000\000\000\000\000\000\000\000\000\000\000\000\000\000\000\000\000"
	.size	.L__const.GetMultimeter.SenfstrBuf3, 200

	.type	.L__const.GetMultimeter.CompareStr,%object @ @__const.GetMultimeter.CompareStr
	.section	.rodata..L__const.GetMultimeter.CompareStr,"a",%progbits
.L__const.GetMultimeter.CompareStr:
	.asciz	"VOLT\000\000\000\000\000\000\000\000\000\000\000\000\000\000\000\000\000\000\000\000\000\000\000\000\000\000\000\000\000\000\000\000\000\000\000\000\000\000\000\000\000\000\000\000\000"
	.asciz	"CURR\000\000\000\000\000\000\000\000\000\000\000\000\000\000\000\000\000\000\000\000\000\000\000\000\000\000\000\000\000\000\000\000\000\000\000\000\000\000\000\000\000\000\000\000\000"
	.asciz	"VOLT:AC\000\000\000\000\000\000\000\000\000\000\000\000\000\000\000\000\000\000\000\000\000\000\000\000\000\000\000\000\000\000\000\000\000\000\000\000\000\000\000\000\000\000"
	.asciz	"20\000\000\000\000\000\000\000\000\000\000\000\000\000\000\000\000\000\000\000\000\000\000\000\000\000\000\000\000\000\000\000\000\000\000\000\000\000\000\000\000\000\000\000\000\000\000\000"
	.size	.L__const.GetMultimeter.CompareStr, 200

	.type	GetMultimeter.SkipFlag,%object  @ @GetMultimeter.SkipFlag
	.section	.bss.GetMultimeter.SkipFlag,"aw",%nobits
GetMultimeter.SkipFlag:
	.byte	0                               @ 0x0
	.size	GetMultimeter.SkipFlag, 1

	.type	.L.str.18,%object               @ @.str.18
	.section	.rodata.str1.1,"aMS",%progbits,1
.L.str.18:
	.asciz	"%s%c%c"
	.size	.L.str.18, 7

	.type	.L.str.19,%object               @ @.str.19
.L.str.19:
	.asciz	"%s%c"
	.size	.L.str.19, 5

	.type	.L__const.SetPower.SendBuf,%object @ @__const.SetPower.SendBuf
	.section	.rodata..L__const.SetPower.SendBuf,"a",%progbits
.L__const.SetPower.SendBuf:
	.asciz	"VOLTage \000\000\000\000\000\000\000\000\000\000\000"
	.asciz	"CURRent \000\000\000\000\000\000\000\000\000\000\000"
	.asciz	"MEASure: VOLTage ?\000"
	.asciz	"MEASure: POWer ?\000\000\000"
	.asciz	"MEASure: CURRent ?\000"
	.size	.L__const.SetPower.SendBuf, 100

	.type	SetPower.ReturnNum,%object      @ @SetPower.ReturnNum
	.section	.bss.SetPower.ReturnNum,"aw",%nobits
SetPower.ReturnNum:
	.byte	0                               @ 0x0
	.size	SetPower.ReturnNum, 1

	.type	SetPower.SendstrTrue,%object    @ @SetPower.SendstrTrue
	.section	.bss.SetPower.SendstrTrue,"aw",%nobits
SetPower.SendstrTrue:
	.zero	70
	.size	SetPower.SendstrTrue, 70

	.type	SetPower.Sendstr,%object        @ @SetPower.Sendstr
	.section	.bss.SetPower.Sendstr,"aw",%nobits
SetPower.Sendstr:
	.zero	30
	.size	SetPower.Sendstr, 30

	.type	.L.str.20,%object               @ @.str.20
	.section	.rodata.str1.1,"aMS",%progbits,1
.L.str.20:
	.asciz	"%s%f%c"
	.size	.L.str.20, 7

	.type	SetPowerOut.ReturnNum,%object   @ @SetPowerOut.ReturnNum
	.section	.bss.SetPowerOut.ReturnNum,"aw",%nobits
SetPowerOut.ReturnNum:
	.byte	0                               @ 0x0
	.size	SetPowerOut.ReturnNum, 1

	.type	.L__const.SetPowerOut.SendBuf,%object @ @__const.SetPowerOut.SendBuf
	.section	.rodata..L__const.SetPowerOut.SendBuf,"a",%progbits
.L__const.SetPowerOut.SendBuf:
	.asciz	"OUTPut OFF\000\000\000\000\000\000\000\000\000"
	.asciz	"OUTPut ON\000\000\000\000\000\000\000\000\000\000"
	.asciz	"OUTPut ?\000\000\000\000\000\000\000\000\000\000\000"
	.size	.L__const.SetPowerOut.SendBuf, 60

	.type	SetPowerOut.SendstrTrue,%object @ @SetPowerOut.SendstrTrue
	.section	.bss.SetPowerOut.SendstrTrue,"aw",%nobits
SetPowerOut.SendstrTrue:
	.zero	20
