	.text
	.syntax unified
	.eabi_attribute	67, "2.09"	@ Tag_conformance
	.cpu	cortex-m4
	.eabi_attribute	6, 13	@ Tag_CPU_arch
	.eabi_attribute	7, 77	@ Tag_CPU_arch_profile
	.eabi_attribute	8, 0	@ Tag_ARM_ISA_use
	.eabi_attribute	9, 2	@ Tag_THUMB_ISA_use
	.fpu	fpv4-sp-d16
	.eabi_attribute	27, 1	@ Tag_ABI_HardFP_use
	.eabi_attribute	36, 1	@ Tag_FP_HP_extension
	.eabi_attribute	34, 1	@ Tag_CPU_unaligned_access
	.eabi_attribute	17, 1	@ Tag_ABI_PCS_GOT_use
	.eabi_attribute	20, 2	@ Tag_ABI_FP_denormal
	.eabi_attribute	21, 0	@ Tag_ABI_FP_exceptions
	.eabi_attribute	23, 1	@ Tag_ABI_FP_number_model
	.eabi_attribute	24, 1	@ Tag_ABI_align_needed
	.eabi_attribute	25, 1	@ Tag_ABI_align_preserved
	.eabi_attribute	28, 1	@ Tag_ABI_VFP_args
	.eabi_attribute	38, 1	@ Tag_ABI_FP_16bit_format
	.eabi_attribute	18, 2	@ Tag_ABI_PCS_wchar_t
	.eabi_attribute	26, 1	@ Tag_ABI_enum_size
	.eabi_attribute	14, 0	@ Tag_ABI_PCS_R9_use
	.file	"sdio.c"
	.file	1 "e:\\Keil_v5\\ARM\\ARMCLANG\\Bin\\..\\include" "stdint.h"
	.file	2 "C:\\Users\\DELL\\Desktop\\NewFolder\\OpticalFiberAmplifierTestRack\\MDK-ARM" "../Drivers/CMSIS/Device/ST/STM32F4xx/Include/stm32f407xx.h"
	.file	3 "C:\\Users\\DELL\\Desktop\\NewFolder\\OpticalFiberAmplifierTestRack\\MDK-ARM" "../Drivers/STM32F4xx_HAL_Driver/Inc\\stm32f4xx_hal_sd.h"
	.file	4 "C:\\Users\\DELL\\Desktop\\NewFolder\\OpticalFiberAmplifierTestRack\\MDK-ARM" "../Drivers/STM32F4xx_HAL_Driver/Inc/stm32f4xx_ll_sdmmc.h"
	.file	5 "C:\\Users\\DELL\\Desktop\\NewFolder\\OpticalFiberAmplifierTestRack\\MDK-ARM" "../Drivers/STM32F4xx_HAL_Driver/Inc/stm32f4xx_hal_def.h"
	.file	6 "C:\\Users\\DELL\\Desktop\\NewFolder\\OpticalFiberAmplifierTestRack\\MDK-ARM" "../Drivers/STM32F4xx_HAL_Driver/Inc\\stm32f4xx_hal_dma.h"
	.file	7 "C:\\Users\\DELL\\Desktop\\NewFolder\\OpticalFiberAmplifierTestRack\\MDK-ARM" "../Core/Src/sdio.c"
	.section	.text.MX_SDIO_SD_Init,"ax",%progbits
	.hidden	MX_SDIO_SD_Init                 @ -- Begin function MX_SDIO_SD_Init
	.globl	MX_SDIO_SD_Init
	.p2align	2
	.type	MX_SDIO_SD_Init,%function
	.code	16                              @ @MX_SDIO_SD_Init
	.thumb_func
MX_SDIO_SD_Init:
.Lfunc_begin0:
	.loc	7 34 0                          @ ../Core/Src/sdio.c:34:0
	.fnstart
	.cfi_sections .debug_frame
	.cfi_startproc
@ %bb.0:
	.loc	7 43 16 prologue_end            @ ../Core/Src/sdio.c:43:16
	movw	r1, :lower16:hsd
	movt	r1, :upper16:hsd
	movw	r0, #11264
	movt	r0, #16385
	str	r0, [r1]
	movs	r0, #0
	.loc	7 44 22                         @ ../Core/Src/sdio.c:44:22
	str	r0, [r1, #4]
	.loc	7 45 24                         @ ../Core/Src/sdio.c:45:24
	str	r0, [r1, #8]
	.loc	7 46 27                         @ ../Core/Src/sdio.c:46:27
	str	r0, [r1, #12]
	.loc	7 47 20                         @ ../Core/Src/sdio.c:47:20
	str	r0, [r1, #16]
	.loc	7 48 32                         @ ../Core/Src/sdio.c:48:32
	str	r0, [r1, #20]
	.loc	7 49 21                         @ ../Core/Src/sdio.c:49:21
	str	r0, [r1, #24]
	.loc	7 54 1                          @ ../Core/Src/sdio.c:54:1
	bx	lr
.Ltmp0:
.Lfunc_end0:
	.size	MX_SDIO_SD_Init, .Lfunc_end0-MX_SDIO_SD_Init
	.cfi_endproc
	.cantunwind
	.fnend
                                        @ -- End function
	.section	.text.HAL_SD_MspInit,"ax",%progbits
	.hidden	HAL_SD_MspInit                  @ -- Begin function HAL_SD_MspInit
	.globl	HAL_SD_MspInit
	.p2align	2
	.type	HAL_SD_MspInit,%function
	.code	16                              @ @HAL_SD_MspInit
	.thumb_func
HAL_SD_MspInit:
.Lfunc_begin1:
	.loc	7 57 0                          @ ../Core/Src/sdio.c:57:0
	.fnstart
	.cfi_startproc
@ %bb.0:
	.save	{r7, lr}
	push	{r7, lr}
	.cfi_def_cfa_offset 8
	.cfi_offset lr, -4
	.cfi_offset r7, -8
	.pad	#72
	sub	sp, #72
	.cfi_def_cfa_offset 80
	str	r0, [sp, #68]
	movs	r0, #0
.Ltmp1:
	.loc	7 59 20 prologue_end            @ ../Core/Src/sdio.c:59:20
	str	r0, [sp, #64]
	str	r0, [sp, #60]
	str	r0, [sp, #56]
	str	r0, [sp, #52]
	str	r0, [sp, #48]
.Ltmp2:
	.loc	7 60 6                          @ ../Core/Src/sdio.c:60:6
	ldr	r0, [sp, #68]
	.loc	7 60 16 is_stmt 0               @ ../Core/Src/sdio.c:60:16
	ldr	r0, [r0]
	movw	r1, #11264
	movt	r1, #16385
.Ltmp3:
	.loc	7 60 6                          @ ../Core/Src/sdio.c:60:6
	cmp	r0, r1
	bne.w	.LBB1_16
	b	.LBB1_1
.LBB1_1:
.Ltmp4:
	.loc	7 66 5 is_stmt 1                @ ../Core/Src/sdio.c:66:5
	b	.LBB1_2
.LBB1_2:
	.loc	7 0 5 is_stmt 0                 @ ../Core/Src/sdio.c:0:5
	movs	r0, #0
.Ltmp5:
	.loc	7 66 5                          @ ../Core/Src/sdio.c:66:5
	str	r0, [sp, #44]
	movw	r0, #14404
	movt	r0, #16386
	ldr	r1, [r0]
	orr	r1, r1, #2048
	str	r1, [r0]
	ldr	r0, [r0]
	and	r0, r0, #2048
	str	r0, [sp, #44]
	ldr	r0, [sp, #44]
	b	.LBB1_3
.Ltmp6:
.LBB1_3:
	.loc	7 68 5 is_stmt 1                @ ../Core/Src/sdio.c:68:5
	b	.LBB1_4
.LBB1_4:
	.loc	7 0 5 is_stmt 0                 @ ../Core/Src/sdio.c:0:5
	movs	r0, #0
.Ltmp7:
	.loc	7 68 5                          @ ../Core/Src/sdio.c:68:5
	str	r0, [sp, #40]
	movw	r0, #14384
	movt	r0, #16386
	ldr	r1, [r0]
	orr	r1, r1, #4
	str	r1, [r0]
	ldr	r0, [r0]
	and	r0, r0, #4
	str	r0, [sp, #40]
	ldr	r0, [sp, #40]
	b	.LBB1_5
.Ltmp8:
.LBB1_5:
	.loc	7 69 5 is_stmt 1                @ ../Core/Src/sdio.c:69:5
	b	.LBB1_6
.LBB1_6:
	.loc	7 0 5 is_stmt 0                 @ ../Core/Src/sdio.c:0:5
	movs	r0, #0
.Ltmp9:
	.loc	7 69 5                          @ ../Core/Src/sdio.c:69:5
	str	r0, [sp, #36]
	movw	r0, #14384
	movt	r0, #16386
	ldr	r1, [r0]
	orr	r1, r1, #8
	str	r1, [r0]
	ldr	r0, [r0]
	and	r0, r0, #8
	str	r0, [sp, #36]
	ldr	r0, [sp, #36]
	b	.LBB1_7
.Ltmp10:
.LBB1_7:
	.loc	7 0 5                           @ ../Core/Src/sdio.c:0:5
	mov.w	r0, #7936
	.loc	7 78 25 is_stmt 1               @ ../Core/Src/sdio.c:78:25
	str	r0, [sp, #48]
	movs	r0, #2
	.loc	7 80 26                         @ ../Core/Src/sdio.c:80:26
	str	r0, [sp, #8]                    @ 4-byte Spill
	str	r0, [sp, #52]
	movs	r0, #0
	.loc	7 81 26                         @ ../Core/Src/sdio.c:81:26
	str	r0, [sp, #20]                   @ 4-byte Spill
	str	r0, [sp, #56]
	movs	r0, #3
	.loc	7 82 27                         @ ../Core/Src/sdio.c:82:27
	str	r0, [sp, #28]                   @ 4-byte Spill
	str	r0, [sp, #60]
	movs	r0, #12
	.loc	7 83 31                         @ ../Core/Src/sdio.c:83:31
	str	r0, [sp, #12]                   @ 4-byte Spill
	str	r0, [sp, #64]
	movw	r0, #2048
	movt	r0, #16386
	add	r1, sp, #48
	.loc	7 84 5                          @ ../Core/Src/sdio.c:84:5
	str	r1, [sp, #16]                   @ 4-byte Spill
	bl	HAL_GPIO_Init
	ldr.w	r12, [sp, #8]                   @ 4-byte Reload
	ldr	r0, [sp, #12]                   @ 4-byte Reload
	ldr	r1, [sp, #16]                   @ 4-byte Reload
	ldr	r3, [sp, #20]                   @ 4-byte Reload
	ldr	r2, [sp, #28]                   @ 4-byte Reload
	mov.w	lr, #4
	.loc	7 86 25                         @ ../Core/Src/sdio.c:86:25
	str.w	lr, [sp, #24]                   @ 4-byte Spill
	str.w	lr, [sp, #48]
	.loc	7 87 26                         @ ../Core/Src/sdio.c:87:26
	str.w	r12, [sp, #52]
	.loc	7 88 26                         @ ../Core/Src/sdio.c:88:26
	str	r3, [sp, #56]
	.loc	7 89 27                         @ ../Core/Src/sdio.c:89:27
	str	r2, [sp, #60]
	.loc	7 90 31                         @ ../Core/Src/sdio.c:90:31
	str	r0, [sp, #64]
	movw	r0, #3072
	movt	r0, #16386
	.loc	7 91 5                          @ ../Core/Src/sdio.c:91:5
	bl	HAL_GPIO_Init
	ldr	r3, [sp, #20]                   @ 4-byte Reload
	ldr	r2, [sp, #24]                   @ 4-byte Reload
	ldr	r1, [sp, #28]                   @ 4-byte Reload
	.loc	7 95 27                         @ ../Core/Src/sdio.c:95:27
	movw	r0, :lower16:hdma_sdio_rx
	movt	r0, :upper16:hdma_sdio_rx
	str	r0, [sp, #32]                   @ 4-byte Spill
	movw	r12, #25688
	movt	r12, #16386
	str.w	r12, [r0]
	mov.w	r12, #134217728
	.loc	7 96 31                         @ ../Core/Src/sdio.c:96:31
	str.w	r12, [r0, #4]
	.loc	7 97 33                         @ ../Core/Src/sdio.c:97:33
	str	r3, [r0, #8]
	.loc	7 98 33                         @ ../Core/Src/sdio.c:98:33
	str	r3, [r0, #12]
	mov.w	r3, #1024
	.loc	7 99 30                         @ ../Core/Src/sdio.c:99:30
	str	r3, [r0, #16]
	mov.w	r3, #4096
	.loc	7 100 43                        @ ../Core/Src/sdio.c:100:43
	str	r3, [r0, #20]
	mov.w	r3, #16384
	.loc	7 101 40                        @ ../Core/Src/sdio.c:101:40
	str	r3, [r0, #24]
	movs	r3, #32
	.loc	7 102 28                        @ ../Core/Src/sdio.c:102:28
	str	r3, [r0, #28]
	mov.w	r3, #196608
	.loc	7 103 32                        @ ../Core/Src/sdio.c:103:32
	str	r3, [r0, #32]
	.loc	7 104 32                        @ ../Core/Src/sdio.c:104:32
	str	r2, [r0, #36]
	.loc	7 105 37                        @ ../Core/Src/sdio.c:105:37
	str	r1, [r0, #40]
	mov.w	r1, #8388608
	.loc	7 106 32                        @ ../Core/Src/sdio.c:106:32
	str	r1, [r0, #44]
	mov.w	r1, #2097152
	.loc	7 107 35                        @ ../Core/Src/sdio.c:107:35
	str	r1, [r0, #48]
.Ltmp11:
	.loc	7 108 9                         @ ../Core/Src/sdio.c:108:9
	bl	HAL_DMA_Init
.Ltmp12:
	.loc	7 108 9 is_stmt 0               @ ../Core/Src/sdio.c:108:9
	cbz	r0, .LBB1_9
	b	.LBB1_8
.LBB1_8:
.Ltmp13:
	.loc	7 110 7 is_stmt 1               @ ../Core/Src/sdio.c:110:7
	bl	Error_Handler
	.loc	7 111 5                         @ ../Core/Src/sdio.c:111:5
	b	.LBB1_9
.Ltmp14:
.LBB1_9:
	.loc	7 113 5                         @ ../Core/Src/sdio.c:113:5
	b	.LBB1_10
.LBB1_10:
.Ltmp15:
	.loc	7 113 5 is_stmt 0               @ ../Core/Src/sdio.c:113:5
	ldr	r0, [sp, #68]
	movw	r1, :lower16:hdma_sdio_rx
	movt	r1, :upper16:hdma_sdio_rx
	str	r1, [r0, #64]
	ldr	r0, [sp, #68]
	str	r0, [r1, #56]
	b	.LBB1_11
.Ltmp16:
.LBB1_11:
	.loc	7 116 27 is_stmt 1              @ ../Core/Src/sdio.c:116:27
	movw	r0, :lower16:hdma_sdio_tx
	movt	r0, :upper16:hdma_sdio_tx
	str	r0, [sp, #4]                    @ 4-byte Spill
	movw	r1, #25760
	movt	r1, #16386
	str	r1, [r0]
	mov.w	r1, #134217728
	.loc	7 117 31                        @ ../Core/Src/sdio.c:117:31
	str	r1, [r0, #4]
	movs	r1, #64
	.loc	7 118 33                        @ ../Core/Src/sdio.c:118:33
	str	r1, [r0, #8]
	movs	r1, #0
	.loc	7 119 33                        @ ../Core/Src/sdio.c:119:33
	str	r1, [r0, #12]
	mov.w	r1, #1024
	.loc	7 120 30                        @ ../Core/Src/sdio.c:120:30
	str	r1, [r0, #16]
	mov.w	r1, #4096
	.loc	7 121 43                        @ ../Core/Src/sdio.c:121:43
	str	r1, [r0, #20]
	mov.w	r1, #16384
	.loc	7 122 40                        @ ../Core/Src/sdio.c:122:40
	str	r1, [r0, #24]
	movs	r1, #32
	.loc	7 123 28                        @ ../Core/Src/sdio.c:123:28
	str	r1, [r0, #28]
	mov.w	r1, #196608
	.loc	7 124 32                        @ ../Core/Src/sdio.c:124:32
	str	r1, [r0, #32]
	movs	r1, #4
	.loc	7 125 32                        @ ../Core/Src/sdio.c:125:32
	str	r1, [r0, #36]
	movs	r1, #3
	.loc	7 126 37                        @ ../Core/Src/sdio.c:126:37
	str	r1, [r0, #40]
	mov.w	r1, #8388608
	.loc	7 127 32                        @ ../Core/Src/sdio.c:127:32
	str	r1, [r0, #44]
	mov.w	r1, #2097152
	.loc	7 128 35                        @ ../Core/Src/sdio.c:128:35
	str	r1, [r0, #48]
.Ltmp17:
	.loc	7 129 9                         @ ../Core/Src/sdio.c:129:9
	bl	HAL_DMA_Init
.Ltmp18:
	.loc	7 129 9 is_stmt 0               @ ../Core/Src/sdio.c:129:9
	cbz	r0, .LBB1_13
	b	.LBB1_12
.LBB1_12:
.Ltmp19:
	.loc	7 131 7 is_stmt 1               @ ../Core/Src/sdio.c:131:7
	bl	Error_Handler
	.loc	7 132 5                         @ ../Core/Src/sdio.c:132:5
	b	.LBB1_13
.Ltmp20:
.LBB1_13:
	.loc	7 134 5                         @ ../Core/Src/sdio.c:134:5
	b	.LBB1_14
.LBB1_14:
.Ltmp21:
	.loc	7 134 5 is_stmt 0               @ ../Core/Src/sdio.c:134:5
	ldr	r0, [sp, #68]
	movw	r1, :lower16:hdma_sdio_tx
	movt	r1, :upper16:hdma_sdio_tx
	str	r1, [r0, #60]
	ldr	r0, [sp, #68]
	str	r0, [r1, #56]
	b	.LBB1_15
.Ltmp22:
.LBB1_15:
	.loc	7 0 5                           @ ../Core/Src/sdio.c:0:5
	movs	r0, #49
	str	r0, [sp]                        @ 4-byte Spill
	movs	r1, #1
	movs	r2, #0
	.loc	7 137 5 is_stmt 1               @ ../Core/Src/sdio.c:137:5
	bl	HAL_NVIC_SetPriority
	ldr	r0, [sp]                        @ 4-byte Reload
	.loc	7 138 5                         @ ../Core/Src/sdio.c:138:5
	bl	HAL_NVIC_EnableIRQ
	.loc	7 142 3                         @ ../Core/Src/sdio.c:142:3
	b	.LBB1_16
.Ltmp23:
.LBB1_16:
	.loc	7 143 1                         @ ../Core/Src/sdio.c:143:1
	add	sp, #72
	pop	{r7, pc}
.Ltmp24:
.Lfunc_end1:
	.size	HAL_SD_MspInit, .Lfunc_end1-HAL_SD_MspInit
	.cfi_endproc
	.cantunwind
	.fnend
                                        @ -- End function
	.section	.text.HAL_SD_MspDeInit,"ax",%progbits
	.hidden	HAL_SD_MspDeInit                @ -- Begin function HAL_SD_MspDeInit
	.globl	HAL_SD_MspDeInit
	.p2align	2
	.type	HAL_SD_MspDeInit,%function
	.code	16                              @ @HAL_SD_MspDeInit
	.thumb_func
HAL_SD_MspDeInit:
.Lfunc_begin2:
	.loc	7 146 0                         @ ../Core/Src/sdio.c:146:0
	.fnstart
	.cfi_startproc
@ %bb.0:
	.save	{r7, lr}
	push	{r7, lr}
	.cfi_def_cfa_offset 8
	.cfi_offset lr, -4
	.cfi_offset r7, -8
	.pad	#8
	sub	sp, #8
	.cfi_def_cfa_offset 16
	str	r0, [sp, #4]
.Ltmp25:
	.loc	7 148 6 prologue_end            @ ../Core/Src/sdio.c:148:6
	ldr	r0, [sp, #4]
	.loc	7 148 16 is_stmt 0              @ ../Core/Src/sdio.c:148:16
	ldr	r0, [r0]
	movw	r1, #11264
	movt	r1, #16385
.Ltmp26:
	.loc	7 148 6                         @ ../Core/Src/sdio.c:148:6
	cmp	r0, r1
	bne	.LBB2_2
	b	.LBB2_1
.LBB2_1:
	.loc	7 0 6                           @ ../Core/Src/sdio.c:0:6
	movw	r1, #14404
	movt	r1, #16386
.Ltmp27:
	.loc	7 154 5 is_stmt 1               @ ../Core/Src/sdio.c:154:5
	ldr	r0, [r1]
	bic	r0, r0, #2048
	str	r0, [r1]
	movw	r0, #2048
	movt	r0, #16386
	mov.w	r1, #7936
	.loc	7 164 5                         @ ../Core/Src/sdio.c:164:5
	bl	HAL_GPIO_DeInit
	movw	r0, #3072
	movt	r0, #16386
	movs	r1, #4
	.loc	7 167 5                         @ ../Core/Src/sdio.c:167:5
	bl	HAL_GPIO_DeInit
	.loc	7 170 20                        @ ../Core/Src/sdio.c:170:20
	ldr	r0, [sp, #4]
	.loc	7 170 30 is_stmt 0              @ ../Core/Src/sdio.c:170:30
	ldr	r0, [r0, #64]
	.loc	7 170 5                         @ ../Core/Src/sdio.c:170:5
	bl	HAL_DMA_DeInit
	.loc	7 171 20 is_stmt 1              @ ../Core/Src/sdio.c:171:20
	ldr	r0, [sp, #4]
	.loc	7 171 30 is_stmt 0              @ ../Core/Src/sdio.c:171:30
	ldr	r0, [r0, #60]
	.loc	7 171 5                         @ ../Core/Src/sdio.c:171:5
	bl	HAL_DMA_DeInit
	movs	r0, #49
	.loc	7 174 5 is_stmt 1               @ ../Core/Src/sdio.c:174:5
	bl	HAL_NVIC_DisableIRQ
	.loc	7 178 3                         @ ../Core/Src/sdio.c:178:3
	b	.LBB2_2
.Ltmp28:
.LBB2_2:
	.loc	7 179 1                         @ ../Core/Src/sdio.c:179:1
	add	sp, #8
	pop	{r7, pc}
.Ltmp29:
.Lfunc_end2:
	.size	HAL_SD_MspDeInit, .Lfunc_end2-HAL_SD_MspDeInit
	.cfi_endproc
	.cantunwind
	.fnend
                                        @ -- End function
	.hidden	hsd                             @ @hsd
	.type	hsd,%object
	.section	.bss.hsd,"aw",%nobits
	.globl	hsd
	.p2align	2, 0x0
hsd:
	.zero	132
	.size	hsd, 132

	.hidden	hdma_sdio_rx                    @ @hdma_sdio_rx
	.type	hdma_sdio_rx,%object
	.section	.bss.hdma_sdio_rx,"aw",%nobits
	.globl	hdma_sdio_rx
	.p2align	2, 0x0
hdma_sdio_rx:
	.zero	96
	.size	hdma_sdio_rx, 96

	.hidden	hdma_sdio_tx                    @ @hdma_sdio_tx
	.type	hdma_sdio_tx,%object
	.section	.bss.hdma_sdio_tx,"aw",%nobits
	.globl	hdma_sdio_tx
	.p2align	2, 0x0
hdma_sdio_tx:
	.zero	96
	.size	hdma_sdio_tx, 96

	.file	8 "C:\\Users\\DELL\\Desktop\\NewFolder\\OpticalFiberAmplifierTestRack\\MDK-ARM" "../Drivers/STM32F4xx_HAL_Driver/Inc\\stm32f4xx_hal_gpio.h"
	.section	".note.GNU-stack","",%progbits
	.eabi_attribute	30, 6	@ Tag_ABI_optimization_goals
	.ARM_attribute	16, 1	@ Tag_AV_eba