	.text
	.syntax unified
	.eabi_attribute	67, "2.09"	@ Tag_conformance
	.cpu	cortex-m4
	.eabi_attribute	6, 13	@ Tag_CPU_arch
	.eabi_attribute	7, 77	@ Tag_CPU_arch_profile
	.eabi_attribute	8, 0	@ Tag_ARM_ISA_use
	.eabi_attribute	9, 2	@ Tag_THUMB_ISA_use
	.fpu	fpv4-sp-d16
	.eabi_attribute	27, 1	@ Tag_ABI_HardFP_use
	.eabi_attribute	36, 1	@ Tag_FP_HP_extension
	.eabi_attribute	34, 1	@ Tag_CPU_unaligned_access
	.eabi_attribute	17, 1	@ Tag_ABI_PCS_GOT_use
	.eabi_attribute	20, 2	@ Tag_ABI_FP_denormal
	.eabi_attribute	21, 0	@ Tag_ABI_FP_exceptions
	.eabi_attribute	23, 1	@ Tag_ABI_FP_number_model
	.eabi_attribute	24, 1	@ Tag_ABI_align_needed
	.eabi_attribute	25, 1	@ Tag_ABI_align_preserved
	.eabi_attribute	28, 1	@ Tag_ABI_VFP_args
	.eabi_attribute	38, 1	@ Tag_ABI_FP_16bit_format
	.eabi_attribute	18, 2	@ Tag_ABI_PCS_wchar_t
	.eabi_attribute	26, 1	@ Tag_ABI_enum_size
	.eabi_attribute	14, 0	@ Tag_ABI_PCS_R9_use
	.file	"stm32f4xx_it.c"
	.file	1 "C:\\Users\\DELL\\Desktop\\NewFolder\\OpticalFiberAmplifierTestRack\\MDK-ARM" "../Core/Src/stm32f4xx_it.c"
	.file	2 "e:\\Keil_v5\\ARM\\ARMCLANG\\Bin\\..\\include" "stdint.h"
	.file	3 "C:\\Users\\DELL\\Desktop\\NewFolder\\OpticalFiberAmplifierTestRack\\MDK-ARM" "../Drivers/STM32F4xx_HAL_Driver/Inc\\stm32f4xx_hal_gpio.h"
	.file	4 "C:\\Users\\DELL\\Desktop\\NewFolder\\OpticalFiberAmplifierTestRack\\MDK-ARM" "../Drivers/CMSIS/Device/ST/STM32F4xx/Include\\stm32f4xx.h"
	.file	5 "C:\\Users\\DELL\\Desktop\\NewFolder\\OpticalFiberAmplifierTestRack\\MDK-ARM" "../Drivers/STM32F4xx_HAL_Driver/Inc/stm32f4xx_hal_def.h"
	.file	6 "C:\\Users\\DELL\\Desktop\\NewFolder\\OpticalFiberAmplifierTestRack\\MDK-ARM" "../Drivers/STM32F4xx_HAL_Driver/Inc\\stm32f4xx_hal_dma.h"
	.file	7 "C:\\Users\\DELL\\Desktop\\NewFolder\\OpticalFiberAmplifierTestRack\\MDK-ARM" "../Drivers/STM32F4xx_HAL_Driver/Inc\\stm32f4xx_hal_uart.h"
	.file	8 "C:\\Users\\DELL\\Desktop\\NewFolder\\OpticalFiberAmplifierTestRack\\MDK-ARM" "../Drivers/CMSIS/Include\\core_cm4.h"
	.file	9 "C:\\Users\\DELL\\Desktop\\NewFolder\\OpticalFiberAmplifierTestRack\\MDK-ARM" "../Drivers/CMSIS/Device/ST/STM32F4xx/Include/stm32f407xx.h"
	.section	.text.NMI_Handler,"ax",%progbits
	.hidden	NMI_Handler                     @ -- Begin function NMI_Handler
	.globl	NMI_Handler
	.p2align	2
	.type	NMI_Handler,%function
	.code	16                              @ @NMI_Handler
	.thumb_func
NMI_Handler:
.Lfunc_begin0:
	.loc	1 106 0                         @ ../Core/Src/stm32f4xx_it.c:106:0
	.fnstart
	.cfi_sections .debug_frame
	.cfi_startproc
@ %bb.0:
	.loc	1 111 3 prologue_end            @ ../Core/Src/stm32f4xx_it.c:111:3
	b	.LBB0_1
.LBB0_1:                                @ =>This Inner Loop Header: Depth=1
	b	.LBB0_1
.Ltmp0:
.Lfunc_end0:
	.size	NMI_Handler, .Lfunc_end0-NMI_Handler
	.cfi_endproc
	.cantunwind
	.fnend
                                        @ -- End function
	.section	.text.HardFault_Handler,"ax",%progbits
	.hidden	HardFault_Handler               @ -- Begin function HardFault_Handler
	.globl	HardFault_Handler
	.p2align	2
	.type	HardFault_Handler,%function
	.code	16                              @ @HardFault_Handler
	.thumb_func
HardFault_Handler:
.Lfunc_begin1:
	.loc	1 121 0                         @ ../Core/Src/stm32f4xx_it.c:121:0
	.fnstart
	.cfi_startproc
@ %bb.0:
	movw	r0, #60912
	movt	r0, #57344
.Ltmp1:
	.loc	1 123 15 prologue_end           @ ../Core/Src/stm32f4xx_it.c:123:15
	ldr	r0, [r0]
.Ltmp2:
	.loc	1 123 4 is_stmt 0               @ ../Core/Src/stm32f4xx_it.c:123:4
	lsls	r0, r0, #31
	cbz	r0, .LBB1_2
	b	.LBB1_1
.LBB1_1:
.Ltmp3:
	.loc	1 125 1 is_stmt 1               @ ../Core/Src/stm32f4xx_it.c:125:1
	@APP
	bkpt	#0
	@NO_APP
	.loc	1 126 1                         @ ../Core/Src/stm32f4xx_it.c:126:1
	b	.LBB1_2
.Ltmp4:
.LBB1_2:
	.loc	1 128 3                         @ ../Core/Src/stm32f4xx_it.c:128:3
	b	.LBB1_3
.LBB1_3:                                @ =>This Inner Loop Header: Depth=1
	b	.LBB1_3
.Ltmp5:
.Lfunc_end1:
	.size	HardFault_Handler, .Lfunc_end1-HardFault_Handler
	.cfi_endproc
	.cantunwind
	.fnend
                                        @ -- End function
	.section	.text.MemManage_Handler,"ax",%progbits
	.hidden	MemManage_Handler               @ -- Begin function MemManage_Handler
	.globl	MemManage_Handler
	.p2align	2
	.type	MemManage_Handler,%function
	.code	16                              @ @MemManage_Handler
	.thumb_func
MemManage_Handler:
.Lfunc_begin2:
	.loc	1 139 0                         @ ../Core/Src/stm32f4xx_it.c:139:0
	.fnstart
	.cfi_startproc
@ %bb.0:
	.loc	1 143 3 prologue_end            @ ../Core/Src/stm32f4xx_it.c:143:3
	b	.LBB2_1
.LBB2_1:                                @ =>This Inner Loop Header: Depth=1
	b	.LBB2_1
.Ltmp6:
.Lfunc_end2:
	.size	MemManage_Handler, .Lfunc_end2-MemManage_Handler
	.cfi_endproc
	.cantunwind
	.fnend
                                        @ -- End function
	.section	.text.BusFault_Handler,"ax",%progbits
	.hidden	BusFault_Handler                @ -- Begin function BusFault_Handler
	.globl	BusFault_Handler
	.p2align	2
	.type	BusFault_Handler,%function
	.code	16                              @ @BusFault_Handler
	.thumb_func
BusFault_Handler:
.Lfunc_begin3:
	.loc	1 154 0                         @ ../Core/Src/stm32f4xx_it.c:154:0
	.fnstart
	.cfi_startproc
@ %bb.0:
	.loc	1 158 3 prologue_end            @ ../Core/Src/stm32f4xx_it.c:158:3
	b	.LBB3_1
.LBB3_1:                                @ =>This Inner Loop Header: Depth=1
	b	.LBB3_1
.Ltmp7:
.Lfunc_end3:
	.size	BusFault_Handler, .Lfunc_end3-BusFault_Handler
	.cfi_endproc
	.cantunwind
	.fnend
                                        @ -- End function
	.section	.text.UsageFault_Handler,"ax",%progbits
	.hidden	UsageFault_Handler              @ -- Begin function UsageFault_Handler
	.globl	UsageFault_Handler
	.p2align	2
	.type	UsageFault_Handler,%function
	.code	16                              @ @UsageFault_Handler
	.thumb_func
UsageFault_Handler:
.Lfunc_begin4:
	.loc	1 169 0                         @ ../Core/Src/stm32f4xx_it.c:169:0
	.fnstart
	.cfi_startproc
@ %bb.0:
	.loc	1 173 3 prologue_end            @ ../Core/Src/stm32f4xx_it.c:173:3
	b	.LBB4_1
.LBB4_1:                                @ =>This Inner Loop Header: Depth=1
	b	.LBB4_1
.Ltmp8:
.Lfunc_end4:
	.size	UsageFault_Handler, .Lfunc_end4-UsageFault_Handler
	.cfi_endproc
	.cantunwind
	.fnend
                                        @ -- End function
	.section	.text.SVC_Handler,"ax",%progbits
	.hidden	SVC_Handler                     @ -- Begin function SVC_Handler
	.globl	SVC_Handler
	.p2align	2
	.type	SVC_Handler,%function
	.code	16                              @ @SVC_Handler
	.thumb_func
SVC_Handler:
.Lfunc_begin5:
	.loc	1 184 0                         @ ../Core/Src/stm32f4xx_it.c:184:0
	.fnstart
	.cfi_startproc
@ %bb.0:
	.loc	1 191 1 prologue_end            @ ../Core/Src/stm32f4xx_it.c:191:1
	bx	lr
.Ltmp9:
.Lfunc_end5:
	.size	SVC_Handler, .Lfunc_end5-SVC_Handler
	.cfi_endproc
	.cantunwind
	.fnend
                                        @ -- End function
	.section	.text.DebugMon_Handler,"ax",%progbits
	.hidden	DebugMon_Handler                @ -- Begin function DebugMon_Handler
	.globl	DebugMon_Handler
	.p2align	2
	.type	DebugMon_Handler,%function
	.code	16                              @ @DebugMon_Handler
	.thumb_func
DebugMon_Handler:
.Lfunc_begin6:
	.loc	1 197 0                         @ ../Core/Src/stm32f4xx_it.c:197:0
	.fnstart
	.cfi_startproc
@ %bb.0:
	.loc	1 204 1 prologue_end            @ ../Core/Src/stm32f4xx_it.c:204:1
	bx	lr
.Ltmp10:
.Lfunc_end6:
	.size	DebugMon_Handler, .Lfunc_end6-DebugMon_Handler
	.cfi_endproc
	.cantunwind
	.fnend
                                        @ -- End function
	.section	.text.PendSV_Handler,"ax",%progbits
	.hidden	PendSV_Handler                  @ -- Begin function PendSV_Handler
	.globl	PendSV_Handler
	.p2align	2
	.type	PendSV_Handler,%function
	.code	16                              @ @PendSV_Handler
	.thumb_func
PendSV_Handler:
.Lfunc_begin7:
	.loc	1 210 0                         @ ../Core/Src/stm32f4xx_it.c:210:0
	.fnstart
	.cfi_startproc
@ %bb.0:
	.loc	1 217 1 prologue_end            @ ../Core/Src/stm32f4xx_it.c:217:1
	bx	lr
.Ltmp11:
.Lfunc_end7:
	.size	PendSV_Handler, .Lfunc_end7-PendSV_Handler
	.cfi_endproc
	.cantunwind
	.fnend
                                        @ -- End function
	.section	.text.SysTick_Handler,"ax",%progbits
	.hidden	SysTick_Handler                 @ -- Begin function SysTick_Handler
	.globl	SysTick_Handler
	.p2align	2
	.type	SysTick_Handler,%function
	.code	16                              @ @SysTick_Handler
	.thumb_func
SysTick_Handler:
.Lfunc_begin8:
	.loc	1 223 0                         @ ../Core/Src/stm32f4xx_it.c:223:0
	.fnstart
	.cfi_startproc
@ %bb.0:
	.save	{r7, lr}
	push	{r7, lr}
	.cfi_def_cfa_offset 8
	.cfi_offset lr, -4
	.cfi_offset r7, -8
	movw	r0, #4096
	movt	r0, #16386
	movs	r1, #1
.Ltmp12:
	.loc	1 226 5 prologue_end            @ ../Core/Src/stm32f4xx_it.c:226:5
	bl	HAL_GPIO_ReadPin
.Ltmp13:
	.loc	1 226 5 is_stmt 0               @ ../Core/Src/stm32f4xx_it.c:226:5
	cmp	r0, #1
	bne	.LBB8_2
	b	.LBB8_1
.LBB8_1:
.Ltmp14:
	.loc	1 228 33 is_stmt 1              @ ../Core/Src/stm32f4xx_it.c:228:33
	movw	r1, :lower16:comVariableBlock
	movt	r1, :upper16:comVariableBlock
	movs	r0, #1
	strb.w	r0, [r1, #34]
	.loc	1 229 2                         @ ../Core/Src/stm32f4xx_it.c:229:2
	b	.LBB8_2
.Ltmp15:
.LBB8_2:
	.loc	1 231 2                         @ ../Core/Src/stm32f4xx_it.c:231:2
	bl	uiTime
	.loc	1 233 30                        @ ../Core/Src/stm32f4xx_it.c:233:30
	movw	r1, :lower16:SYS_tickTime
	movt	r1, :upper16:SYS_tickTime
	ldr	r0, [r1, #4]
	adds	r0, #1
	str	r0, [r1, #4]
	.loc	1 234 35                        @ ../Core/Src/stm32f4xx_it.c:234:35
	ldr	r0, [r1, #12]
	adds	r0, #1
	str	r0, [r1, #12]
	.loc	1 235 33                        @ ../Core/Src/stm32f4xx_it.c:235:33
	ldr	r0, [r1, #8]
	adds	r0, #1
	str	r0, [r1, #8]
	.loc	1 236 29                        @ ../Core/Src/stm32f4xx_it.c:236:29
	ldr	r0, [r1, #16]
	adds	r0, #1
	str	r0, [r1, #16]
	.loc	1 237 26                        @ ../Core/Src/stm32f4xx_it.c:237:26
	ldr	r0, [r1, #20]
	adds	r0, #1
	str	r0, [r1, #20]
	.loc	1 238 38                        @ ../Core/Src/stm32f4xx_it.c:238:38
	ldr	r0, [r1, #24]
	adds	r0, #1
	str	r0, [r1, #24]
	.loc	1 256 3                         @ ../Core/Src/stm32f4xx_it.c:256:3
	bl	HAL_IncTick
	.loc	1 260 1                         @ ../Core/Src/stm32f4xx_it.c:260:1
	pop	{r7, pc}
.Ltmp16:
.Lfunc_end8:
	.size	SysTick_Handler, .Lfunc_end8-SysTick_Handler
	.cfi_endproc
	.cantunwind
	.fnend
                                        @ -- End function
	.section	.text.DMA1_Stream0_IRQHandler,"ax",%progbits
	.hidden	DMA1_Stream0_IRQHandler         @ -- Begin function DMA1_Stream0_IRQHandler
	.globl	DMA1_Stream0_IRQHandler
	.p2align	2
	.type	DMA1_Stream0_IRQHandler,%function
	.code	16                              @ @DMA1_Stream0_IRQHandler
	.thumb_func
DMA1_Stream0_IRQHandler:
.Lfunc_begin9:
	.loc	1 273 0                         @ ../Core/Src/stm32f4xx_it.c:273:0
	.fnstart
	.cfi_startproc
@ %bb.0:
	.save	{r7, lr}
	push	{r7, lr}
	.cfi_def_cfa_offset 8
	.cfi_offset lr, -4
	.cfi_offset r7, -8
.Ltmp17:
	.loc	1 277 3 prologue_end            @ ../Core/Src/stm32f4xx_it.c:277:3
	movw	r0, :lower16:hdma_i2c1_rx
	movt	r0, :upper16:hdma_i2c1_rx
	bl	HAL_DMA_IRQHandler
	.loc	1 281 1                         @ ../Core/Src/stm32f4xx_it.c:281:1
	pop	{r7, pc}
.Ltmp18:
.Lfunc_end9:
	.size	DMA1_Stream0_IRQHandler, .Lfunc_end9-DMA1_Stream0_IRQHandler
	.cfi_endproc
	.cantunwind
	.fnend
                                        @ -- End function
	.section	.text.DMA1_Stream2_IRQHandler,"ax",%progbits
	.hidden	DMA1_Stream2_IRQHandler         @ -- Begin function DMA1_Stream2_IRQHandler
	.globl	DMA1_Stream2_IRQHandler
	.p2align	2
	.type	DMA1_Stream2_IRQHandler,%function
	.code	16                              @ @DMA1_Stream2_IRQHandler
	.thumb_func
DMA1_Stream2_IRQHandler:
.Lfunc_begin10:
	.loc	1 287 0                         @ ../Core/Src/stm32f4xx_it.c:287:0
	.fnstart
	.cfi_startproc
@ %bb.0:
	.save	{r7, lr}
	push	{r7, lr}
	.cfi_def_cfa_offset 8
	.cfi_offset lr, -4
	.cfi_offset r7, -8
.Ltmp19:
	.loc	1 291 3 prologue_end            @ ../Core/Src/stm32f4xx_it.c:291:3
	movw	r0, :lower16:hdma_uart4_rx
	movt	r0, :upper16:hdma_uart4_rx
	bl	HAL_DMA_IRQHandler
	.loc	1 295 1                         @ ../Core/Src/stm32f4xx_it.c:295:1
	pop	{r7, pc}
.Ltmp20:
.Lfunc_end10:
	.size	DMA1_Stream2_IRQHandler, .Lfunc_end10-DMA1_Stream2_IRQHandler
	.cfi_endproc
	.cantunwind
	.fnend
                                        @ -- End function
	.section	.text.DMA1_Stream4_IRQHandler,"ax",%progbits
	.hidden	DMA1_Stream4_IRQHandler         @ -- Begin function DMA1_Stream4_IRQHandler
	.globl	DMA1_Stream4_IRQHandler
	.p2align	2
	.type	DMA1_Stream4_IRQHandler,%function
	.code	16                              @ @DMA1_Stream4_IRQHandler
	.thumb_func
DMA1_Stream4_IRQHandler:
.Lfunc_begin11:
	.loc	1 301 0                         @ ../Core/Src/stm32f4xx_it.c:301:0
	.fnstart
	.cfi_startproc
@ %bb.0:
	.save	{r7, lr}
	push	{r7, lr}
	.cfi_def_cfa_offset 8
	.cfi_offset lr, -4
	.cfi_offset r7, -8
.Ltmp21:
	.loc	1 305 3 prologue_end            @ ../Core/Src/stm32f4xx_it.c:305:3
	movw	r0, :lower16:hdma_uart4_tx
	movt	r0, :upper16:hdma_uart4_tx
	bl	HAL_DMA_IRQHandler
	.loc	1 309 1                         @ ../Core/Src/stm32f4xx_it.c:309:1
	pop	{r7, pc}
.Ltmp22:
.Lfunc_end11:
	.size	DMA1_Stream4_IRQHandler, .Lfunc_end11-DMA1_Stream4_IRQHandler
	.cfi_endproc
	.cantunwind
	.fnend
                                        @ -- End function
	.section	.text.TIM1_BRK_TIM9_IRQHandler,"ax",%progbits
	.hidden	TIM1_BRK_TIM9_IRQHandler        @ -- Begin function TIM1_BRK_TIM9_IRQHandler
	.globl	TIM1_BRK_TIM9_IRQHandler
	.p2align	2
	.type	TIM1_BRK_TIM9_IRQHandler,%function
	.code	16                              @ @TIM1_BRK_TIM9_IRQHandler
	.thumb_func
TIM1_BRK_TIM9_IRQHandler:
.Lfunc_begin12:
	.loc	1 315 0                         @ ../Core/Src/stm32f4xx_it.c:315:0
	.fnstart
	.cfi_startproc
@ %bb.0:
	.save	{r7, lr}
	push	{r7, lr}
	.cfi_def_cfa_offset 8
	.cfi_offset lr, -4
	.cfi_offset r7, -8
.Ltmp23:
	.loc	1 319 3 prologue_end            @ ../Core/Src/stm32f4xx_it.c:319:3
	movw	r0, :lower16:htim9
	movt	r0, :upper16:htim9
	bl	HAL_TIM_IRQHandler
	.loc	1 323 1                         @ ../Core/Src/stm32f4xx_it.c:323:1
	pop	{r7, pc}
.Ltmp24:
.Lfunc_end12:
	.size	TIM1_BRK_TIM9_IRQHandler, .Lfunc_end12-TIM1_BRK_TIM9_IRQHandler
	.cfi_endproc
	.cantunwind
	.fnend
                                        @ -- End function
	.section	.text.TIM2_IRQHandler,"ax",%progbits
	.hidden	TIM2_IRQHandler                 @ -- Begin function TIM2_IRQHandler
	.globl	TIM2_IRQHandler
	.p2align	2
	.type	TIM2_IRQHandler,%function
	.code	16                              @ @TIM2_IRQHandler
	.thumb_func
TIM2_IRQHandler:
.Lfunc_begin13:
	.loc	1 329 0                         @ ../Core/Src/stm32f4xx_it.c:329:0
	.fnstart
	.cfi_startproc
@ %bb.0:
	.save	{r7, lr}
	push	{r7, lr}
	.cfi_def_cfa_offset 8
	.cfi_offset lr, -4
	.cfi_offset r7, -8
.Ltmp25:
	.loc	1 333 3 prologue_end            @ ../Core/Src/stm32f4xx_it.c:333:3
	movw	r0, :lower16:htim2
	movt	r0, :upper16:htim2
	bl	HAL_TIM_IRQHandler
	.loc	1 337 1                         @ ../Core/Src/stm32f4xx_it.c:337:1
	pop	{r7, pc}
.Ltmp26:
.Lfunc_end13:
	.size	TIM2_IRQHandler, .Lfunc_end13-TIM2_IRQHandler
	.cfi_endproc
	.cantunwind
	.fnend
                                        @ -- End function
	.section	.text.TIM4_IRQHandler,"ax",%progbits
	.hidden	TIM4_IRQHandler                 @ -- Begin function TIM4_IRQHandler
	.globl	TIM4_IRQHandler
	.p2align	2
	.type	TIM4_IRQHandler,%function
	.code	16                              @ @TIM4_IRQHandler
	.thumb_func
TIM4_IRQHandler:
.Lfunc_begin14:
	.loc	1 348 0                         @ ../Core/Src/stm32f4xx_it.c:348:0
	.fnstart
	.cfi_startproc
@ %bb.0:
	.save	{r7, lr}
	push	{r7, lr}
	.cfi_def_cfa_offset 8
	.cfi_offset lr, -4
	.cfi_offset r7, -8
	.pad	#16
	sub	sp, #16
	.cfi_def_cfa_offset 24
.Ltmp27:
	.loc	1 353 3 prologue_end            @ ../Core/Src/stm32f4xx_it.c:353:3
	movw	r0, :lower16:htim4
	movt	r0, :upper16:htim4
	bl	HAL_TIM_IRQHandler
.Ltmp28:
	.loc	1 356 18                        @ ../Core/Src/stm32f4xx_it.c:356:18
	movw	r0, :lower16:SYS_tickTime
	movt	r0, :upper16:SYS_tickTime
	ldr	r0, [r0]
.Ltmp29:
	.loc	1 356 5 is_stmt 0               @ ../Core/Src/stm32f4xx_it.c:356:5
	cmp	r0, #119
	bhi	.LBB14_2
	b	.LBB14_1
.LBB14_1:
.Ltmp30:
	.loc	1 358 34 is_stmt 1              @ ../Core/Src/stm32f4xx_it.c:358:34
	movw	r1, :lower16:SYS_tickTime
	movt	r1, :upper16:SYS_tickTime
	ldr	r0, [r1]
	adds	r0, #1
	str	r0, [r1]
	.loc	1 359 2                         @ ../Core/Src/stm32f4xx_it.c:359:2
	b	.LBB14_2
.Ltmp31:
.LBB14_2:
	.loc	1 361 18                        @ ../Core/Src/stm32f4xx_it.c:361:18
	movw	r0, :lower16:SYS_tickTime
	movt	r0, :upper16:SYS_tickTime
	ldr	r0, [r0]
.Ltmp32:
	.loc	1 361 5 is_stmt 0               @ ../Core/Src/stm32f4xx_it.c:361:5
	cmp	r0, #118
	bne	.LBB14_4
	b	.LBB14_3
.LBB14_3:
.Ltmp33:
	.loc	1 364 3 is_stmt 1               @ ../Core/Src/stm32f4xx_it.c:364:3
	movw	r0, :lower16:huart4
	movt	r0, :upper16:huart4
	str	r0, [sp, #4]                    @ 4-byte Spill
	bl	HAL_UART_DMAStop
	ldr	r1, [sp, #4]                    @ 4-byte Reload
	.loc	1 365 50                        @ ../Core/Src/stm32f4xx_it.c:365:50
	movw	r0, :lower16:USART_Data
	movt	r0, :upper16:USART_Data
	movw	r3, #14885
	movs	r2, #1
	strb	r2, [r0, r3]
	.loc	1 366 49                        @ ../Core/Src/stm32f4xx_it.c:366:49
	ldr	r1, [r1, #56]
	ldr	r1, [r1]
	ldr	r1, [r1, #4]
	.loc	1 366 47 is_stmt 0              @ ../Core/Src/stm32f4xx_it.c:366:47
	rsb.w	r1, r1, #100
	.loc	1 366 15                        @ ../Core/Src/stm32f4xx_it.c:366:15
	movw	r2, :lower16:UART_RX_STA
	movt	r2, :upper16:UART_RX_STA
	strh	r1, [r2]
	movw	r1, #14886
	.loc	1 369 3 is_stmt 1               @ ../Core/Src/stm32f4xx_it.c:369:3
	add	r0, r1
	movw	r1, :lower16:UART4_RX_BUF
	movt	r1, :upper16:UART4_RX_BUF
	str	r1, [sp, #8]                    @ 4-byte Spill
	movs	r2, #100
	str	r2, [sp, #12]                   @ 4-byte Spill
	bl	__aeabi_memcpy
	ldr	r1, [sp, #12]                   @ 4-byte Reload
                                        @ kill: def $r2 killed $r0
	.loc	1 387 3                         @ ../Core/Src/stm32f4xx_it.c:387:3
	ldr	r0, [sp, #8]                    @ 4-byte Reload
	bl	__aeabi_memclr
	ldr	r0, [sp, #4]                    @ 4-byte Reload
	ldr	r1, [sp, #8]                    @ 4-byte Reload
	ldr	r2, [sp, #12]                   @ 4-byte Reload
	.loc	1 388 3                         @ ../Core/Src/stm32f4xx_it.c:388:3
	bl	HAL_UART_Receive_DMA
	.loc	1 389 2                         @ ../Core/Src/stm32f4xx_it.c:389:2
	b	.LBB14_4
.Ltmp34:
.LBB14_4:
	.loc	1 392 1                         @ ../Core/Src/stm32f4xx_it.c:392:1
	add	sp, #16
	pop	{r7, pc}
.Ltmp35:
.Lfunc_end14:
	.size	TIM4_IRQHandler, .Lfunc_end14-TIM4_IRQHandler
	.cfi_endproc
	.cantunwind
	.fnend
                                        @ -- End function
	.section	.text.I2C1_EV_IRQHandler,"ax",%progbits
	.hidden	I2C1_EV_IRQHandler              @ -- Begin function I2C1_EV_IRQHandler
	.globl	I2C1_EV_IRQHandler
	.p2align	2
	.type	I2C1_EV_IRQHandler,%function
	.code	16                              @ @I2C1_EV_IRQHandler
	.thumb_func
I2C1_EV_IRQHandler:
.Lfunc_begin15:
	.loc	1 398 0                         @ ../Core/Src/stm32f4xx_it.c:398:0
	.fnstart
	.cfi_startproc
@ %bb.0:
	.save	{r7, lr}
	push	{r7, lr}
	.cfi_def_cfa_offset 8
	.cfi_offset lr, -4
	.cfi_offset r7, -8
.Ltmp36:
	.loc	1 402 3 prologue_end            @ ../Core/Src/stm32f4xx_it.c:402:3
	movw	r0, :lower16:hi2c1
	movt	r0, :upper16:hi2c1
	bl	HAL_I2C_EV_IRQHandler
	.loc	1 406 1                         @ ../Core/Src/stm32f4xx_it.c:406:1
	pop	{r7, pc}
.Ltmp37:
.Lfunc_end15:
	.size	I2C1_EV_IRQHandler, .Lfunc_end15-I2C1_EV_IRQHandler
	.cfi_endproc
	.cantunwind
	.fnend
                                        @ -- End function
	.section	.text.I2C1_ER_IRQHandler,"ax",%progbits
	.hidden	I2C1_ER_IRQHandler              @ -- Begin function I2C1_ER_IRQHandler
	.globl	I2C1_ER_IRQHandler
	.p2align	2
	.type	I2C1_ER_IRQHandler,%function
	.code	16                              @ @I2C1_ER_IRQHandler
	.thumb_func
I2C1_ER_IRQHandler:
.Lfunc_begin16:
	.loc	1 412 0                         @ ../Core/Src/stm32f4xx_it.c:412:0
	.fnstart
	.cfi_startproc
@ %bb.0:
	.save	{r7, lr}
	push	{r7, lr}
	.cfi_def_cfa_offset 8
	.cfi_offset lr, -4
	.cfi_offset r7, -8
.Ltmp38:
	.loc	1 416 3 prologue_end            @ ../Core/Src/stm32f4xx_it.c:416:3
	movw	r0, :lower16:hi2c1
	movt	r0, :upper16:hi2c1
	bl	HAL_I2C_ER_IRQHandler
	.loc	1 420 1                         @ ../Core/Src/stm32f4xx_it.c:420:1
	pop	{r7, pc}
.Ltmp39:
.Lfunc_end16:
	.size	I2C1_ER_IRQHandler, .Lfunc_end16-I2C1_ER_IRQHandler
	.cfi_endproc
	.cantunwind
	.fnend
                                        @ -- End function
	.section	.text.USART1_IRQHandler,"ax",%progbits
	.hidden	USART1_IRQHandler               @ -- Begin function USART1_IRQHandler
	.globl	USART1_IRQHandler
	.p2align	2
	.type	USART1_IRQHandler,%function
	.code	16                              @ @USART1_IRQHandler
	.thumb_func
USART1_IRQHandler:
.Lfunc_begin17:
	.loc	1 426 0                         @ ../Core/Src/stm32f4xx_it.c:426:0
	.fnstart
	.cfi_startproc
@ %bb.0:
	.save	{r7, lr}
	push	{r7, lr}
	.cfi_def_cfa_offset 8
	.cfi_offset lr, -4
	.cfi_offset r7, -8
	.pad	#32
	sub	sp, #32
	.cfi_def_cfa_offset 40
.Ltmp40:
	.loc	1 431 3 prologue_end            @ ../Core/Src/stm32f4xx_it.c:431:3
	movw	r0, :lower16:huart1
	movt	r0, :upper16:huart1
	str	r0, [sp, #24]                   @ 4-byte Spill
	bl	HAL_UART_IRQHandler
	ldr	r0, [sp, #24]                   @ 4-byte Reload
.Ltmp41:
	.loc	1 435 5                         @ ../Core/Src/stm32f4xx_it.c:435:5
	ldr	r0, [r0]
	ldr	r0, [r0]
	and	r1, r0, #16
	movs	r0, #0
.Ltmp42:
	.loc	1 435 5 is_stmt 0               @ ../Core/Src/stm32f4xx_it.c:435:5
	cmp.w	r0, r1, lsr #4
	beq	.LBB17_8
	b	.LBB17_1
.LBB17_1:
.Ltmp43:
	.loc	1 437 50 is_stmt 1              @ ../Core/Src/stm32f4xx_it.c:437:50
	movw	r1, :lower16:USART_Data
	movt	r1, :upper16:USART_Data
	movw	r2, #11379
	movs	r0, #1
	strb	r0, [r1, r2]
	.loc	1 438 6                         @ ../Core/Src/stm32f4xx_it.c:438:6
	b	.LBB17_2
.LBB17_2:
	.loc	1 0 6 is_stmt 0                 @ ../Core/Src/stm32f4xx_it.c:0:6
	movs	r0, #0
.Ltmp44:
	.loc	1 438 6                         @ ../Core/Src/stm32f4xx_it.c:438:6
	str	r0, [sp, #28]
	movw	r0, :lower16:huart1
	movt	r0, :upper16:huart1
	ldr	r1, [r0]
	ldr	r1, [r1]
	str	r1, [sp, #28]
	ldr	r0, [r0]
	ldr	r0, [r0, #4]
	str	r0, [sp, #28]
	ldr	r0, [sp, #28]
	b	.LBB17_3
.Ltmp45:
.LBB17_3:
	.loc	1 439 6 is_stmt 1               @ ../Core/Src/stm32f4xx_it.c:439:6
	movw	r0, :lower16:huart1
	movt	r0, :upper16:huart1
	str	r0, [sp, #20]                   @ 4-byte Spill
	bl	HAL_UART_DMAStop
                                        @ kill: def $r1 killed $r0
	.loc	1 440 50                        @ ../Core/Src/stm32f4xx_it.c:440:50
	ldr	r0, [sp, #20]                   @ 4-byte Reload
	ldr	r0, [r0, #56]
	ldr	r0, [r0]
	ldr	r0, [r0, #4]
	.loc	1 440 48 is_stmt 0              @ ../Core/Src/stm32f4xx_it.c:440:48
	rsb.w	r0, r0, #1000
	.loc	1 440 18                        @ ../Core/Src/stm32f4xx_it.c:440:18
	movw	r1, :lower16:UART_RX_STA
	movt	r1, :upper16:UART_RX_STA
	strh	r0, [r1]
.Ltmp46:
	.loc	1 445 8 is_stmt 1               @ ../Core/Src/stm32f4xx_it.c:445:8
	movw	r0, :lower16:UART1_RX_BUF
	movt	r0, :upper16:UART1_RX_BUF
	ldrb	r0, [r0]
	.loc	1 445 29 is_stmt 0              @ ../Core/Src/stm32f4xx_it.c:445:29
	cmp	r0, #26
	bne	.LBB17_6
	b	.LBB17_4
.LBB17_4:
	.loc	1 445 32                        @ ../Core/Src/stm32f4xx_it.c:445:32
	movw	r0, :lower16:UART1_RX_BUF
	movt	r0, :upper16:UART1_RX_BUF
	ldrb	r0, [r0, #1]
	.loc	1 445 53                        @ ../Core/Src/stm32f4xx_it.c:445:53
	cmp	r0, #255
	bne	.LBB17_6
	b	.LBB17_5
.LBB17_5:
	.loc	1 445 55                        @ ../Core/Src/stm32f4xx_it.c:445:55
	movw	r0, :lower16:UART1_RX_BUF
	movt	r0, :upper16:UART1_RX_BUF
	ldrb	r0, [r0, #2]
.Ltmp47:
	.loc	1 445 6                         @ ../Core/Src/stm32f4xx_it.c:445:6
	cmp	r0, #255
	beq	.LBB17_7
	b	.LBB17_6
.LBB17_6:
.Ltmp48:
	.loc	1 447 4 is_stmt 1               @ ../Core/Src/stm32f4xx_it.c:447:4
	movw	r0, :lower16:USART_Data
	movt	r0, :upper16:USART_Data
	str	r0, [sp, #4]                    @ 4-byte Spill
	movw	r1, #11380
	add	r0, r1
	str	r0, [sp, #12]                   @ 4-byte Spill
	movw	r1, :lower16:UART1_RX_BUF
	movt	r1, :upper16:UART1_RX_BUF
	str	r1, [sp]                        @ 4-byte Spill
	mov.w	r2, #1000
	str	r2, [sp, #8]                    @ 4-byte Spill
	bl	__aeabi_memcpy
	ldr	r1, [sp, #8]                    @ 4-byte Reload
                                        @ kill: def $r2 killed $r0
	.loc	1 448 4                         @ ../Core/Src/stm32f4xx_it.c:448:4
	ldr	r0, [sp]                        @ 4-byte Reload
	bl	__aeabi_memclr
	ldr	r0, [sp, #4]                    @ 4-byte Reload
	ldr	r1, [sp, #8]                    @ 4-byte Reload
	.loc	1 452 4                         @ ../Core/Src/stm32f4xx_it.c:452:4
	add.w	r0, r0, #376
	str	r0, [sp, #16]                   @ 4-byte Spill
	bl	__aeabi_memclr4
	ldr	r0, [sp, #12]                   @ 4-byte Reload
	ldr	r1, [sp, #16]                   @ 4-byte Reload
	.loc	1 453 4                         @ ../Core/Src/stm32f4xx_it.c:453:4
	movw	r2, :lower16:USART1_IRQHandler.letter
	movt	r2, :upper16:USART1_IRQHandler.letter
	bl	StringSplitting
	.loc	1 455 3                         @ ../Core/Src/stm32f4xx_it.c:455:3
	b	.LBB17_7
.Ltmp49:
.LBB17_7:
	.loc	1 456 6                         @ ../Core/Src/stm32f4xx_it.c:456:6
	movw	r0, :lower16:huart1
	movt	r0, :upper16:huart1
	movw	r1, :lower16:UART1_RX_BUF
	movt	r1, :upper16:UART1_RX_BUF
	mov.w	r2, #1000
	bl	HAL_UART_Receive_DMA
	.loc	1 457 2                         @ ../Core/Src/stm32f4xx_it.c:457:2
	b	.LBB17_8
.Ltmp50:
.LBB17_8:
	.loc	1 461 1                         @ ../Core/Src/stm32f4xx_it.c:461:1
	add	sp, #32
	pop	{r7, pc}
.Ltmp51:
.Lfunc_end17:
	.size	USART1_IRQHandler, .Lfunc_end17-USART1_IRQHandler
	.cfi_endproc
	.cantunwind
	.fnend
                                        @ -- End function
	.section	.text.USART2_IRQHandler,"ax",%progbits
	.hidden	USART2_IRQHandler               @ -- Begin function USART2_IRQHandler
	.globl	USART2_IRQHandler
	.p2align	2
	.type	USART2_IRQHandler,%function
	.code	16                              @ @USART2_IRQHandler
	.thumb_func
USART2_IRQHandler:
.Lfunc_begin18:
	.loc	1 467 0                         @ ../Core/Src/stm32f4xx_it.c:467:0
	.fnstart
	.cfi_startproc
@ %bb.0:
	.save	{r7, lr}
	push	{r7, lr}
	.cfi_def_cfa_offset 8
	.cfi_offset lr, -4
	.cfi_offset r7, -8
.Ltmp52:
	.loc	1 471 3 prologue_end            @ ../Core/Src/stm32f4xx_it.c:471:3
	movw	r0, :lower16:huart2
	movt	r0, :upper16:huart2
	bl	HAL_UART_IRQHandler
	.loc	1 477 1                         @ ../Core/Src/stm32f4xx_it.c:477:1
	pop	{r7, pc}
.Ltmp53:
.Lfunc_end18:
	.size	USART2_IRQHandler, .Lfunc_end18-USART2_IRQHandler
	.cfi_endproc
	.cantunwind
	.fnend
                                        @ -- End function
	.section	.text.USART3_IRQHandler,"ax",%progbits
	.hidden	USART3_IRQHandler               @ -- Begin function USART3_IRQHandler
	.globl	USART3_IRQHandler
	.p2align	2
	.type	USART3_IRQHandler,%function
	.code	16                              @ @USART3_IRQHandler
	.thumb_func
USART3_IRQHandler:
.Lfunc_begin19:
	.loc	1 483 0                         @ ../Core/Src/stm32f4xx_it.c:483:0
	.fnstart
	.cfi_startproc
@ %bb.0:
	.save	{r7, lr}
	push	{r7, lr}
	.cfi_def_cfa_offset 8
	.cfi_offset lr, -4
	.cfi_offset r7, -8
	.pad	#32
	sub	sp, #32
	.cfi_def_cfa_offset 40
.Ltmp54:
	.loc	1 487 3 prologue_end            @ ../Core/Src/stm32f4xx_it.c:487:3
	movw	r0, :lower16:huart3
	movt	r0, :upper16:huart3
	str	r0, [sp, #24]                   @ 4-byte Spill
	bl	HAL_UART_IRQHandler
	ldr	r0, [sp, #24]                   @ 4-byte Reload
.Ltmp55:
	.loc	1 490 5                         @ ../Core/Src/stm32f4xx_it.c:490:5
	ldr	r0, [r0]
	ldr	r0, [r0]
	and	r1, r0, #16
	movs	r0, #0
.Ltmp56:
	.loc	1 490 5 is_stmt 0               @ ../Core/Src/stm32f4xx_it.c:490:5
	cmp.w	r0, r1, lsr #4
	beq	.LBB19_4
	b	.LBB19_1
.LBB19_1:
.Ltmp57:
	.loc	1 492 50 is_stmt 1              @ ../Core/Src/stm32f4xx_it.c:492:50
	movw	r1, :lower16:USART_Data
	movt	r1, :upper16:USART_Data
	movw	r2, #14397
	movs	r0, #1
	strb	r0, [r1, r2]
	.loc	1 493 6                         @ ../Core/Src/stm32f4xx_it.c:493:6
	b	.LBB19_2
.LBB19_2:
	.loc	1 0 6 is_stmt 0                 @ ../Core/Src/stm32f4xx_it.c:0:6
	movs	r0, #0
.Ltmp58:
	.loc	1 493 6                         @ ../Core/Src/stm32f4xx_it.c:493:6
	str	r0, [sp, #28]
	movw	r0, :lower16:huart3
	movt	r0, :upper16:huart3
	ldr	r1, [r0]
	ldr	r1, [r1]
	str	r1, [sp, #28]
	ldr	r0, [r0]
	ldr	r0, [r0, #4]
	str	r0, [sp, #28]
	ldr	r0, [sp, #28]
	b	.LBB19_3
.Ltmp59:
.LBB19_3:
	.loc	1 494 3 is_stmt 1               @ ../Core/Src/stm32f4xx_it.c:494:3
	movw	r0, :lower16:huart3
	movt	r0, :upper16:huart3
	str	r0, [sp, #8]                    @ 4-byte Spill
	bl	HAL_UART_AbortReceive_IT
	.loc	1 495 75                        @ ../Core/Src/stm32f4xx_it.c:495:75
	movw	r0, :lower16:USART_Data
	movt	r0, :upper16:USART_Data
	movw	r1, #12384
	add	r1, r0
	str	r1, [sp, #20]                   @ 4-byte Spill
	ldrb.w	r1, [r1, #2017]
	movw	r2, #14402
	.loc	1 495 10 is_stmt 0              @ ../Core/Src/stm32f4xx_it.c:495:10
	add	r0, r2
	str	r0, [sp, #4]                    @ 4-byte Spill
	add.w	r1, r1, r1, lsl #2
	add.w	r0, r0, r1, lsl #2
	.loc	1 495 3                         @ ../Core/Src/stm32f4xx_it.c:495:3
	movw	r1, :lower16:UART3_RX_BUF
	movt	r1, :upper16:UART3_RX_BUF
	str	r1, [sp, #12]                   @ 4-byte Spill
	movs	r2, #50
	str	r2, [sp, #16]                   @ 4-byte Spill
	bl	__aeabi_memcpy
	ldr	r1, [sp, #20]                   @ 4-byte Reload
                                        @ kill: def $r2 killed $r0
	.loc	1 498 85 is_stmt 1              @ ../Core/Src/stm32f4xx_it.c:498:85
	ldr	r0, [sp, #4]                    @ 4-byte Reload
	ldrb.w	r1, [r1, #2017]
	.loc	1 498 20 is_stmt 0              @ ../Core/Src/stm32f4xx_it.c:498:20
	add.w	r1, r1, r1, lsl #2
	add.w	r0, r0, r1, lsl #2
	movs	r1, #0
	.loc	1 498 5                         @ ../Core/Src/stm32f4xx_it.c:498:5
	bl	__hardfp_strtod
	vmov	r0, r1, d0
	bl	__aeabi_d2f
	ldr	r1, [sp, #16]                   @ 4-byte Reload
	ldr	r3, [sp, #20]                   @ 4-byte Reload
	mov	r2, r0
	.loc	1 497 68 is_stmt 1              @ ../Core/Src/stm32f4xx_it.c:497:68
	ldr	r0, [sp, #12]                   @ 4-byte Reload
	ldrb.w	r12, [r3, #2017]
	.loc	1 497 3 is_stmt 0               @ ../Core/Src/stm32f4xx_it.c:497:3
	add.w	r3, r3, r12, lsl #2
	.loc	1 498 3 is_stmt 1               @ ../Core/Src/stm32f4xx_it.c:498:3
	str.w	r2, [r3, #2420]
	.loc	1 500 1                         @ ../Core/Src/stm32f4xx_it.c:500:1
	bl	__aeabi_memclr
	ldr	r0, [sp, #8]                    @ 4-byte Reload
	ldr	r1, [sp, #12]                   @ 4-byte Reload
	ldr	r2, [sp, #16]                   @ 4-byte Reload
	.loc	1 502 3                         @ ../Core/Src/stm32f4xx_it.c:502:3
	bl	HAL_UART_Receive_IT
	ldr	r1, [sp, #20]                   @ 4-byte Reload
	.loc	1 504 49                        @ ../Core/Src/stm32f4xx_it.c:504:49
	ldrb.w	r0, [r1, #2017]
	adds	r0, #1
	strb.w	r0, [r1, #2017]
	.loc	1 505 2                         @ ../Core/Src/stm32f4xx_it.c:505:2
	b	.LBB19_4
.Ltmp60:
.LBB19_4:
	.loc	1 509 1                         @ ../Core/Src/stm32f4xx_it.c:509:1
	add	sp, #32
	pop	{r7, pc}
.Ltmp61:
.Lfunc_end19:
	.size	USART3_IRQHandler, .Lfunc_end19-USART3_IRQHandler
	.cfi_endproc
	.cantunwind
	.fnend
                                        @ -- End function
	.section	.text.DMA1_Stream7_IRQHandler,"ax",%progbits
	.hidden	DMA1_Stream7_IRQHandler         @ -- Begin function DMA1_Stream7_IRQHandler
	.globl	DMA1_Stream7_IRQHandler
	.p2align	2
	.type	DMA1_Stream7_IRQHandler,%function
	.code	16                              @ @DMA1_Stream7_IRQHandler
	.thumb_func
DMA1_Stream7_IRQHandler:
.Lfunc_begin20:
	.loc	1 515 0                         @ ../Core/Src/stm32f4xx_it.c:515:0
	.fnstart
	.cfi_startproc
@ %bb.0:
	.save	{r7, lr}
	push	{r7, lr}
	.cfi_def_cfa_offset 8
	.cfi_offset lr, -4
	.cfi_offset r7, -8
.Ltmp62:
	.loc	1 519 3 prologue_end            @ ../Core/Src/stm32f4xx_it.c:519:3
	movw	r0, :lower16:hdma_i2c1_tx
	movt	r0, :upper16:hdma_i2c1_tx
	bl	HAL_DMA_IRQHandler
	.loc	1 524 1                         @ ../Core/Src/stm32f4xx_it.c:524:1
	pop	{r7, pc}
.Ltmp63:
.Lfunc_end20:
	.size	DMA1_Stream7_IRQHandler, .Lfunc_end20-DMA1_Stream7_IRQHandler
	.cfi_endproc
	.cantunwind
	.fnend
                                        @ -- End function
	.section	.text.SDIO_IRQHandler,"ax",%progbits
	.hidden	SDIO_IRQHandler                 @ -- Begin function SDIO_IRQHandler
	.globl	SDIO_IRQHandler
	.p2align	2
	.type	SDIO_IRQHandler,%function
	.code	16                              @ @SDIO_IRQHandler
	.thumb_func
SDIO_IRQHandler:
.Lfunc_begin21:
	.loc	1 530 0                         @ ../Core/Src/stm32f4xx_it.c:530:0
	.fnstart
	.cfi_startproc
@ %bb.0:
	.save	{r7, lr}
	push	{r7, lr}
	.cfi_def_cfa_offset 8
	.cfi_offset lr, -4
	.cfi_offset r7, -8
.Ltmp64:
	.loc	1 534 3 prologue_end            @ ../Core/Src/stm32f4xx_it.c:534:3
	movw	r0, :lower16:hsd
	movt	r0, :upper16:hsd
	bl	HAL_SD_IRQHandler
	.loc	1 538 1                         @ ../Core/Src/stm32f4xx_it.c:538:1
	pop	{r7, pc}
.Ltmp65:
.Lfunc_end21:
	.size	SDIO_IRQHandler, .Lfunc_end21-SDIO_IRQHandler
	.cfi_endproc
	.cantunwind
	.fnend
                                        @ -- End function
	.section	.text.UART4_IRQHandler,"ax",%progbits
	.hidden	UART4_IRQHandler                @ -- Begin function UART4_IRQHandler
	.globl	UART4_IRQHandler
	.p2align	2
	.type	UART4_IRQHandler,%function
	.code	16                              @ @UART4_IRQHandler
	.thumb_func
UART4_IRQHandler:
.Lfunc_begin22:
	.loc	1 544 0                         @ ../Core/Src/stm32f4xx_it.c:544:0
	.fnstart
	.cfi_startproc
@ %bb.0:
	.save	{r7, lr}
	push	{r7, lr}
	.cfi_def_cfa_offset 8
	.cfi_offset lr, -4
	.cfi_offset r7, -8
	.pad	#8
	sub	sp, #8
	.cfi_def_cfa_offset 16
.Ltmp66:
	.loc	1 548 3 prologue_end            @ ../Core/Src/stm32f4xx_it.c:548:3
	movw	r0, :lower16:huart4
	movt	r0, :upper16:huart4
	str	r0, [sp]                        @ 4-byte Spill
	bl	HAL_UART_IRQHandler
	ldr	r0, [sp]                        @ 4-byte Reload
.Ltmp67:
	.loc	1 552 5                         @ ../Core/Src/stm32f4xx_it.c:552:5
	ldr	r0, [r0]
	ldr	r0, [r0]
	and	r1, r0, #16
	movs	r0, #0
.Ltmp68:
	.loc	1 552 5 is_stmt 0               @ ../Core/Src/stm32f4xx_it.c:552:5
	cmp.w	r0, r1, lsr #4
	beq	.LBB22_4
	b	.LBB22_1
.LBB22_1:
.Ltmp69:
	.loc	1 554 3 is_stmt 1               @ ../Core/Src/stm32f4xx_it.c:554:3
	b	.LBB22_2
.LBB22_2:
	.loc	1 0 3 is_stmt 0                 @ ../Core/Src/stm32f4xx_it.c:0:3
	movs	r0, #0
.Ltmp70:
	.loc	1 554 3                         @ ../Core/Src/stm32f4xx_it.c:554:3
	str	r0, [sp, #4]
	movw	r0, :lower16:huart4
	movt	r0, :upper16:huart4
	ldr	r1, [r0]
	ldr	r1, [r1]
	str	r1, [sp, #4]
	ldr	r0, [r0]
	ldr	r0, [r0, #4]
	str	r0, [sp, #4]
	ldr	r0, [sp, #4]
	b	.LBB22_3
.Ltmp71:
.LBB22_3:
	.loc	1 555 34 is_stmt 1              @ ../Core/Src/stm32f4xx_it.c:555:34
	movw	r1, :lower16:SYS_tickTime
	movt	r1, :upper16:SYS_tickTime
	movs	r0, #0
	str	r0, [r1]
	.loc	1 569 2                         @ ../Core/Src/stm32f4xx_it.c:569:2
	b	.LBB22_4
.Ltmp72:
.LBB22_4:
	.loc	1 574 1                         @ ../Core/Src/stm32f4xx_it.c:574:1
	add	sp, #8
	pop	{r7, pc}
.Ltmp73:
.Lfunc_end22:
	.size	UART4_IRQHandler, .Lfunc_end22-UART4_IRQHandler
	.cfi_endproc
	.cantunwind
	.fnend
                                        @ -- End function
	.section	.text.DMA2_Stream2_IRQHandler,"ax",%progbits
	.hidden	DMA2_Stream2_IRQHandler         @ -- Begin function DMA2_Stream2_IRQHandler
	.globl	DMA2_Stream2_IRQHandler
	.p2align	2
	.type	DMA2_Stream2_IRQHandler,%function
	.code	16                              @ @DMA2_Stream2_IRQHandler
	.thumb_func
DMA2_Stream2_IRQHandler:
.Lfunc_begin23:
	.loc	1 580 0                         @ ../Core/Src/stm32f4xx_it.c:580:0
	.fnstart
	.cfi_startproc
@ %bb.0:
	.save	{r7, lr}
	push	{r7, lr}
	.cfi_def_cfa_offset 8
	.cfi_offset lr, -4
	.cfi_offset r7, -8
.Ltmp74:
	.loc	1 584 3 prologue_end            @ ../Core/Src/stm32f4xx_it.c:584:3
	movw	r0, :lower16:hdma_usart1_rx
	movt	r0, :upper16:hdma_usart1_rx
	bl	HAL_DMA_IRQHandler
	.loc	1 588 1                         @ ../Core/Src/stm32f4xx_it.c:588:1
	pop	{r7, pc}
.Ltmp75:
.Lfunc_end23:
	.size	DMA2_Stream2_IRQHandler, .Lfunc_end23-DMA2_Stream2_IRQHandler
	.cfi_endproc
	.cantunwind
	.fnend
                                        @ -- End function
	.section	.text.DMA2_Stream3_IRQHandler,"ax",%progbits
	.hidden	DMA2_Stream3_IRQHandler         @ -- Begin function DMA2_Stream3_IRQHandler
	.globl	DMA2_Stream3_IRQHandler
	.p2align	2
	.type	DMA2_Stream3_IRQHandler,%function
	.code	16                              @ @DMA2_Stream3_IRQHandler
	.thumb_func
DMA2_Stream3_IRQHandler:
.Lfunc_begin24:
	.loc	1 594 0                         @ ../Core/Src/stm32f4xx_it.c:594:0
	.fnstart
	.cfi_startproc
@ %bb.0:
	.save	{r7, lr}
	push	{r7, lr}
	.cfi_def_cfa_offset 8
	.cfi_offset lr, -4
	.cfi_offset r7, -8
.Ltmp76:
	.loc	1 598 3 prologue_end            @ ../Core/Src/stm32f4xx_it.c:598:3
	movw	r0, :lower16:hdma_sdio_rx
	movt	r0, :upper16:hdma_sdio_rx
	bl	HAL_DMA_IRQHandler
	.loc	1 602 1                         @ ../Core/Src/stm32f4xx_it.c:602:1
	pop	{r7, pc}
.Ltmp77:
.Lfunc_end24:
	.size	DMA2_Stream3_IRQHandler, .Lfunc_end24-DMA2_Stream3_IRQHandler
	.cfi_endproc
	.cantunwind
	.fnend
                                        @ -- End function
	.section	.text.DMA2_Stream6_IRQHandler,"ax",%progbits
	.hidden	DMA2_Stream6_IRQHandler         @ -- Begin function DMA2_Stream6_IRQHandler
	.globl	DMA2_Stream6_IRQHandler
	.p2align	2
	.type	DMA2_Stream6_IRQHandler,%function
	.code	16                              @ @DMA2_Stream6_IRQHandler
	.thumb_func
DMA2_Stream6_IRQHandler:
.Lfunc_begin25:
	.loc	1 608 0                         @ ../Core/Src/stm32f4xx_it.c:608:0
	.fnstart
	.cfi_startproc
@ %bb.0:
	.save	{r7, lr}
	push	{r7, lr}
	.cfi_def_cfa_offset 8
	.cfi_offset lr, -4
	.cfi_offset r7, -8
.Ltmp78:
	.loc	1 612 3 prologue_end            @ ../Core/Src/stm32f4xx_it.c:612:3
	movw	r0, :lower16:hdma_sdio_tx
	movt	r0, :upper16:hdma_sdio_tx
	bl	HAL_DMA_IRQHandler
	.loc	1 616 1                         @ ../Core/Src/stm32f4xx_it.c:616:1
	pop	{r7, pc}
.Ltmp79:
.Lfunc_end25:
	.size	DMA2_Stream6_IRQHandler, .Lfunc_end25-DMA2_Stream6_IRQHandler
	.cfi_endproc
	.cantunwind
	.fnend
                                        @ -- End function
	.section	.text.DMA2_Stream7_IRQHandler,"ax",%progbits
	.hidden	DMA2_Stream7_IRQHandler         @ -- Begin function DMA2_Stream7_IRQHandler
	.globl	DMA2_Stream7_IRQHandler
	.p2align	2
	.type	DMA2_Stream7_IRQHandler,%function
	.code	16                              @ @DMA2_Stream7_IRQHandler
	.thumb_func
DMA2_Stream7_IRQHandler:
.Lfunc_begin26:
	.loc	1 622 0                         @ ../Core/Src/stm32f4xx_it.c:622:0
	.fnstart
	.cfi_startproc
@ %bb.0:
	.save	{r7, lr}
	push	{r7, lr}
	.cfi_def_cfa_offset 8
	.cfi_offset lr, -4
	.cfi_offset r7, -8
.Ltmp80:
	.loc	1 626 3 prologue_end            @ ../Core/Src/stm32f4xx_it.c:626:3
	movw	r0, :lower16:hdma_usart1_tx
	movt	r0, :upper16:hdma_usart1_tx
	bl	HAL_DMA_IRQHandler
	.loc	1 632 1                         @ ../Core/Src/stm32f4xx_it.c:632:1
	pop	{r7, pc}
.Ltmp81:
.Lfunc_end26:
	.size	DMA2_Stream7_IRQHandler, .Lfunc_end26-DMA2_Stream7_IRQHandler
	.cfi_endproc
	.cantunwind
	.fnend
                                        @ -- End function
	.section	.text.USART6_IRQHandler,"ax",%progbits
	.hidden	USART6_IRQHandler               @ -- Begin function USART6_IRQHandler
	.globl	USART6_IRQHandler
	.p2align	2
	.type	USART6_IRQHandler,%function
	.code	16                              @ @USART6_IRQHandler
	.thumb_func
USART6_IRQHandler:
.Lfunc_begin27:
	.loc	1 638 0                         @ ../Core/Src/stm32f4xx_it.c:638:0
	.fnstart
	.cfi_startproc
@ %bb.0:
	.save	{r7, lr}
	push	{r7, lr}
	.cfi_def_cfa_offset 8
	.cfi_offset lr, -4
	.cfi_offset r7, -8
	.pad	#32
	sub	sp, #32
	.cfi_def_cfa_offset 40
.Ltmp82:
	.loc	1 642 3 prologue_end            @ ../Core/Src/stm32f4xx_it.c:642:3
	movw	r0, :lower16:huart6
	movt	r0, :upper16:huart6
	str	r0, [sp, #24]                   @ 4-byte Spill
	bl	HAL_UART_IRQHandler
	ldr	r0, [sp, #24]                   @ 4-byte Reload
.Ltmp83:
	.loc	1 645 5                         @ ../Core/Src/stm32f4xx_it.c:645:5
	ldr	r0, [r0]
	ldr	r0, [r0]
	and	r1, r0, #16
	movs	r0, #0
.Ltmp84:
	.loc	1 645 5 is_stmt 0               @ ../Core/Src/stm32f4xx_it.c:645:5
	cmp.w	r0, r1, lsr #4
	beq.w	.LBB27_6
	b	.LBB27_1
.LBB27_1:
.Ltmp85:
	.loc	1 647 50 is_stmt 1              @ ../Core/Src/stm32f4xx_it.c:647:50
	movw	r1, :lower16:USART_Data
	movt	r1, :upper16:USART_Data
	movw	r2, #17003
	movs	r0, #1
	strb	r0, [r1, r2]
	.loc	1 648 6                         @ ../Core/Src/stm32f4xx_it.c:648:6
	b	.LBB27_2
.LBB27_2:
	.loc	1 0 6 is_stmt 0                 @ ../Core/Src/stm32f4xx_it.c:0:6
	movs	r0, #0
.Ltmp86:
	.loc	1 648 6                         @ ../Core/Src/stm32f4xx_it.c:648:6
	str	r0, [sp, #28]
	movw	r0, :lower16:huart6
	movt	r0, :upper16:huart6
	ldr	r1, [r0]
	ldr	r1, [r1]
	str	r1, [sp, #28]
	ldr	r0, [r0]
	ldr	r0, [r0, #4]
	str	r0, [sp, #28]
	ldr	r0, [sp, #28]
	b	.LBB27_3
.Ltmp87:
.LBB27_3:
	.loc	1 649 3 is_stmt 1               @ ../Core/Src/stm32f4xx_it.c:649:3
	movw	r0, :lower16:huart6
	movt	r0, :upper16:huart6
	bl	HAL_UART_AbortReceive_IT
	.loc	1 650 75                        @ ../Core/Src/stm32f4xx_it.c:650:75
	movw	r0, :lower16:USART_Data
	movt	r0, :upper16:USART_Data
	str	r0, [sp, #20]                   @ 4-byte Spill
	movw	r1, #17004
	str	r1, [sp, #16]                   @ 4-byte Spill
	ldrb	r1, [r0, r1]
	movw	r2, #17005
	.loc	1 650 10 is_stmt 0              @ ../Core/Src/stm32f4xx_it.c:650:10
	add	r0, r2
	str	r0, [sp, #12]                   @ 4-byte Spill
	add.w	r1, r1, r1, lsl #2
	add.w	r0, r0, r1, lsl #2
	.loc	1 650 3                         @ ../Core/Src/stm32f4xx_it.c:650:3
	movw	r1, :lower16:UART6_RX_BUF
	movt	r1, :upper16:UART6_RX_BUF
	movs	r2, #100
	bl	__aeabi_memcpy
	ldr	r2, [sp, #16]                   @ 4-byte Reload
	ldr	r1, [sp, #20]                   @ 4-byte Reload
                                        @ kill: def $r3 killed $r0
	.loc	1 654 85 is_stmt 1              @ ../Core/Src/stm32f4xx_it.c:654:85
	ldr	r0, [sp, #12]                   @ 4-byte Reload
	ldrb	r1, [r1, r2]
	.loc	1 654 20 is_stmt 0              @ ../Core/Src/stm32f4xx_it.c:654:20
	add.w	r1, r1, r1, lsl #2
	add.w	r0, r0, r1, lsl #2
	movs	r1, #0
	.loc	1 654 5                         @ ../Core/Src/stm32f4xx_it.c:654:5
	bl	__hardfp_strtod
	vmov	r0, r1, d0
	bl	__aeabi_d2f
	ldr	r2, [sp, #16]                   @ 4-byte Reload
	ldr	r1, [sp, #20]                   @ 4-byte Reload
	mov	r3, r0
	.loc	1 653 68 is_stmt 1              @ ../Core/Src/stm32f4xx_it.c:653:68
	ldrb.w	r12, [r1, r2]
	.loc	1 653 3 is_stmt 0               @ ../Core/Src/stm32f4xx_it.c:653:3
	add.w	r0, r1, #17408
	.loc	1 654 3 is_stmt 1               @ ../Core/Src/stm32f4xx_it.c:654:3
	str.w	r3, [r0, r12, lsl #2]
.Ltmp88:
	.loc	1 655 71                        @ ../Core/Src/stm32f4xx_it.c:655:71
	ldrb	r1, [r1, r2]
	.loc	1 655 6 is_stmt 0               @ ../Core/Src/stm32f4xx_it.c:655:6
	add.w	r0, r0, r1, lsl #2
	vldr	s0, [r0]
	vldr	s2, .LCPI27_0
.Ltmp89:
	.loc	1 655 6                         @ ../Core/Src/stm32f4xx_it.c:655:6
	vcmp.f32	s0, s2
	vmrs	APSR_nzcv, fpscr
	ble	.LBB27_5
	b	.LBB27_4
.LBB27_4:
.Ltmp90:
	.loc	1 657 69 is_stmt 1              @ ../Core/Src/stm32f4xx_it.c:657:69
	movw	r0, :lower16:USART_Data
	movt	r0, :upper16:USART_Data
	movw	r1, #14988
	add	r0, r1
	ldrb.w	r1, [r0, #2016]
	.loc	1 657 4 is_stmt 0               @ ../Core/Src/stm32f4xx_it.c:657:4
	add.w	r1, r0, r1, lsl #2
	movs	r0, #0
	.loc	1 657 93                        @ ../Core/Src/stm32f4xx_it.c:657:93
	str.w	r0, [r1, #2420]
	.loc	1 658 3 is_stmt 1               @ ../Core/Src/stm32f4xx_it.c:658:3
	b	.LBB27_5
.Ltmp91:
.LBB27_5:
	.loc	1 659 3                         @ ../Core/Src/stm32f4xx_it.c:659:3
	movw	r0, :lower16:UART6_RX_BUF
	movt	r0, :upper16:UART6_RX_BUF
	str	r0, [sp, #4]                    @ 4-byte Spill
	movs	r1, #100
	str	r1, [sp, #8]                    @ 4-byte Spill
	bl	__aeabi_memclr
	ldr	r1, [sp, #4]                    @ 4-byte Reload
	ldr	r2, [sp, #8]                    @ 4-byte Reload
	.loc	1 661 3                         @ ../Core/Src/stm32f4xx_it.c:661:3
	movw	r0, :lower16:huart6
	movt	r0, :upper16:huart6
	bl	HAL_UART_Receive_IT
	.loc	1 662 49                        @ ../Core/Src/stm32f4xx_it.c:662:49
	movw	r1, :lower16:USART_Data
	movt	r1, :upper16:USART_Data
	movw	r2, #17004
	ldrb	r0, [r1, r2]
	adds	r0, #1
	strb	r0, [r1, r2]
	.loc	1 664 2                         @ ../Core/Src/stm32f4xx_it.c:664:2
	b	.LBB27_6
.Ltmp92:
.LBB27_6:
	.loc	1 667 1                         @ ../Core/Src/stm32f4xx_it.c:667:1
	add	sp, #32
	pop	{r7, pc}
.Ltmp93:
	.p2align	2
@ %bb.7:
	.loc	1 0 1 is_stmt 0                 @ ../Core/Src/stm32f4xx_it.c:0:1
.LCPI27_0:
	.long	0x447a0000                      @ float 1000
.Lfunc_end27:
	.size	USART6_IRQHandler, .Lfunc_end27-USART6_IRQHandler
	.cfi_endproc
	.cantunwind
	.fnend
                                        @ -- End function
	.section	.text.HAL_UART_TxCpltCallback,"ax",%progbits
	.hidden	HAL_UART_TxCpltCallback         @ -- Begin function HAL_UART_TxCpltCallback
	.globl	HAL_UART_TxCpltCallback
	.p2align	2
	.type	HAL_UART_TxCpltCallback,%function
	.code	16                              @ @HAL_UART_TxCpltCallback
	.thumb_func
HAL_UART_TxCpltCallback:
.Lfunc_begin28:
	.loc	1 674 0 is_stmt 1               @ ../Core/Src/stm32f4xx_it.c:674:0
	.fnstart
	.cfi_startproc
@ %bb.0:
	.pad	#4
	sub	sp, #4
	.cfi_def_cfa_offset 4
	str	r0, [sp]
.Ltmp94:
	.loc	1 677 5 prologue_end            @ ../Core/Src/stm32f4xx_it.c:677:5
	ldr	r0, [sp]
	.loc	1 677 12 is_stmt 0              @ ../Core/Src/stm32f4xx_it.c:677:12
	ldr	r0, [r0]
	movw	r1, #4096
	movt	r1, #16385
.Ltmp95:
	.loc	1 677 5                         @ ../Core/Src/stm32f4xx_it.c:677:5
	cmp	r0, r1
	bne	.LBB28_2
	b	.LBB28_1
.LBB28_1:
.Ltmp96:
	.loc	1 679 49 is_stmt 1              @ ../Core/Src/stm32f4xx_it.c:679:49
	movw	r1, :lower16:USART_Data
	movt	r1, :upper16:USART_Data
	movw	r2, #11378
	movs	r0, #1
	strb	r0, [r1, r2]
	.loc	1 680 2                         @ ../Core/Src/stm32f4xx_it.c:680:2
	b	.LBB28_11
.Ltmp97:
.LBB28_2:
	.loc	1 680 12 is_stmt 0              @ ../Core/Src/stm32f4xx_it.c:680:12
	ldr	r0, [sp]
	.loc	1 680 19                        @ ../Core/Src/stm32f4xx_it.c:680:19
	ldr	r0, [r0]
	movw	r1, #18432
	movt	r1, #16384
.Ltmp98:
	.loc	1 680 12                        @ ../Core/Src/stm32f4xx_it.c:680:12
	cmp	r0, r1
	bne	.LBB28_4
	b	.LBB28_3
.LBB28_3:
.Ltmp99:
	.loc	1 682 49 is_stmt 1              @ ../Core/Src/stm32f4xx_it.c:682:49
	movw	r1, :lower16:USART_Data
	movt	r1, :upper16:USART_Data
	mov.w	r2, #14400
	movs	r0, #1
	strb	r0, [r1, r2]
	.loc	1 683 2                         @ ../Core/Src/stm32f4xx_it.c:683:2
	b	.LBB28_10
.Ltmp100:
.LBB28_4:
	.loc	1 683 11 is_stmt 0              @ ../Core/Src/stm32f4xx_it.c:683:11
	ldr	r0, [sp]
	.loc	1 683 18                        @ ../Core/Src/stm32f4xx_it.c:683:18
	ldr	r0, [r0]
	movw	r1, #5120
	movt	r1, #16385
.Ltmp101:
	.loc	1 683 11                        @ ../Core/Src/stm32f4xx_it.c:683:11
	cmp	r0, r1
	bne	.LBB28_6
	b	.LBB28_5
.LBB28_5:
.Ltmp102:
	.loc	1 685 49 is_stmt 1              @ ../Core/Src/stm32f4xx_it.c:685:49
	movw	r1, :lower16:USART_Data
	movt	r1, :upper16:USART_Data
	movw	r2, #17002
	movs	r0, #1
	strb	r0, [r1, r2]
	.loc	1 686 2                         @ ../Core/Src/stm32f4xx_it.c:686:2
	b	.LBB28_9
.Ltmp103:
.LBB28_6:
	.loc	1 686 11 is_stmt 0              @ ../Core/Src/stm32f4xx_it.c:686:11
	ldr	r0, [sp]
	.loc	1 686 18                        @ ../Core/Src/stm32f4xx_it.c:686:18
	ldr	r0, [r0]
	movw	r1, #19456
	movt	r1, #16384
.Ltmp104:
	.loc	1 686 11                        @ ../Core/Src/stm32f4xx_it.c:686:11
	cmp	r0, r1
	bne	.LBB28_8
	b	.LBB28_7
.LBB28_7:
.Ltmp105:
	.loc	1 688 49 is_stmt 1              @ ../Core/Src/stm32f4xx_it.c:688:49
	movw	r1, :lower16:USART_Data
	movt	r1, :upper16:USART_Data
	movw	r2, #14884
	movs	r0, #1
	strb	r0, [r1, r2]
	.loc	1 689 2                         @ ../Core/Src/stm32f4xx_it.c:689:2
	b	.LBB28_8
.Ltmp106:
.LBB28_8:
	.loc	1 0 2 is_stmt 0                 @ ../Core/Src/stm32f4xx_it.c:0:2
	b	.LBB28_9
.LBB28_9:
	b	.LBB28_10
.LBB28_10:
	b	.LBB28_11
.LBB28_11:
	.loc	1 692 1 is_stmt 1               @ ../Core/Src/stm32f4xx_it.c:692:1
	add	sp, #4
	bx	lr
.Ltmp107:
.Lfunc_end28:
	.size	HAL_UART_TxCpltCallback, .Lfunc_end28-HAL_UART_TxCpltCallback
	.cfi_endproc
	.cantunwind
	.fnend
                                        @ -- End function
	.section	.text.HAL_UART_RxCpltCallback,"ax",%progbits
	.hidden	HAL_UART_RxCpltCallback         @ -- Begin function HAL_UART_RxCpltCallback
	.globl	HAL_UART_RxCpltCallback
	.p2align	2
	.type	HAL_UART_RxCpltCallback,%function
	.code	16                              @ @HAL_UART_RxCpltCallback
	.thumb_func
HAL_UART_RxCpltCallback:
.Lfunc_begin29:
	.loc	1 696 0                         @ ../Core/Src/stm32f4xx_it.c:696:0
	.fnstart
	.cfi_startproc
@ %bb.0:
	.pad	#4
	sub	sp, #4
	.cfi_def_cfa_offset 4
	str	r0, [sp]
.Ltmp108:
	.loc	1 706 1 prologue_end            @ ../Core/Src/stm32f4xx_it.c:706:1
	add	sp, #4
	bx	lr
.Ltmp109:
.Lfunc_end29:
	.size	HAL_UART_RxCpltCallback, .Lfunc_end29-HAL_UART_RxCpltCallback
	.cfi_endproc
	.cantunwind
	.fnend
                                        @ -- End function
	.hidden	ClearData                       @ @ClearData
	.type	ClearData,%object
	.section	.bss.ClearData,"aw",%nobits
	.globl	ClearData
ClearData:
	.zero	50
	.size	ClearData, 50

	.type	SysTick_Handler.Flag_data,%object @ @SysTick_Handler.Flag_data
	.section	.bss.SysTick_Handler.Flag_data,"aw",%nobits
SysTick_Handler.Flag_data:
	.byte	0                               @ 0x0
	.size	SysTick_Handler.Flag_data, 1

	.hidden	UART_RX_STA                     @ @UART_RX_STA
	.type	UART_RX_STA,%object
	.section	.bss.UART_RX_STA,"aw",%nobits
	.globl	UART_RX_STA
	.p2align	1, 0x0
UART_RX_STA:
	.short	0                               @ 0x0
	.size	UART_RX_STA, 2

	.type	USART1_IRQHandler.letter,%object @ @USART1_IRQHandler.letter
	.section	.data.USART1_IRQHandler.letter,"aw",%progbits
USART1_IRQHandler.letter:
	.byte	47                              @ 0x2f
	.size	USART1_IRQHandler.letter, 1

	.section	".note.GNU-stack","",%progbits
	.eabi_attribute	30, 6	@ Tag_ABI_optimization_goals
	.ARM_attribute	16, 1	@ Tag_AV_eba