	.text
	.syntax unified
	.eabi_attribute	67, "2.09"	@ Tag_conformance
	.cpu	cortex-m4
	.eabi_attribute	6, 13	@ Tag_CPU_arch
	.eabi_attribute	7, 77	@ Tag_CPU_arch_profile
	.eabi_attribute	8, 0	@ Tag_ARM_ISA_use
	.eabi_attribute	9, 2	@ Tag_THUMB_ISA_use
	.fpu	fpv4-sp-d16
	.eabi_attribute	27, 1	@ Tag_ABI_HardFP_use
	.eabi_attribute	36, 1	@ Tag_FP_HP_extension
	.eabi_attribute	34, 1	@ Tag_CPU_unaligned_access
	.eabi_attribute	17, 1	@ Tag_ABI_PCS_GOT_use
	.eabi_attribute	20, 2	@ Tag_ABI_FP_denormal
	.eabi_attribute	21, 0	@ Tag_ABI_FP_exceptions
	.eabi_attribute	23, 1	@ Tag_ABI_FP_number_model
	.eabi_attribute	24, 1	@ Tag_ABI_align_needed
	.eabi_attribute	25, 1	@ Tag_ABI_align_preserved
	.eabi_attribute	28, 1	@ Tag_ABI_VFP_args
	.eabi_attribute	38, 1	@ Tag_ABI_FP_16bit_format
	.eabi_attribute	18, 2	@ Tag_ABI_PCS_wchar_t
	.eabi_attribute	26, 1	@ Tag_ABI_enum_size
	.eabi_attribute	14, 0	@ Tag_ABI_PCS_R9_use
	.file	"uiPro.c"
	.file	1 "C:\\Users\\DELL\\Desktop\\NewFolder\\OpticalFiberAmplifierTestRack\\MDK-ARM" "../Core/Src/uiPro.c"
	.file	2 "e:\\Keil_v5\\ARM\\ARMCLANG\\Bin\\..\\include" "stdint.h"
	.file	3 "C:\\Users\\DELL\\Desktop\\NewFolder\\OpticalFiberAmplifierTestRack\\MDK-ARM" "../Drivers/CMSIS/Device/ST/STM32F4xx/Include/stm32f407xx.h"
	.file	4 "C:\\Users\\DELL\\Desktop\\NewFolder\\OpticalFiberAmplifierTestRack\\MDK-ARM" "../Drivers/STM32F4xx_HAL_Driver/Inc\\stm32f4xx_hal_gpio.h"
	.file	5 "C:\\Users\\DELL\\Desktop\\NewFolder\\OpticalFiberAmplifierTestRack\\MDK-ARM" "../Core/Inc/config.h"
	.section	.text.uiTime,"ax",%progbits
	.hidden	uiTime                          @ -- Begin function uiTime
	.globl	uiTime
	.p2align	2
	.type	uiTime,%function
	.code	16                              @ @uiTime
	.thumb_func
uiTime:
.Lfunc_begin0:
	.loc	1 117 0                         @ ../Core/Src/uiPro.c:117:0
	.fnstart
	.cfi_sections .debug_frame
	.cfi_startproc
@ %bb.0:
	.loc	1 122 7 prologue_end            @ ../Core/Src/uiPro.c:122:7
	movw	r0, :lower16:uiTime.ui_ms
	movt	r0, :upper16:uiTime.ui_ms
	ldrb	r1, [r0]
	adds	r1, #1
	strb	r1, [r0]
.Ltmp0:
	.loc	1 123 5                         @ ../Core/Src/uiPro.c:123:5
	ldrb	r0, [r0]
.Ltmp1:
	.loc	1 123 5 is_stmt 0               @ ../Core/Src/uiPro.c:123:5
	cmp	r0, #50
	blt	.LBB0_12
	b	.LBB0_1
.LBB0_1:
	.loc	1 0 5                           @ ../Core/Src/uiPro.c:0:5
	movw	r0, #1040
	movt	r0, #16386
.Ltmp2:
	.loc	1 125 6 is_stmt 1               @ ../Core/Src/uiPro.c:125:6
	ldr	r0, [r0]
.Ltmp3:
	.loc	1 125 6 is_stmt 0               @ ../Core/Src/uiPro.c:125:6
	lsls	r0, r0, #18
	cmp	r0, #0
	bmi	.LBB0_3
	b	.LBB0_2
.LBB0_2:
	.loc	1 0 6                           @ ../Core/Src/uiPro.c:0:6
	movs	r0, #1
.Ltmp4:
	.loc	1 125 6                         @ ../Core/Src/uiPro.c:125:6
	cbnz	r0, .LBB0_4
	b	.LBB0_5
.Ltmp5:
.LBB0_3:
	.loc	1 0 6                           @ ../Core/Src/uiPro.c:0:6
	movs	r0, #1
	.loc	1 125 6                         @ ../Core/Src/uiPro.c:125:6
	cbnz	r0, .LBB0_5
	b	.LBB0_4
.LBB0_4:
.Ltmp6:
	.loc	1 128 34 is_stmt 1              @ ../Core/Src/uiPro.c:128:34
	movw	r1, :lower16:comVariableBlock
	movt	r1, :upper16:comVariableBlock
	movs	r0, #1
	strb	r0, [r1, #13]
	.loc	1 129 3                         @ ../Core/Src/uiPro.c:129:3
	b	.LBB0_6
.Ltmp7:
.LBB0_5:
	.loc	1 0 3 is_stmt 0                 @ ../Core/Src/uiPro.c:0:3
	b	.LBB0_6
.LBB0_6:
	movw	r0, #4112
	movt	r0, #16386
.Ltmp8:
	.loc	1 133 6 is_stmt 1               @ ../Core/Src/uiPro.c:133:6
	ldr	r0, [r0]
.Ltmp9:
	.loc	1 133 6 is_stmt 0               @ ../Core/Src/uiPro.c:133:6
	lsls	r0, r0, #16
	cmp	r0, #0
	bmi	.LBB0_8
	b	.LBB0_7
.LBB0_7:
	.loc	1 0 6                           @ ../Core/Src/uiPro.c:0:6
	movs	r0, #1
.Ltmp10:
	.loc	1 133 6                         @ ../Core/Src/uiPro.c:133:6
	cbnz	r0, .LBB0_9
	b	.LBB0_10
.Ltmp11:
.LBB0_8:
	.loc	1 0 6                           @ ../Core/Src/uiPro.c:0:6
	movs	r0, #1
	.loc	1 133 6                         @ ../Core/Src/uiPro.c:133:6
	cbnz	r0, .LBB0_10
	b	.LBB0_9
.LBB0_9:
.Ltmp12:
	.loc	1 136 3 is_stmt 1               @ ../Core/Src/uiPro.c:136:3
	b	.LBB0_11
.Ltmp13:
.LBB0_10:
	.loc	1 0 3 is_stmt 0                 @ ../Core/Src/uiPro.c:0:3
	b	.LBB0_11
.LBB0_11:
	.loc	1 140 8 is_stmt 1               @ ../Core/Src/uiPro.c:140:8
	movw	r1, :lower16:uiTime.ui_ms
	movt	r1, :upper16:uiTime.ui_ms
	movs	r0, #0
	strb	r0, [r1]
	.loc	1 141 2                         @ ../Core/Src/uiPro.c:141:2
	b	.LBB0_12
.Ltmp14:
.LBB0_12:
	.loc	1 143 1                         @ ../Core/Src/uiPro.c:143:1
	bx	lr
.Ltmp15:
.Lfunc_end0:
	.size	uiTime, .Lfunc_end0-uiTime
	.cfi_endproc
	.cantunwind
	.fnend
                                        @ -- End function
	.section	.text.PageCurConsume_T,"ax",%progbits
	.hidden	PageCurConsume_T                @ -- Begin function PageCurConsume_T
	.globl	PageCurConsume_T
	.p2align	2
	.type	PageCurConsume_T,%function
	.code	16                              @ @PageCurConsume_T
	.thumb_func
PageCurConsume_T:
.Lfunc_begin1:
	.loc	1 146 0                         @ ../Core/Src/uiPro.c:146:0
	.fnstart
	.cfi_startproc
@ %bb.0:
	.save	{r7, lr}
	push	{r7, lr}
	.cfi_def_cfa_offset 8
	.cfi_offset lr, -4
	.cfi_offset r7, -8
	.pad	#120
	sub	sp, #120
	.cfi_def_cfa_offset 128
	str	r0, [sp, #112]
	str	r1, [sp, #108]
.Ltmp16:
	.loc	1 153 31 prologue_end           @ ../Core/Src/uiPro.c:153:31
	movw	r1, :lower16:USART_Data
	movt	r1, :upper16:USART_Data
	ldrb	r0, [r1]
	.loc	1 153 65 is_stmt 0              @ ../Core/Src/uiPro.c:153:65
	ldrb	r1, [r1, #1]
.Ltmp17:
	.loc	1 153 8                         @ ../Core/Src/uiPro.c:153:8
	cmp	r0, r1
	beq	.LBB1_2
	b	.LBB1_1
.LBB1_1:
.Ltmp18:
	.loc	1 155 14 is_stmt 1              @ ../Core/Src/uiPro.c:155:14
	movw	r1, :lower16:PageCurConsume_T.Step
	movt	r1, :upper16:PageCurConsume_T.Step
	movs	r0, #0
	strb	r0, [r1]
	.loc	1 156 19                        @ ../Core/Src/uiPro.c:156:19
	movw	r1, :lower16:PageCurConsume_T.SmallStep
	movt	r1, :upper16:PageCurConsume_T.SmallStep
	movs	r0, #1
	strb	r0, [r1]
	.loc	1 157 71                        @ ../Core/Src/uiPro.c:157:71
	movw	r1, :lower16:USART_Data
	movt	r1, :upper16:USART_Data
	ldrb	r0, [r1]
	.loc	1 157 46 is_stmt 0              @ ../Core/Src/uiPro.c:157:46
	strb	r0, [r1, #1]
	.loc	1 158 5 is_stmt 1               @ ../Core/Src/uiPro.c:158:5
	b	.LBB1_2
.Ltmp19:
.LBB1_2:
	.loc	1 160 9                         @ ../Core/Src/uiPro.c:160:9
	ldr	r0, [sp, #108]
	.loc	1 160 8 is_stmt 0               @ ../Core/Src/uiPro.c:160:8
	ldrb	r0, [r0]
.Ltmp20:
	.loc	1 160 8                         @ ../Core/Src/uiPro.c:160:8
	cmp	r0, #1
	bne	.LBB1_4
	b	.LBB1_3
.LBB1_3:
.Ltmp21:
	.loc	1 162 19 is_stmt 1              @ ../Core/Src/uiPro.c:162:19
	movw	r1, :lower16:PageCurConsume_T.Result
	movt	r1, :upper16:PageCurConsume_T.Result
	movs	r0, #0
	strb	r0, [r1, #1]
	.loc	1 163 19                        @ ../Core/Src/uiPro.c:163:19
	strb	r0, [r1]
	.loc	1 164 10                        @ ../Core/Src/uiPro.c:164:10
	ldr	r1, [sp, #108]
	movs	r0, #2
	.loc	1 164 26 is_stmt 0              @ ../Core/Src/uiPro.c:164:26
	strb	r0, [r1]
	.loc	1 165 14 is_stmt 1              @ ../Core/Src/uiPro.c:165:14
	movw	r2, :lower16:PageCurConsume_T.Step
	movt	r2, :upper16:PageCurConsume_T.Step
	movs	r1, #3
	strb	r1, [r2]
	.loc	1 166 19                        @ ../Core/Src/uiPro.c:166:19
	movw	r1, :lower16:PageCurConsume_T.SmallStep
	movt	r1, :upper16:PageCurConsume_T.SmallStep
	strb	r0, [r1]
	.loc	1 167 5                         @ ../Core/Src/uiPro.c:167:5
	b	.LBB1_4
.Ltmp22:
.LBB1_4:
	.loc	1 169 12                        @ ../Core/Src/uiPro.c:169:12
	movw	r0, :lower16:PageCurConsume_T.Step
	movt	r0, :upper16:PageCurConsume_T.Step
	ldrb	r0, [r0]
	.loc	1 169 5 is_stmt 0               @ ../Core/Src/uiPro.c:169:5
	mov	r1, r0
	str	r1, [sp, #104]                  @ 4-byte Spill
	cmp	r0, #3
	bhi.w	.LBB1_72
@ %bb.5:
	.loc	1 0 5                           @ ../Core/Src/uiPro.c:0:5
	ldr	r1, [sp, #104]                  @ 4-byte Reload
.LCPI1_1:
	tbh	[pc, r1, lsl #1]
@ %bb.6:
.LJTI1_0:
	.short	(.LBB1_7-(.LCPI1_1+4))/2
	.short	(.LBB1_8-(.LCPI1_1+4))/2
	.short	(.LBB1_18-(.LCPI1_1+4))/2
	.short	(.LBB1_43-(.LCPI1_1+4))/2
	.p2align	1
.LBB1_7:
	movs	r0, #1
	str	r0, [sp, #100]                  @ 4-byte Spill
	movs	r1, #0
	movs	r2, #100
.Ltmp23:
	.loc	1 174 13 is_stmt 1              @ ../Core/Src/uiPro.c:174:13
	bl	SetPowerOut
                                        @ kill: def $r1 killed $r0
	.loc	1 175 18                        @ ../Core/Src/uiPro.c:175:18
	ldr	r0, [sp, #100]                  @ 4-byte Reload
	movw	r1, :lower16:PageCurConsume_T.Step
	movt	r1, :upper16:PageCurConsume_T.Step
	strb	r0, [r1]
.Ltmp24:
	.loc	1 177 9                         @ ../Core/Src/uiPro.c:177:9
	b.w	.LBB1_72
.LBB1_8:
.Ltmp25:
	.loc	1 181 18                        @ ../Core/Src/uiPro.c:181:18
	movw	r1, :lower16:PageCurConsume_T.Step
	movt	r1, :upper16:PageCurConsume_T.Step
	movs	r0, #2
	strb	r0, [r1]
	.loc	1 182 13                        @ ../Core/Src/uiPro.c:182:13
	ldr	r1, [sp, #112]
	movw	r2, #11376
	movs	r0, #0
	.loc	1 182 45 is_stmt 0              @ ../Core/Src/uiPro.c:182:45
	strb	r0, [r1, r2]
	movw	r0, #6144
	movt	r0, #16386
	mov.w	r1, #16384
.Ltmp26:
	.loc	1 184 16 is_stmt 1              @ ../Core/Src/uiPro.c:184:16
	bl	HAL_GPIO_ReadPin
.Ltmp27:
	.loc	1 184 16 is_stmt 0              @ ../Core/Src/uiPro.c:184:16
	cmp	r0, #1
	bne	.LBB1_10
	b	.LBB1_9
.LBB1_9:
.Ltmp28:
	.loc	1 187 34 is_stmt 1              @ ../Core/Src/uiPro.c:187:34
	ldr	r2, [sp, #112]
	movw	r3, #11376
	.loc	1 187 97 is_stmt 0              @ ../Core/Src/uiPro.c:187:97
	ldrb	r1, [r2, r3]
	movs	r0, #200
	.loc	1 187 50                        @ ../Core/Src/uiPro.c:187:50
	smlabb	r0, r1, r0, r2
	.loc	1 187 97                        @ ../Core/Src/uiPro.c:187:97
	adds	r1, #1
	strb	r1, [r2, r3]
	.loc	1 187 34                        @ ../Core/Src/uiPro.c:187:34
	add.w	r0, r0, #1376
	.loc	1 187 17                        @ ../Core/Src/uiPro.c:187:17
	movw	r1, :lower16:.L.str
	movt	r1, :upper16:.L.str
	movw	r2, :lower16:.L.str.1
	movt	r2, :upper16:.L.str.1
	movs	r3, #1
	bl	StringChangeLine
	.loc	1 188 13 is_stmt 1              @ ../Core/Src/uiPro.c:188:13
	b	.LBB1_11
.Ltmp29:
.LBB1_10:
	.loc	1 192 34                        @ ../Core/Src/uiPro.c:192:34
	ldr	r2, [sp, #112]
	movw	r3, #11376
	.loc	1 192 97 is_stmt 0              @ ../Core/Src/uiPro.c:192:97
	ldrb	r1, [r2, r3]
	movs	r0, #200
	.loc	1 192 50                        @ ../Core/Src/uiPro.c:192:50
	smlabb	r0, r1, r0, r2
	.loc	1 192 97                        @ ../Core/Src/uiPro.c:192:97
	adds	r1, #1
	strb	r1, [r2, r3]
	.loc	1 192 34                        @ ../Core/Src/uiPro.c:192:34
	add.w	r0, r0, #1376
	.loc	1 192 17                        @ ../Core/Src/uiPro.c:192:17
	movw	r1, :lower16:.L.str
	movt	r1, :upper16:.L.str
	movw	r2, :lower16:.L.str.2
	movt	r2, :upper16:.L.str.2
	movs	r3, #1
	bl	StringChangeLine
	b	.LBB1_11
.Ltmp30:
.LBB1_11:
	.loc	1 195 16 is_stmt 1              @ ../Core/Src/uiPro.c:195:16
	ldr	r0, [sp, #112]
	movw	r1, #12396
	.loc	1 195 32 is_stmt 0              @ ../Core/Src/uiPro.c:195:32
	ldrb	r0, [r0, r1]
.Ltmp31:
	.loc	1 195 16                        @ ../Core/Src/uiPro.c:195:16
	cmp	r0, #1
	bne	.LBB1_13
	b	.LBB1_12
.LBB1_12:
.Ltmp32:
	.loc	1 197 34 is_stmt 1              @ ../Core/Src/uiPro.c:197:34
	ldr	r2, [sp, #112]
	movw	r3, #11376
	.loc	1 197 97 is_stmt 0              @ ../Core/Src/uiPro.c:197:97
	ldrb	r1, [r2, r3]
	movs	r0, #200
	.loc	1 197 50                        @ ../Core/Src/uiPro.c:197:50
	smlabb	r0, r1, r0, r2
	.loc	1 197 97                        @ ../Core/Src/uiPro.c:197:97
	adds	r1, #1
	strb	r1, [r2, r3]
	.loc	1 197 34                        @ ../Core/Src/uiPro.c:197:34
	add.w	r0, r0, #1376
	.loc	1 197 17                        @ ../Core/Src/uiPro.c:197:17
	movw	r1, :lower16:.L.str.3
	movt	r1, :upper16:.L.str.3
	movw	r2, :lower16:.L.str.4
	movt	r2, :upper16:.L.str.4
	movs	r3, #1
	bl	StringChangeLine
	.loc	1 198 13 is_stmt 1              @ ../Core/Src/uiPro.c:198:13
	b	.LBB1_14
.Ltmp33:
.LBB1_13:
	.loc	1 201 34                        @ ../Core/Src/uiPro.c:201:34
	ldr	r2, [sp, #112]
	movw	r3, #11376
	.loc	1 201 97 is_stmt 0              @ ../Core/Src/uiPro.c:201:97
	ldrb	r1, [r2, r3]
	movs	r0, #200
	.loc	1 201 50                        @ ../Core/Src/uiPro.c:201:50
	smlabb	r0, r1, r0, r2
	.loc	1 201 97                        @ ../Core/Src/uiPro.c:201:97
	adds	r1, #1
	strb	r1, [r2, r3]
	.loc	1 201 34                        @ ../Core/Src/uiPro.c:201:34
	add.w	r0, r0, #1376
	.loc	1 201 17                        @ ../Core/Src/uiPro.c:201:17
	movw	r1, :lower16:.L.str.3
	movt	r1, :upper16:.L.str.3
	movw	r2, :lower16:.L.str.5
	movt	r2, :upper16:.L.str.5
	movs	r3, #1
	bl	StringChangeLine
	b	.LBB1_14
.Ltmp34:
.LBB1_14:
	.loc	1 0 17                          @ ../Core/Src/uiPro.c:0:17
	movw	r0, #4096
	movt	r0, #16386
	movs	r1, #4
.Ltmp35:
	.loc	1 204 16 is_stmt 1              @ ../Core/Src/uiPro.c:204:16
	bl	HAL_GPIO_ReadPin
.Ltmp36:
	.loc	1 204 16 is_stmt 0              @ ../Core/Src/uiPro.c:204:16
	cmp	r0, #1
	bne	.LBB1_16
	b	.LBB1_15
.LBB1_15:
.Ltmp37:
	.loc	1 206 34 is_stmt 1              @ ../Core/Src/uiPro.c:206:34
	ldr	r2, [sp, #112]
	movw	r3, #11376
	.loc	1 206 97 is_stmt 0              @ ../Core/Src/uiPro.c:206:97
	ldrb	r1, [r2, r3]
	movs	r0, #200
	.loc	1 206 50                        @ ../Core/Src/uiPro.c:206:50
	smlabb	r0, r1, r0, r2
	.loc	1 206 97                        @ ../Core/Src/uiPro.c:206:97
	adds	r1, #1
	strb	r1, [r2, r3]
	.loc	1 206 34                        @ ../Core/Src/uiPro.c:206:34
	add.w	r0, r0, #1376
	.loc	1 206 17                        @ ../Core/Src/uiPro.c:206:17
	movw	r1, :lower16:.L.str.6
	movt	r1, :upper16:.L.str.6
	movw	r2, :lower16:.L.str.7
	movt	r2, :upper16:.L.str.7
	movs	r3, #1
	bl	StringChangeLine
	.loc	1 207 13 is_stmt 1              @ ../Core/Src/uiPro.c:207:13
	b	.LBB1_17
.Ltmp38:
.LBB1_16:
	.loc	1 210 34                        @ ../Core/Src/uiPro.c:210:34
	ldr	r2, [sp, #112]
	movw	r3, #11376
	.loc	1 210 97 is_stmt 0              @ ../Core/Src/uiPro.c:210:97
	ldrb	r1, [r2, r3]
	movs	r0, #200
	.loc	1 210 50                        @ ../Core/Src/uiPro.c:210:50
	smlabb	r0, r1, r0, r2
	.loc	1 210 97                        @ ../Core/Src/uiPro.c:210:97
	adds	r1, #1
	strb	r1, [r2, r3]
	.loc	1 210 34                        @ ../Core/Src/uiPro.c:210:34
	add.w	r0, r0, #1376
	.loc	1 210 17                        @ ../Core/Src/uiPro.c:210:17
	movw	r1, :lower16:.L.str.6
	movt	r1, :upper16:.L.str.6
	movw	r2, :lower16:.L.str.8
	movt	r2, :upper16:.L.str.8
	movs	r3, #1
	bl	StringChangeLine
	b	.LBB1_17
.Ltmp39:
.LBB1_17:
	.loc	1 215 39 is_stmt 1              @ ../Core/Src/uiPro.c:215:39
	ldr	r0, [sp, #112]
	ldr	r0, [r0, #8]
	bl	__aeabi_f2d
	vmov	d0, r0, r1
	.loc	1 215 13 is_stmt 0              @ ../Core/Src/uiPro.c:215:13
	vmov	r2, r3, d0
	movw	r0, :lower16:PageCurConsume_T.StrTemp
	movt	r0, :upper16:PageCurConsume_T.StrTemp
	str	r0, [sp, #84]                   @ 4-byte Spill
	movw	r1, :lower16:.L.str.9
	movt	r1, :upper16:.L.str.9
	str	r1, [sp, #80]                   @ 4-byte Spill
	bl	sprintf
	ldr	r2, [sp, #84]                   @ 4-byte Reload
	.loc	1 216 30 is_stmt 1              @ ../Core/Src/uiPro.c:216:30
	ldr	r3, [sp, #112]
	movw	r12, #11376
	.loc	1 216 93 is_stmt 0              @ ../Core/Src/uiPro.c:216:93
	str.w	r12, [sp, #96]                  @ 4-byte Spill
	ldrb.w	r1, [r3, r12]
	movs	r0, #200
	.loc	1 216 46                        @ ../Core/Src/uiPro.c:216:46
	str	r0, [sp, #92]                   @ 4-byte Spill
	smlabb	r0, r1, r0, r3
	.loc	1 216 93                        @ ../Core/Src/uiPro.c:216:93
	adds	r1, #1
	strb.w	r1, [r3, r12]
	.loc	1 216 30                        @ ../Core/Src/uiPro.c:216:30
	add.w	r0, r0, #1376
	.loc	1 216 13                        @ ../Core/Src/uiPro.c:216:13
	movw	r1, :lower16:.L.str.10
	movt	r1, :upper16:.L.str.10
	movs	r3, #1
	str	r3, [sp, #88]                   @ 4-byte Spill
	bl	StringChangeLine
	.loc	1 218 39 is_stmt 1              @ ../Core/Src/uiPro.c:218:39
	ldr	r0, [sp, #112]
	ldr	r0, [r0, #12]
	bl	__aeabi_f2d
	mov	r2, r0
	ldr	r0, [sp, #84]                   @ 4-byte Reload
	mov	r3, r1
	ldr	r1, [sp, #80]                   @ 4-byte Reload
	vmov	d0, r2, r3
	.loc	1 218 13 is_stmt 0              @ ../Core/Src/uiPro.c:218:13
	vmov	r2, r3, d0
	bl	sprintf
	ldr	r2, [sp, #84]                   @ 4-byte Reload
	ldr	r3, [sp, #88]                   @ 4-byte Reload
	ldr.w	lr, [sp, #96]                   @ 4-byte Reload
                                        @ kill: def $r1 killed $r0
	.loc	1 219 30 is_stmt 1              @ ../Core/Src/uiPro.c:219:30
	ldr	r0, [sp, #92]                   @ 4-byte Reload
	ldr.w	r12, [sp, #112]
	.loc	1 219 93 is_stmt 0              @ ../Core/Src/uiPro.c:219:93
	ldrb.w	r1, [r12, lr]
	.loc	1 219 46                        @ ../Core/Src/uiPro.c:219:46
	smlabb	r0, r1, r0, r12
	.loc	1 219 93                        @ ../Core/Src/uiPro.c:219:93
	adds	r1, #1
	strb.w	r1, [r12, lr]
	.loc	1 219 30                        @ ../Core/Src/uiPro.c:219:30
	add.w	r0, r0, #1376
	.loc	1 219 13                        @ ../Core/Src/uiPro.c:219:13
	movw	r1, :lower16:.L.str.11
	movt	r1, :upper16:.L.str.11
	bl	StringChangeLine
	.loc	1 221 39 is_stmt 1              @ ../Core/Src/uiPro.c:221:39
	ldr	r0, [sp, #112]
	ldr	r0, [r0, #4]
	bl	__aeabi_f2d
	mov	r2, r0
	ldr	r0, [sp, #84]                   @ 4-byte Reload
	mov	r3, r1
	ldr	r1, [sp, #80]                   @ 4-byte Reload
	vmov	d0, r2, r3
	.loc	1 221 13 is_stmt 0              @ ../Core/Src/uiPro.c:221:13
	vmov	r2, r3, d0
	bl	sprintf
	ldr	r2, [sp, #84]                   @ 4-byte Reload
	ldr	r3, [sp, #88]                   @ 4-byte Reload
	ldr.w	lr, [sp, #96]                   @ 4-byte Reload
                                        @ kill: def $r1 killed $r0
	.loc	1 222 30 is_stmt 1              @ ../Core/Src/uiPro.c:222:30
	ldr	r0, [sp, #92]                   @ 4-byte Reload
	ldr.w	r12, [sp, #112]
	.loc	1 222 93 is_stmt 0              @ ../Core/Src/uiPro.c:222:93
	ldrb.w	r1, [r12, lr]
	.loc	1 222 46                        @ ../Core/Src/uiPro.c:222:46
	smlabb	r0, r1, r0, r12
	.loc	1 222 93                        @ ../Core/Src/uiPro.c:222:93
	adds	r1, #1
	strb.w	r1, [r12, lr]
	.loc	1 222 30                        @ ../Core/Src/uiPro.c:222:30
	add.w	r0, r0, #1376
	.loc	1 222 13                        @ ../Core/Src/uiPro.c:222:13
	movw	r1, :lower16:.L.str.12
	movt	r1, :upper16:.L.str.12
	bl	StringChangeLine
	ldr	r2, [sp, #96]                   @ 4-byte Reload
	.loc	1 224 41 is_stmt 1              @ ../Core/Src/uiPro.c:224:41
	ldr	r0, [sp, #112]
	.loc	1 224 57 is_stmt 0              @ ../Core/Src/uiPro.c:224:57
	add.w	r1, r0, #1376
	.loc	1 224 90                        @ ../Core/Src/uiPro.c:224:90
	ldrb	r2, [r0, r2]
	.loc	1 224 13                        @ ../Core/Src/uiPro.c:224:13
	movw	r0, :lower16:USART_Data
	movt	r0, :upper16:USART_Data
	mov.w	r3, #1000
	bl	ScreenTransmit
.Ltmp40:
	.loc	1 226 9 is_stmt 1               @ ../Core/Src/uiPro.c:226:9
	b	.LBB1_72
.LBB1_18:
.Ltmp41:
	.loc	1 230 7                         @ ../Core/Src/uiPro.c:230:7
	ldr	r0, [sp, #112]
	movw	r1, #11379
	.loc	1 230 23 is_stmt 0              @ ../Core/Src/uiPro.c:230:23
	ldrb	r0, [r0, r1]
.Ltmp42:
	.loc	1 230 7                         @ ../Core/Src/uiPro.c:230:7
	cmp	r0, #1
	bne.w	.LBB1_42
	b	.LBB1_19
.LBB1_19:
.Ltmp43:
	.loc	1 234 5 is_stmt 1               @ ../Core/Src/uiPro.c:234:5
	ldr	r1, [sp, #112]
	movw	r2, #11379
	movs	r0, #0
	.loc	1 234 44 is_stmt 0              @ ../Core/Src/uiPro.c:234:44
	strb	r0, [r1, r2]
	.loc	1 235 22 is_stmt 1              @ ../Core/Src/uiPro.c:235:22
	movw	r1, :lower16:PageCurConsume_T.Step
	movt	r1, :upper16:PageCurConsume_T.Step
	strb	r0, [r1]
.Ltmp44:
	.loc	1 238 41                        @ ../Core/Src/uiPro.c:238:41
	ldr	r0, [sp, #112]
	.loc	1 238 57 is_stmt 0              @ ../Core/Src/uiPro.c:238:57
	add.w	r0, r0, #376
	.loc	1 238 20                        @ ../Core/Src/uiPro.c:238:20
	movw	r1, :lower16:.L.str.7
	movt	r1, :upper16:.L.str.7
	bl	strcmp
.Ltmp45:
	.loc	1 238 20                        @ ../Core/Src/uiPro.c:238:20
	cbnz	r0, .LBB1_21
	b	.LBB1_20
.LBB1_20:
	.loc	1 0 20                          @ ../Core/Src/uiPro.c:0:20
	movw	r1, #4120
	movt	r1, #16386
	mov.w	r0, #262144
.Ltmp46:
	.loc	1 240 21 is_stmt 1              @ ../Core/Src/uiPro.c:240:21
	str	r0, [r1]
	.loc	1 241 17                        @ ../Core/Src/uiPro.c:241:17
	b	.LBB1_24
.Ltmp47:
.LBB1_21:
	.loc	1 242 46                        @ ../Core/Src/uiPro.c:242:46
	ldr	r0, [sp, #112]
	.loc	1 242 62 is_stmt 0              @ ../Core/Src/uiPro.c:242:62
	add.w	r0, r0, #376
	.loc	1 242 25                        @ ../Core/Src/uiPro.c:242:25
	movw	r1, :lower16:.L.str.8
	movt	r1, :upper16:.L.str.8
	bl	strcmp
.Ltmp48:
	.loc	1 242 25                        @ ../Core/Src/uiPro.c:242:25
	cbnz	r0, .LBB1_23
	b	.LBB1_22
.LBB1_22:
	.loc	1 0 25                          @ ../Core/Src/uiPro.c:0:25
	movw	r1, #4120
	movt	r1, #16386
	movs	r0, #4
.Ltmp49:
	.loc	1 244 21 is_stmt 1              @ ../Core/Src/uiPro.c:244:21
	str	r0, [r1]
	.loc	1 246 17                        @ ../Core/Src/uiPro.c:246:17
	b	.LBB1_23
.Ltmp50:
.LBB1_23:
	.loc	1 0 17 is_stmt 0                @ ../Core/Src/uiPro.c:0:17
	b	.LBB1_24
.LBB1_24:
.Ltmp51:
	.loc	1 248 41 is_stmt 1              @ ../Core/Src/uiPro.c:248:41
	ldr	r0, [sp, #112]
	.loc	1 248 57 is_stmt 0              @ ../Core/Src/uiPro.c:248:57
	add.w	r0, r0, #376
	.loc	1 248 20                        @ ../Core/Src/uiPro.c:248:20
	movw	r1, :lower16:.L.str.1
	movt	r1, :upper16:.L.str.1
	bl	strcmp
.Ltmp52:
	.loc	1 248 20                        @ ../Core/Src/uiPro.c:248:20
	cbnz	r0, .LBB1_26
	b	.LBB1_25
.LBB1_25:
	.loc	1 0 20                          @ ../Core/Src/uiPro.c:0:20
	movw	r1, #6168
	movt	r1, #16386
	mov.w	r0, #1073741824
.Ltmp53:
	.loc	1 250 21 is_stmt 1              @ ../Core/Src/uiPro.c:250:21
	str	r0, [r1]
	.loc	1 251 17                        @ ../Core/Src/uiPro.c:251:17
	b	.LBB1_41
.Ltmp54:
.LBB1_26:
	.loc	1 252 46                        @ ../Core/Src/uiPro.c:252:46
	ldr	r0, [sp, #112]
	.loc	1 252 62 is_stmt 0              @ ../Core/Src/uiPro.c:252:62
	add.w	r0, r0, #376
	.loc	1 252 25                        @ ../Core/Src/uiPro.c:252:25
	movw	r1, :lower16:.L.str.2
	movt	r1, :upper16:.L.str.2
	bl	strcmp
.Ltmp55:
	.loc	1 252 25                        @ ../Core/Src/uiPro.c:252:25
	cbnz	r0, .LBB1_28
	b	.LBB1_27
.LBB1_27:
	.loc	1 0 25                          @ ../Core/Src/uiPro.c:0:25
	movw	r1, #6168
	movt	r1, #16386
	mov.w	r0, #16384
.Ltmp56:
	.loc	1 254 21 is_stmt 1              @ ../Core/Src/uiPro.c:254:21
	str	r0, [r1]
	.loc	1 255 17                        @ ../Core/Src/uiPro.c:255:17
	b	.LBB1_40
.Ltmp57:
.LBB1_28:
	.loc	1 256 46                        @ ../Core/Src/uiPro.c:256:46
	ldr	r0, [sp, #112]
	.loc	1 256 62 is_stmt 0              @ ../Core/Src/uiPro.c:256:62
	add.w	r0, r0, #376
	.loc	1 256 25                        @ ../Core/Src/uiPro.c:256:25
	movw	r1, :lower16:.L.str.5
	movt	r1, :upper16:.L.str.5
	bl	strcmp
.Ltmp58:
	.loc	1 256 25                        @ ../Core/Src/uiPro.c:256:25
	cbnz	r0, .LBB1_30
	b	.LBB1_29
.LBB1_29:
	.loc	1 0 25                          @ ../Core/Src/uiPro.c:0:25
	movs	r0, #0
	movs	r1, #1
	mov.w	r2, #1000
.Ltmp59:
	.loc	1 258 21 is_stmt 1              @ ../Core/Src/uiPro.c:258:21
	bl	SetPowerOut
	.loc	1 259 17                        @ ../Core/Src/uiPro.c:259:17
	b	.LBB1_39
.Ltmp60:
.LBB1_30:
	.loc	1 260 46                        @ ../Core/Src/uiPro.c:260:46
	ldr	r0, [sp, #112]
	.loc	1 260 62 is_stmt 0              @ ../Core/Src/uiPro.c:260:62
	add.w	r0, r0, #376
	.loc	1 260 25                        @ ../Core/Src/uiPro.c:260:25
	movw	r1, :lower16:.L.str.4
	movt	r1, :upper16:.L.str.4
	bl	strcmp
.Ltmp61:
	.loc	1 260 25                        @ ../Core/Src/uiPro.c:260:25
	cbnz	r0, .LBB1_32
	b	.LBB1_31
.LBB1_31:
	.loc	1 0 25                          @ ../Core/Src/uiPro.c:0:25
	movs	r1, #0
	mov.w	r2, #1000
.Ltmp62:
	.loc	1 262 21 is_stmt 1              @ ../Core/Src/uiPro.c:262:21
	mov	r0, r1
	bl	SetPowerOut
	.loc	1 263 17                        @ ../Core/Src/uiPro.c:263:17
	b	.LBB1_38
.Ltmp63:
.LBB1_32:
	.loc	1 264 25                        @ ../Core/Src/uiPro.c:264:25
	ldr	r0, [sp, #112]
	ldrb.w	r0, [r0, #376]
	.loc	1 264 70 is_stmt 0              @ ../Core/Src/uiPro.c:264:70
	cmp	r0, #97
	bne	.LBB1_37
	b	.LBB1_33
.LBB1_33:
	.loc	1 265 25 is_stmt 1              @ ../Core/Src/uiPro.c:265:25
	ldr	r0, [sp, #112]
	ldrb.w	r0, [r0, #378]
	.loc	1 265 70 is_stmt 0              @ ../Core/Src/uiPro.c:265:70
	cmp	r0, #111
	bne	.LBB1_37
	b	.LBB1_34
.LBB1_34:
	.loc	1 266 25 is_stmt 1              @ ../Core/Src/uiPro.c:266:25
	ldr	r0, [sp, #112]
	ldrb.w	r0, [r0, #379]
	.loc	1 266 70 is_stmt 0              @ ../Core/Src/uiPro.c:266:70
	cmp	r0, #117
	bne	.LBB1_37
	b	.LBB1_35
.LBB1_35:
	.loc	1 267 25 is_stmt 1              @ ../Core/Src/uiPro.c:267:25
	ldr	r0, [sp, #112]
	ldrb.w	r0, [r0, #380]
.Ltmp64:
	.loc	1 264 25                        @ ../Core/Src/uiPro.c:264:25
	cmp	r0, #116
	bne	.LBB1_37
	b	.LBB1_36
.LBB1_36:
.Ltmp65:
	.loc	1 269 26                        @ ../Core/Src/uiPro.c:269:26
	movw	r1, :lower16:PageCurConsume_T.Step
	movt	r1, :upper16:PageCurConsume_T.Step
	movs	r0, #3
	strb	r0, [r1]
	.loc	1 270 28                        @ ../Core/Src/uiPro.c:270:28
	ldr	r0, [sp, #112]
	.loc	1 270 44 is_stmt 0              @ ../Core/Src/uiPro.c:270:44
	add.w	r0, r0, #376
	mov.w	r1, #1000
	.loc	1 270 21                        @ ../Core/Src/uiPro.c:270:21
	bl	__aeabi_memclr4
	.loc	1 271 17 is_stmt 1              @ ../Core/Src/uiPro.c:271:17
	b	.LBB1_37
.Ltmp66:
.LBB1_37:
	.loc	1 0 17 is_stmt 0                @ ../Core/Src/uiPro.c:0:17
	b	.LBB1_38
.LBB1_38:
	b	.LBB1_39
.LBB1_39:
	b	.LBB1_40
.LBB1_40:
	b	.LBB1_41
.LBB1_41:
	.loc	1 272 13 is_stmt 1              @ ../Core/Src/uiPro.c:272:13
	b	.LBB1_42
.Ltmp67:
.LBB1_42:
	.loc	1 274 9                         @ ../Core/Src/uiPro.c:274:9
	b	.LBB1_72
.LBB1_43:
.Ltmp68:
	.loc	1 279 16                        @ ../Core/Src/uiPro.c:279:16
	movw	r0, :lower16:PageCurConsume_T.SmallStep
	movt	r0, :upper16:PageCurConsume_T.SmallStep
	ldrb	r0, [r0]
.Ltmp69:
	.loc	1 279 16 is_stmt 0              @ ../Core/Src/uiPro.c:279:16
	cmp	r0, #1
	bne	.LBB1_45
	b	.LBB1_44
.LBB1_44:
.Ltmp70:
	.loc	1 281 27 is_stmt 1              @ ../Core/Src/uiPro.c:281:27
	movw	r1, :lower16:PageCurConsume_T.SmallStep
	movt	r1, :upper16:PageCurConsume_T.SmallStep
	movs	r0, #2
	strb	r0, [r1]
	.loc	1 282 51                        @ ../Core/Src/uiPro.c:282:51
	movw	r1, :lower16:SYS_tickTime
	movt	r1, :upper16:SYS_tickTime
	movs	r0, #0
	str	r0, [sp, #76]                   @ 4-byte Spill
	str	r0, [r1, #12]
	.loc	1 283 26                        @ ../Core/Src/uiPro.c:283:26
	ldr	r1, [sp, #112]
	.loc	1 283 42 is_stmt 0              @ ../Core/Src/uiPro.c:283:42
	vldr	s0, [r1, #4]
	mov.w	r1, #1000
	.loc	1 283 17                        @ ../Core/Src/uiPro.c:283:17
	str	r1, [sp, #72]                   @ 4-byte Spill
	bl	SetPower
	ldr	r1, [sp, #72]                   @ 4-byte Reload
	vmov.f32	s0, #1.000000e+00
	movs	r0, #1
	.loc	1 284 17 is_stmt 1              @ ../Core/Src/uiPro.c:284:17
	str	r0, [sp, #68]                   @ 4-byte Spill
	bl	SetPower
	ldr	r1, [sp, #68]                   @ 4-byte Reload
	ldr	r2, [sp, #72]                   @ 4-byte Reload
                                        @ kill: def $r3 killed $r0
	.loc	1 285 17                        @ ../Core/Src/uiPro.c:285:17
	ldr	r0, [sp, #76]                   @ 4-byte Reload
	bl	SetPowerOut
	movw	r1, #6168
	movt	r1, #16386
	mov.w	r0, #16384
	.loc	1 286 17                        @ ../Core/Src/uiPro.c:286:17
	str	r0, [r1]
	.loc	1 288 13                        @ ../Core/Src/uiPro.c:288:13
	b	.LBB1_71
.Ltmp71:
.LBB1_45:
	.loc	1 289 22                        @ ../Core/Src/uiPro.c:289:22
	movw	r0, :lower16:PageCurConsume_T.SmallStep
	movt	r0, :upper16:PageCurConsume_T.SmallStep
	ldrb	r0, [r0]
.Ltmp72:
	.loc	1 289 22 is_stmt 0              @ ../Core/Src/uiPro.c:289:22
	cmp	r0, #2
	bne	.LBB1_51
	b	.LBB1_46
.LBB1_46:
.Ltmp73:
	.loc	1 291 46 is_stmt 1              @ ../Core/Src/uiPro.c:291:46
	movw	r1, :lower16:SYS_tickTime
	movt	r1, :upper16:SYS_tickTime
	movs	r0, #0
	str	r0, [r1, #4]
.Ltmp74:
	.loc	1 293 21                        @ ../Core/Src/uiPro.c:293:21
	ldr	r0, [sp, #108]
	.loc	1 293 20 is_stmt 0              @ ../Core/Src/uiPro.c:293:20
	ldrb	r0, [r0]
.Ltmp75:
	.loc	1 293 20                        @ ../Core/Src/uiPro.c:293:20
	cbz	r0, .LBB1_48
	b	.LBB1_47
.LBB1_47:
.Ltmp76:
	.loc	1 295 55 is_stmt 1              @ ../Core/Src/uiPro.c:295:55
	movw	r1, :lower16:SYS_tickTime
	movt	r1, :upper16:SYS_tickTime
	movw	r0, #1500
	str	r0, [r1, #12]
	.loc	1 296 17                        @ ../Core/Src/uiPro.c:296:17
	b	.LBB1_48
.Ltmp77:
.LBB1_48:
	.loc	1 298 33                        @ ../Core/Src/uiPro.c:298:33
	movw	r0, :lower16:SYS_tickTime
	movt	r0, :upper16:SYS_tickTime
	ldr	r0, [r0, #12]
	movw	r1, #1500
.Ltmp78:
	.loc	1 298 20 is_stmt 0              @ ../Core/Src/uiPro.c:298:20
	cmp	r0, r1
	blo	.LBB1_50
	b	.LBB1_49
.LBB1_49:
.Ltmp79:
	.loc	1 300 31 is_stmt 1              @ ../Core/Src/uiPro.c:300:31
	movw	r1, :lower16:PageCurConsume_T.SmallStep
	movt	r1, :upper16:PageCurConsume_T.SmallStep
	movs	r0, #3
	strb	r0, [r1]
	movw	r1, #6168
	movt	r1, #16386
	str	r1, [sp, #64]                   @ 4-byte Spill
	mov.w	r0, #16384
	.loc	1 301 21                        @ ../Core/Src/uiPro.c:301:21
	str	r0, [r1]
	.loc	1 302 21                        @ ../Core/Src/uiPro.c:302:21
	movw	r0, :lower16:.L.str.13
	movt	r0, :upper16:.L.str.13
	mov.w	r1, #1000
	str	r1, [sp, #60]                   @ 4-byte Spill
	bl	SensorInstructionTransmit
	ldr	r1, [sp, #60]                   @ 4-byte Reload
	.loc	1 303 21                        @ ../Core/Src/uiPro.c:303:21
	movw	r0, :lower16:.L.str.14
	movt	r0, :upper16:.L.str.14
	bl	SensorInstructionTransmit
	ldr	r1, [sp, #60]                   @ 4-byte Reload
	vldr	s0, __arm_cp.1_2
	movs	r0, #2
	.loc	1 304 21                        @ ../Core/Src/uiPro.c:304:21
	bl	SetPower
	movs	r0, #100
	.loc	1 305 6                         @ ../Core/Src/uiPro.c:305:6
	bl	My_Delay
	ldr	r1, [sp, #60]                   @ 4-byte Reload
	movs	r0, #0
	.loc	1 306 21                        @ ../Core/Src/uiPro.c:306:21
	bl	GetMultimeter
	ldr	r1, [sp, #64]                   @ 4-byte Reload
	mov.w	r0, #1073741824
	.loc	1 307 21                        @ ../Core/Src/uiPro.c:307:21
	str	r0, [r1]
	.loc	1 308 17                        @ ../Core/Src/uiPro.c:308:17
	b	.LBB1_50
.Ltmp80:
.LBB1_50:
	.loc	1 309 13                        @ ../Core/Src/uiPro.c:309:13
	b	.LBB1_70
.Ltmp81:
.LBB1_51:
	.loc	1 310 22                        @ ../Core/Src/uiPro.c:310:22
	movw	r0, :lower16:PageCurConsume_T.SmallStep
	movt	r0, :upper16:PageCurConsume_T.SmallStep
	ldrb	r0, [r0]
.Ltmp82:
	.loc	1 310 22 is_stmt 0              @ ../Core/Src/uiPro.c:310:22
	cmp	r0, #3
	bne.w	.LBB1_69
	b	.LBB1_52
.LBB1_52:
.Ltmp83:
	.loc	1 312 27 is_stmt 1              @ ../Core/Src/uiPro.c:312:27
	movw	r1, :lower16:PageCurConsume_T.SmallStep
	movt	r1, :upper16:PageCurConsume_T.SmallStep
	movs	r0, #1
	str	r0, [sp, #48]                   @ 4-byte Spill
	strb	r0, [r1]
	.loc	1 313 22                        @ ../Core/Src/uiPro.c:313:22
	movw	r1, :lower16:PageCurConsume_T.Step
	movt	r1, :upper16:PageCurConsume_T.Step
	movs	r0, #0
	strb	r0, [r1]
	.loc	1 314 17                        @ ../Core/Src/uiPro.c:314:17
	ldr	r1, [sp, #112]
	movw	r2, #11376
	.loc	1 314 49 is_stmt 0              @ ../Core/Src/uiPro.c:314:49
	str	r2, [sp, #52]                   @ 4-byte Spill
	strb	r0, [r1, r2]
	.loc	1 316 44 is_stmt 1              @ ../Core/Src/uiPro.c:316:44
	ldr	r0, [sp, #112]
	movw	r1, #12388
	ldr	r0, [r0, r1]
	bl	__aeabi_f2d
	vmov	d0, r0, r1
	.loc	1 316 17 is_stmt 0              @ ../Core/Src/uiPro.c:316:17
	vmov	r2, r3, d0
	movw	r0, :lower16:PageCurConsume_T.StrTemp
	movt	r0, :upper16:PageCurConsume_T.StrTemp
	str	r0, [sp, #44]                   @ 4-byte Spill
	movw	r1, :lower16:.L.str.15
	movt	r1, :upper16:.L.str.15
	bl	sprintf
	ldr	r2, [sp, #44]                   @ 4-byte Reload
	ldr	r3, [sp, #48]                   @ 4-byte Reload
	ldr.w	lr, [sp, #52]                   @ 4-byte Reload
	.loc	1 317 34 is_stmt 1              @ ../Core/Src/uiPro.c:317:34
	ldr.w	r12, [sp, #112]
	.loc	1 317 97 is_stmt 0              @ ../Core/Src/uiPro.c:317:97
	ldrb.w	r1, [r12, lr]
	movs	r0, #200
	.loc	1 317 50                        @ ../Core/Src/uiPro.c:317:50
	str	r0, [sp, #56]                   @ 4-byte Spill
	smlabb	r0, r1, r0, r12
	.loc	1 317 97                        @ ../Core/Src/uiPro.c:317:97
	adds	r1, #1
	strb.w	r1, [r12, lr]
	.loc	1 317 34                        @ ../Core/Src/uiPro.c:317:34
	add.w	r0, r0, #1376
	.loc	1 317 17                        @ ../Core/Src/uiPro.c:317:17
	movw	r1, :lower16:.L.str.16
	movt	r1, :upper16:.L.str.16
	bl	StringChangeLine
	.loc	1 320 44 is_stmt 1              @ ../Core/Src/uiPro.c:320:44
	ldr	r0, [sp, #112]
	movw	r1, #12384
	ldr	r0, [r0, r1]
	bl	__aeabi_f2d
	mov	r2, r0
	ldr	r0, [sp, #44]                   @ 4-byte Reload
	str	r2, [sp, #32]                   @ 4-byte Spill
	mov	r2, r1
	ldr	r1, [sp, #32]                   @ 4-byte Reload
	vmov	d0, r1, r2
	.loc	1 320 17 is_stmt 0              @ ../Core/Src/uiPro.c:320:17
	vmov	r2, r3, d0
	movw	r1, :lower16:.L.str.17
	movt	r1, :upper16:.L.str.17
	bl	sprintf
	ldr	r2, [sp, #44]                   @ 4-byte Reload
	ldr	r3, [sp, #48]                   @ 4-byte Reload
	ldr.w	lr, [sp, #52]                   @ 4-byte Reload
                                        @ kill: def $r1 killed $r0
	.loc	1 321 34 is_stmt 1              @ ../Core/Src/uiPro.c:321:34
	ldr	r0, [sp, #56]                   @ 4-byte Reload
	ldr.w	r12, [sp, #112]
	.loc	1 321 97 is_stmt 0              @ ../Core/Src/uiPro.c:321:97
	ldrb.w	r1, [r12, lr]
	.loc	1 321 50                        @ ../Core/Src/uiPro.c:321:50
	smlabb	r0, r1, r0, r12
	.loc	1 321 97                        @ ../Core/Src/uiPro.c:321:97
	adds	r1, #1
	strb.w	r1, [r12, lr]
	.loc	1 321 34                        @ ../Core/Src/uiPro.c:321:34
	add.w	r0, r0, #1376
	.loc	1 321 17                        @ ../Core/Src/uiPro.c:321:17
	movw	r1, :lower16:.L.str.18
	movt	r1, :upper16:.L.str.18
	bl	StringChangeLine
	.loc	1 324 44 is_stmt 1              @ ../Core/Src/uiPro.c:324:44
	ldr	r0, [sp, #112]
	movw	r1, #12392
	ldr	r0, [r0, r1]
	bl	__aeabi_f2d
	mov	r2, r0
	ldr	r0, [sp, #44]                   @ 4-byte Reload
	str	r2, [sp, #36]                   @ 4-byte Spill
	mov	r2, r1
	ldr	r1, [sp, #36]                   @ 4-byte Reload
	vmov	d0, r1, r2
	.loc	1 324 17 is_stmt 0              @ ../Core/Src/uiPro.c:324:17
	vmov	r2, r3, d0
	movw	r1, :lower16:.L.str.19
	movt	r1, :upper16:.L.str.19
	bl	sprintf
	ldr	r2, [sp, #44]                   @ 4-byte Reload
	ldr	r3, [sp, #48]                   @ 4-byte Reload
	ldr.w	lr, [sp, #52]                   @ 4-byte Reload
                                        @ kill: def $r1 killed $r0
	.loc	1 325 34 is_stmt 1              @ ../Core/Src/uiPro.c:325:34
	ldr	r0, [sp, #56]                   @ 4-byte Reload
	ldr.w	r12, [sp, #112]
	.loc	1 325 97 is_stmt 0              @ ../Core/Src/uiPro.c:325:97
	ldrb.w	r1, [r12, lr]
	.loc	1 325 50                        @ ../Core/Src/uiPro.c:325:50
	smlabb	r0, r1, r0, r12
	.loc	1 325 97                        @ ../Core/Src/uiPro.c:325:97
	adds	r1, #1
	strb.w	r1, [r12, lr]
	.loc	1 325 34                        @ ../Core/Src/uiPro.c:325:34
	add.w	r0, r0, #1376
	.loc	1 325 17                        @ ../Core/Src/uiPro.c:325:17
	movw	r1, :lower16:.L.str.20
	movt	r1, :upper16:.L.str.20
	bl	StringChangeLine
	.loc	1 328 45 is_stmt 1              @ ../Core/Src/uiPro.c:328:45
	ldr	r0, [sp, #112]
	movw	r1, #14988
	ldr	r0, [r0, r1]
	bl	__aeabi_f2d
	mov	r2, r0
	ldr	r0, [sp, #44]                   @ 4-byte Reload
	str	r2, [sp, #40]                   @ 4-byte Spill
	mov	r2, r1
	ldr	r1, [sp, #40]                   @ 4-byte Reload
	vmov	d0, r1, r2
	.loc	1 328 17 is_stmt 0              @ ../Core/Src/uiPro.c:328:17
	vmov	r2, r3, d0
	movw	r1, :lower16:.L.str.21
	movt	r1, :upper16:.L.str.21
	bl	sprintf
	ldr	r2, [sp, #44]                   @ 4-byte Reload
	ldr	r3, [sp, #48]                   @ 4-byte Reload
	ldr.w	lr, [sp, #52]                   @ 4-byte Reload
                                        @ kill: def $r1 killed $r0
	.loc	1 329 34 is_stmt 1              @ ../Core/Src/uiPro.c:329:34
	ldr	r0, [sp, #56]                   @ 4-byte Reload
	ldr.w	r12, [sp, #112]
	.loc	1 329 97 is_stmt 0              @ ../Core/Src/uiPro.c:329:97
	ldrb.w	r1, [r12, lr]
	.loc	1 329 50                        @ ../Core/Src/uiPro.c:329:50
	smlabb	r0, r1, r0, r12
	.loc	1 329 97                        @ ../Core/Src/uiPro.c:329:97
	adds	r1, #1
	strb.w	r1, [r12, lr]
	.loc	1 329 34                        @ ../Core/Src/uiPro.c:329:34
	add.w	r0, r0, #1376
	.loc	1 329 17                        @ ../Core/Src/uiPro.c:329:17
	movw	r1, :lower16:.L.str.22
	movt	r1, :upper16:.L.str.22
	bl	StringChangeLine
.Ltmp84:
	.loc	1 332 21 is_stmt 1              @ ../Core/Src/uiPro.c:332:21
	ldr	r0, [sp, #108]
	.loc	1 332 20 is_stmt 0              @ ../Core/Src/uiPro.c:332:20
	ldrb	r0, [r0]
.Ltmp85:
	.loc	1 332 20                        @ ../Core/Src/uiPro.c:332:20
	cbnz	r0, .LBB1_54
	b	.LBB1_53
.LBB1_53:
.Ltmp86:
	.loc	1 334 38 is_stmt 1              @ ../Core/Src/uiPro.c:334:38
	ldr	r2, [sp, #112]
	movw	r3, #11376
	.loc	1 334 101 is_stmt 0             @ ../Core/Src/uiPro.c:334:101
	str	r3, [sp, #28]                   @ 4-byte Spill
	ldrb	r1, [r2, r3]
	movs	r0, #200
	.loc	1 334 54                        @ ../Core/Src/uiPro.c:334:54
	str	r0, [sp, #24]                   @ 4-byte Spill
	smlabb	r0, r1, r0, r2
	.loc	1 334 101                       @ ../Core/Src/uiPro.c:334:101
	adds	r1, #1
	strb	r1, [r2, r3]
	.loc	1 334 38                        @ ../Core/Src/uiPro.c:334:38
	add.w	r0, r0, #1376
	.loc	1 334 21                        @ ../Core/Src/uiPro.c:334:21
	movw	r1, :lower16:.L.str.23
	movt	r1, :upper16:.L.str.23
	movw	r2, :lower16:.L.str.24
	movt	r2, :upper16:.L.str.24
	movs	r3, #1
	bl	StringChangeLine
	ldr	r0, [sp, #24]                   @ 4-byte Reload
	ldr	r3, [sp, #28]                   @ 4-byte Reload
	.loc	1 335 38 is_stmt 1              @ ../Core/Src/uiPro.c:335:38
	ldr	r2, [sp, #112]
	.loc	1 335 101 is_stmt 0             @ ../Core/Src/uiPro.c:335:101
	ldrb	r1, [r2, r3]
	.loc	1 335 54                        @ ../Core/Src/uiPro.c:335:54
	smlabb	r0, r1, r0, r2
	.loc	1 335 101                       @ ../Core/Src/uiPro.c:335:101
	adds	r1, #1
	strb	r1, [r2, r3]
	.loc	1 335 38                        @ ../Core/Src/uiPro.c:335:38
	add.w	r0, r0, #1376
	.loc	1 335 21                        @ ../Core/Src/uiPro.c:335:21
	movw	r1, :lower16:.L.str.25
	movt	r1, :upper16:.L.str.25
	movw	r2, :lower16:.L.str.26
	movt	r2, :upper16:.L.str.26
	movs	r3, #0
	bl	StringChangeLine
	.loc	1 336 17 is_stmt 1              @ ../Core/Src/uiPro.c:336:17
	b	.LBB1_54
.Ltmp87:
.LBB1_54:
	.loc	1 338 53                        @ ../Core/Src/uiPro.c:338:53
	ldr	r0, [sp, #112]
	movw	r1, #14988
	str	r1, [sp, #20]                   @ 4-byte Spill
	ldr	r0, [r0, r1]
	bl	__aeabi_f2d
	vmov	d0, r0, r1
	.loc	1 338 17 is_stmt 0              @ ../Core/Src/uiPro.c:338:17
	movw	r0, :lower16:.L.str.28
	movt	r0, :upper16:.L.str.28
	mov	r1, sp
	str	r0, [r1]
	vmov	r2, r3, d0
	movw	r0, :lower16:PageCurConsume_T.StrTemp
	movt	r0, :upper16:PageCurConsume_T.StrTemp
	movw	r1, :lower16:.L.str.27
	movt	r1, :upper16:.L.str.27
	bl	sprintf
	ldr	r1, [sp, #20]                   @ 4-byte Reload
	.loc	1 339 34 is_stmt 1              @ ../Core/Src/uiPro.c:339:34
	ldr	r2, [sp, #112]
	.loc	1 339 50 is_stmt 0              @ ../Core/Src/uiPro.c:339:50
	ldr	r0, [r2, r1]
	.loc	1 339 32                        @ ../Core/Src/uiPro.c:339:32
	str.w	r0, [r2, #372]
.Ltmp88:
	.loc	1 340 20 is_stmt 1              @ ../Core/Src/uiPro.c:340:20
	ldr	r0, [sp, #112]
	.loc	1 340 24 is_stmt 0              @ ../Core/Src/uiPro.c:340:24
	add	r1, r0
	.loc	1 340 36                        @ ../Core/Src/uiPro.c:340:36
	vldr	s0, [r1]
	.loc	1 340 72                        @ ../Core/Src/uiPro.c:340:72
	vldr	s2, [r0, #12]
	.loc	1 340 85                        @ ../Core/Src/uiPro.c:340:85
	vcmp.f32	s0, s2
	vmrs	APSR_nzcv, fpscr
	ble	.LBB1_61
	b	.LBB1_55
.LBB1_55:
	.loc	1 341 25 is_stmt 1              @ ../Core/Src/uiPro.c:341:25
	ldr	r0, [sp, #112]
	movw	r1, #14988
	.loc	1 341 29 is_stmt 0              @ ../Core/Src/uiPro.c:341:29
	add	r1, r0
	.loc	1 341 41                        @ ../Core/Src/uiPro.c:341:41
	vldr	s0, [r1]
	.loc	1 341 77                        @ ../Core/Src/uiPro.c:341:77
	vldr	s2, [r0, #8]
.Ltmp89:
	.loc	1 340 20 is_stmt 1              @ ../Core/Src/uiPro.c:340:20
	vcmp.f32	s0, s2
	vmrs	APSR_nzcv, fpscr
	bge	.LBB1_61
	b	.LBB1_56
.LBB1_56:
.Ltmp90:
	.loc	1 343 23                        @ ../Core/Src/uiPro.c:343:23
	ldr	r2, [sp, #112]
	movw	r3, #11376
	.loc	1 343 86 is_stmt 0              @ ../Core/Src/uiPro.c:343:86
	str	r3, [sp, #16]                   @ 4-byte Spill
	ldrb	r1, [r2, r3]
	movs	r0, #200
	.loc	1 343 39                        @ ../Core/Src/uiPro.c:343:39
	str	r0, [sp, #12]                   @ 4-byte Spill
	smlabb	r0, r1, r0, r2
	.loc	1 343 86                        @ ../Core/Src/uiPro.c:343:86
	adds	r1, #1
	strb	r1, [r2, r3]
	.loc	1 343 23                        @ ../Core/Src/uiPro.c:343:23
	add.w	r0, r0, #1376
	.loc	1 343 6                         @ ../Core/Src/uiPro.c:343:6
	movw	r1, :lower16:.L.str.29
	movt	r1, :upper16:.L.str.29
	movw	r2, :lower16:.L.str.30
	movt	r2, :upper16:.L.str.30
	movs	r3, #0
	bl	StringChangeLine
	ldr	r0, [sp, #12]                   @ 4-byte Reload
	ldr	r3, [sp, #16]                   @ 4-byte Reload
	.loc	1 344 38 is_stmt 1              @ ../Core/Src/uiPro.c:344:38
	ldr	r2, [sp, #112]
	.loc	1 344 101 is_stmt 0             @ ../Core/Src/uiPro.c:344:101
	ldrb	r1, [r2, r3]
	.loc	1 344 54                        @ ../Core/Src/uiPro.c:344:54
	smlabb	r0, r1, r0, r2
	.loc	1 344 101                       @ ../Core/Src/uiPro.c:344:101
	adds	r1, #1
	strb	r1, [r2, r3]
	.loc	1 344 38                        @ ../Core/Src/uiPro.c:344:38
	add.w	r0, r0, #1376
	.loc	1 344 21                        @ ../Core/Src/uiPro.c:344:21
	movw	r1, :lower16:.L.str.31
	movt	r1, :upper16:.L.str.31
	movw	r2, :lower16:.L.str.32
	movt	r2, :upper16:.L.str.32
	movs	r3, #1
	bl	StringChangeLine
.Ltmp91:
	.loc	1 345 10 is_stmt 1              @ ../Core/Src/uiPro.c:345:10
	ldr	r0, [sp, #108]
	.loc	1 345 9 is_stmt 0               @ ../Core/Src/uiPro.c:345:9
	ldrb	r0, [r0]
.Ltmp92:
	.loc	1 345 9                         @ ../Core/Src/uiPro.c:345:9
	cmp	r0, #2
	bne	.LBB1_60
	b	.LBB1_57
.LBB1_57:
.Ltmp93:
	.loc	1 347 11 is_stmt 1              @ ../Core/Src/uiPro.c:347:11
	movw	r0, :lower16:PageCurConsume_T.StrTemp
	movt	r0, :upper16:PageCurConsume_T.StrTemp
	movs	r1, #1
	movs	r2, #0
	mov.w	r3, #1000
	bl	OutWindowsTxt2
	.loc	1 347 10 is_stmt 0              @ ../Core/Src/uiPro.c:347:10
	ldrb	r0, [r0]
.Ltmp94:
	.loc	1 347 10                        @ ../Core/Src/uiPro.c:347:10
	cbz	r0, .LBB1_59
	b	.LBB1_58
.LBB1_58:
	.loc	1 0 10                          @ ../Core/Src/uiPro.c:0:10
	movs	r0, #3
	mov.w	r1, #1000
.Ltmp95:
	.loc	1 349 8 is_stmt 1               @ ../Core/Src/uiPro.c:349:8
	bl	MeasurResultTransmit
	.loc	1 350 9                         @ ../Core/Src/uiPro.c:350:9
	ldr	r1, [sp, #108]
	movs	r0, #0
	.loc	1 350 25 is_stmt 0              @ ../Core/Src/uiPro.c:350:25
	strb	r0, [r1]
	.loc	1 351 18 is_stmt 1              @ ../Core/Src/uiPro.c:351:18
	movw	r0, :lower16:PageCurConsume_T.Result
	movt	r0, :upper16:PageCurConsume_T.Result
	movs	r1, #1
	strb	r1, [r0, #1]
	.loc	1 352 18                        @ ../Core/Src/uiPro.c:352:18
	strb	r1, [r0]
	.loc	1 353 8                         @ ../Core/Src/uiPro.c:353:8
	str	r0, [sp, #116]
	b	.LBB1_73
.Ltmp96:
.LBB1_59:
	.loc	1 355 6                         @ ../Core/Src/uiPro.c:355:6
	b	.LBB1_60
.Ltmp97:
.LBB1_60:
	.loc	1 356 17                        @ ../Core/Src/uiPro.c:356:17
	b	.LBB1_68
.Ltmp98:
.LBB1_61:
	.loc	1 359 23                        @ ../Core/Src/uiPro.c:359:23
	ldr	r2, [sp, #112]
	movw	r3, #11376
	.loc	1 359 86 is_stmt 0              @ ../Core/Src/uiPro.c:359:86
	str	r3, [sp, #8]                    @ 4-byte Spill
	ldrb	r1, [r2, r3]
	movs	r0, #200
	.loc	1 359 39                        @ ../Core/Src/uiPro.c:359:39
	str	r0, [sp, #4]                    @ 4-byte Spill
	smlabb	r0, r1, r0, r2
	.loc	1 359 86                        @ ../Core/Src/uiPro.c:359:86
	adds	r1, #1
	strb	r1, [r2, r3]
	.loc	1 359 23                        @ ../Core/Src/uiPro.c:359:23
	add.w	r0, r0, #1376
	.loc	1 359 6                         @ ../Core/Src/uiPro.c:359:6
	movw	r1, :lower16:.L.str.29
	movt	r1, :upper16:.L.str.29
	movw	r2, :lower16:.L.str.33
	movt	r2, :upper16:.L.str.33
	movs	r3, #0
	bl	StringChangeLine
	ldr	r0, [sp, #4]                    @ 4-byte Reload
	ldr	r3, [sp, #8]                    @ 4-byte Reload
	.loc	1 361 38 is_stmt 1              @ ../Core/Src/uiPro.c:361:38
	ldr	r2, [sp, #112]
	.loc	1 361 101 is_stmt 0             @ ../Core/Src/uiPro.c:361:101
	ldrb	r1, [r2, r3]
	.loc	1 361 54                        @ ../Core/Src/uiPro.c:361:54
	smlabb	r0, r1, r0, r2
	.loc	1 361 101                       @ ../Core/Src/uiPro.c:361:101
	adds	r1, #1
	strb	r1, [r2, r3]
	.loc	1 361 38                        @ ../Core/Src/uiPro.c:361:38
	add.w	r0, r0, #1376
	.loc	1 361 21                        @ ../Core/Src/uiPro.c:361:21
	movw	r1, :lower16:.L.str.31
	movt	r1, :upper16:.L.str.31
	movw	r2, :lower16:.L.str.34
	movt	r2, :upper16:.L.str.34
	movs	r3, #1
	bl	StringChangeLine
.Ltmp99:
	.loc	1 363 25 is_stmt 1              @ ../Core/Src/uiPro.c:363:25
	ldr	r0, [sp, #108]
	.loc	1 363 24 is_stmt 0              @ ../Core/Src/uiPro.c:363:24
	ldrb	r0, [r0]
.Ltmp100:
	.loc	1 363 24                        @ ../Core/Src/uiPro.c:363:24
	cmp	r0, #2
	bne	.LBB1_67
	b	.LBB1_62
.LBB1_62:
.Ltmp101:
	.loc	1 366 11 is_stmt 1              @ ../Core/Src/uiPro.c:366:11
	movw	r0, :lower16:PageCurConsume_T.StrTemp
	movt	r0, :upper16:PageCurConsume_T.StrTemp
	movs	r2, #0
	mov.w	r3, #1000
	mov	r1, r2
	bl	OutWindowsTxt2
	.loc	1 366 10 is_stmt 0              @ ../Core/Src/uiPro.c:366:10
	ldrb	r0, [r0]
.Ltmp102:
	.loc	1 366 10                        @ ../Core/Src/uiPro.c:366:10
	cbz	r0, .LBB1_65
	b	.LBB1_63
.LBB1_63:
	.loc	1 0 10                          @ ../Core/Src/uiPro.c:0:10
	movs	r0, #3
	mov.w	r1, #1000
.Ltmp103:
	.loc	1 368 8 is_stmt 1               @ ../Core/Src/uiPro.c:368:8
	bl	MeasurResultTransmit
	.loc	1 369 7                         @ ../Core/Src/uiPro.c:369:7
	b	.LBB1_66
.Ltmp104:
	.p2align	2
@ %bb.64:
	.loc	1 0 7 is_stmt 0                 @ ../Core/Src/uiPro.c:0:7
__arm_cp.1_2:
	.long	0x00000000                      @ float 0
.Lcpi_end0:
	.size	__arm_cp.1_2, .Lcpi_end0-__arm_cp.1_2
	.p2align	1
.LBB1_65:
	movs	r0, #2
	mov.w	r1, #1000
.Ltmp105:
	.loc	1 371 8 is_stmt 1               @ ../Core/Src/uiPro.c:371:8
	bl	MeasurResultTransmit
	b	.LBB1_66
.Ltmp106:
.LBB1_66:
	.loc	1 373 26                        @ ../Core/Src/uiPro.c:373:26
	ldr	r1, [sp, #108]
	movs	r0, #0
	.loc	1 373 42 is_stmt 0              @ ../Core/Src/uiPro.c:373:42
	strb	r0, [r1]
	.loc	1 374 35 is_stmt 1              @ ../Core/Src/uiPro.c:374:35
	movw	r0, :lower16:PageCurConsume_T.Result
	movt	r0, :upper16:PageCurConsume_T.Result
	movs	r1, #1
	strb	r1, [r0, #1]
	.loc	1 375 35                        @ ../Core/Src/uiPro.c:375:35
	strb	r1, [r0]
	.loc	1 376 25                        @ ../Core/Src/uiPro.c:376:25
	str	r0, [sp, #116]
	b	.LBB1_73
.Ltmp107:
.LBB1_67:
	.loc	1 0 25 is_stmt 0                @ ../Core/Src/uiPro.c:0:25
	b	.LBB1_68
.LBB1_68:
	.loc	1 381 45 is_stmt 1              @ ../Core/Src/uiPro.c:381:45
	ldr	r0, [sp, #112]
	.loc	1 381 61 is_stmt 0              @ ../Core/Src/uiPro.c:381:61
	add.w	r1, r0, #1376
	movw	r2, #11376
	.loc	1 381 94                        @ ../Core/Src/uiPro.c:381:94
	ldrb	r2, [r0, r2]
	.loc	1 381 17                        @ ../Core/Src/uiPro.c:381:17
	movw	r0, :lower16:USART_Data
	movt	r0, :upper16:USART_Data
	mov.w	r3, #1000
	bl	ScreenTransmit
	.loc	1 382 18 is_stmt 1              @ ../Core/Src/uiPro.c:382:18
	ldr	r1, [sp, #108]
	movs	r0, #0
	.loc	1 382 34 is_stmt 0              @ ../Core/Src/uiPro.c:382:34
	strb	r0, [r1]
	.loc	1 383 27 is_stmt 1              @ ../Core/Src/uiPro.c:383:27
	movw	r0, :lower16:PageCurConsume_T.Result
	movt	r0, :upper16:PageCurConsume_T.Result
	movs	r1, #1
	strb	r1, [r0]
	.loc	1 384 17                        @ ../Core/Src/uiPro.c:384:17
	str	r0, [sp, #116]
	b	.LBB1_73
.Ltmp108:
.LBB1_69:
	.loc	1 0 17 is_stmt 0                @ ../Core/Src/uiPro.c:0:17
	b	.LBB1_70
.LBB1_70:
	b	.LBB1_71
.LBB1_71:
	.loc	1 387 9 is_stmt 1               @ ../Core/Src/uiPro.c:387:9
	b	.LBB1_72
.Ltmp109:
.LBB1_72:
	.loc	1 390 15                        @ ../Core/Src/uiPro.c:390:15
	movw	r0, :lower16:PageCurConsume_T.Result
	movt	r0, :upper16:PageCurConsume_T.Result
	movs	r1, #0
	strb	r1, [r0]
	.loc	1 391 5                         @ ../Core/Src/uiPro.c:391:5
	str	r0, [sp, #116]
	b	.LBB1_73
.LBB1_73:
	.loc	1 392 1                         @ ../Core/Src/uiPro.c:392:1
	ldr	r0, [sp, #116]
	add	sp, #120
	pop	{r7, pc}
.Ltmp110:
@ %bb.74:
.Lfunc_end1:
	.size	PageCurConsume_T, .Lfunc_end1-PageCurConsume_T
	.cfi_endproc
	.cantunwind
	.fnend
                                        @ -- End function
	.section	.text.PageReversePower_T,"ax",%progbits
	.hidden	PageReversePower_T              @ -- Begin function PageReversePower_T
	.globl	PageReversePower_T
	.p2align	2
	.type	PageReversePower_T,%function
	.code	16                              @ @PageReversePower_T
	.thumb_func
PageReversePower_T:
.Lfunc_begin2:
	.loc	1 398 0                         @ ../Core/Src/uiPro.c:398:0
	.fnstart
	.cfi_startproc
@ %bb.0:
	.save	{r7, lr}
	push	{r7, lr}
	.cfi_def_cfa_offset 8
	.cfi_offset lr, -4
	.cfi_offset r7, -8
	.pad	#24
	sub	sp, #24
	.cfi_def_cfa_offset 32
	str	r0, [sp, #16]
	str	r1, [sp, #12]
	movw	r1, #4120
	movt	r1, #16386
	str	r1, [sp, #4]                    @ 4-byte Spill
	movs	r0, #4
.Ltmp111:
	.loc	1 400 5 prologue_end            @ ../Core/Src/uiPro.c:400:5
	str	r0, [r1]
	mov.w	r0, #1000
	.loc	1 401 5                         @ ../Core/Src/uiPro.c:401:5
	str	r0, [sp, #8]                    @ 4-byte Spill
	bl	My_Delay
	ldr	r2, [sp, #4]                    @ 4-byte Reload
                                        @ kill: def $r1 killed $r0
	ldr	r0, [sp, #8]                    @ 4-byte Reload
	mov.w	r1, #262144
	.loc	1 402 5                         @ ../Core/Src/uiPro.c:402:5
	str	r1, [r2]
	.loc	1 403 5                         @ ../Core/Src/uiPro.c:403:5
	bl	My_Delay
	.loc	1 404 5                         @ ../Core/Src/uiPro.c:404:5
	movw	r0, :lower16:.L.str.35
	movt	r0, :upper16:.L.str.35
	mov.w	r1, #2000
	bl	SensorInstructionTransmit
	movs	r0, #10
	.loc	1 405 2                         @ ../Core/Src/uiPro.c:405:2
	bl	My_Delay
.Ltmp112:
	.loc	1 406 8                         @ ../Core/Src/uiPro.c:406:8
	movw	r0, :lower16:USART_Data
	movt	r0, :upper16:USART_Data
	movw	r1, #14886
	ldrb	r0, [r0, r1]
.Ltmp113:
	.loc	1 406 8 is_stmt 0               @ ../Core/Src/uiPro.c:406:8
	cmp	r0, #48
	bne	.LBB2_4
	b	.LBB2_1
.LBB2_1:
.Ltmp114:
	.loc	1 408 13 is_stmt 1              @ ../Core/Src/uiPro.c:408:13
	movw	r0, :lower16:.L.str.36
	movt	r0, :upper16:.L.str.36
	movs	r1, #1
	movs	r2, #0
	mov.w	r3, #1000
	bl	OutWindowsTxt2
	.loc	1 408 12 is_stmt 0              @ ../Core/Src/uiPro.c:408:12
	ldrb	r0, [r0]
.Ltmp115:
	.loc	1 408 12                        @ ../Core/Src/uiPro.c:408:12
	cbz	r0, .LBB2_3
	b	.LBB2_2
.LBB2_2:
	.loc	1 0 12                          @ ../Core/Src/uiPro.c:0:12
	movs	r0, #3
	mov.w	r1, #1000
.Ltmp116:
	.loc	1 410 4 is_stmt 1               @ ../Core/Src/uiPro.c:410:4
	bl	MeasurResultTransmit
	.loc	1 411 5                         @ ../Core/Src/uiPro.c:411:5
	ldr	r1, [sp, #12]
	movs	r0, #0
	.loc	1 411 21 is_stmt 0              @ ../Core/Src/uiPro.c:411:21
	strb	r0, [r1]
	.loc	1 412 14 is_stmt 1              @ ../Core/Src/uiPro.c:412:14
	movw	r0, :lower16:PageReversePower_T.Result
	movt	r0, :upper16:PageReversePower_T.Result
	movs	r1, #1
	strb	r1, [r0, #1]
	.loc	1 413 14                        @ ../Core/Src/uiPro.c:413:14
	strb	r1, [r0]
	.loc	1 414 4                         @ ../Core/Src/uiPro.c:414:4
	str	r0, [sp, #20]
	b	.LBB2_8
.Ltmp117:
.LBB2_3:
	.loc	1 416 5                         @ ../Core/Src/uiPro.c:416:5
	b	.LBB2_7
.Ltmp118:
.LBB2_4:
	.loc	1 419 13                        @ ../Core/Src/uiPro.c:419:13
	movw	r0, :lower16:.L.str.36
	movt	r0, :upper16:.L.str.36
	movs	r2, #0
	mov.w	r3, #1000
	mov	r1, r2
	bl	OutWindowsTxt2
	.loc	1 419 12 is_stmt 0              @ ../Core/Src/uiPro.c:419:12
	ldrb	r0, [r0]
.Ltmp119:
	.loc	1 419 12                        @ ../Core/Src/uiPro.c:419:12
	cbz	r0, .LBB2_6
	b	.LBB2_5
.LBB2_5:
	.loc	1 0 12                          @ ../Core/Src/uiPro.c:0:12
	movs	r0, #3
	mov.w	r1, #1000
.Ltmp120:
	.loc	1 421 4 is_stmt 1               @ ../Core/Src/uiPro.c:421:4
	bl	MeasurResultTransmit
	.loc	1 422 3                         @ ../Core/Src/uiPro.c:422:3
	b	.LBB2_6
.Ltmp121:
.LBB2_6:
	.loc	1 423 19                        @ ../Core/Src/uiPro.c:423:19
	movw	r0, :lower16:PageReversePower_T.Result
	movt	r0, :upper16:PageReversePower_T.Result
	movs	r1, #1
	strb	r1, [r0, #1]
	.loc	1 424 19                        @ ../Core/Src/uiPro.c:424:19
	strb	r1, [r0]
	.loc	1 425 9                         @ ../Core/Src/uiPro.c:425:9
	str	r0, [sp, #20]
	b	.LBB2_8
.Ltmp122:
.LBB2_7:
	.loc	1 428 15                        @ ../Core/Src/uiPro.c:428:15
	movw	r0, :lower16:PageReversePower_T.Result
	movt	r0, :upper16:PageReversePower_T.Result
	movs	r1, #0
	strb	r1, [r0, #1]
	movs	r1, #1
	.loc	1 429 15                        @ ../Core/Src/uiPro.c:429:15
	strb	r1, [r0]
	.loc	1 430 5                         @ ../Core/Src/uiPro.c:430:5
	str	r0, [sp, #20]
	b	.LBB2_8
.LBB2_8:
	.loc	1 432 1                         @ ../Core/Src/uiPro.c:432:1
	ldr	r0, [sp, #20]
	add	sp, #24
	pop	{r7, pc}
.Ltmp123:
.Lfunc_end2:
	.size	PageReversePower_T, .Lfunc_end2-PageReversePower_T
	.cfi_endproc
	.cantunwind
	.fnend
                                        @ -- End function
	.section	.text.PageKeyVoltage_T,"ax",%progbits
	.hidden	PageKeyVoltage_T                @ -- Begin function PageKeyVoltage_T
	.globl	PageKeyVoltage_T
	.p2align	2
	.type	PageKeyVoltage_T,%function
	.code	16                              @ @PageKeyVoltage_T
	.thumb_func
PageKeyVoltage_T:
.Lfunc_begin3:
	.loc	1 439 0                         @ ../Core/Src/uiPro.c:439:0
	.fnstart
	.cfi_startproc
@ %bb.0:
	.save	{r7, lr}
	push	{r7, lr}
	.cfi_def_cfa_offset 8
	.cfi_offset lr, -4
	.cfi_offset r7, -8
	.pad	#208
	sub	sp, #208
	.cfi_def_cfa_offset 216
	str	r0, [sp, #200]
	str	r1, [sp, #196]
	add.w	r0, sp, #146
	movs	r1, #50
.Ltmp124:
	.loc	1 448 19 prologue_end           @ ../Core/Src/uiPro.c:448:19
	bl	__aeabi_memclr
.Ltmp125:
	.loc	1 452 9                         @ ../Core/Src/uiPro.c:452:9
	ldr	r0, [sp, #196]
	.loc	1 452 8 is_stmt 0               @ ../Core/Src/uiPro.c:452:8
	ldrb	r0, [r0]
.Ltmp126:
	.loc	1 452 8                         @ ../Core/Src/uiPro.c:452:8
	cmp	r0, #1
	bne	.LBB3_2
	b	.LBB3_1
.LBB3_1:
.Ltmp127:
	.loc	1 454 10 is_stmt 1              @ ../Core/Src/uiPro.c:454:10
	ldr	r1, [sp, #196]
	movs	r0, #2
	.loc	1 454 26 is_stmt 0              @ ../Core/Src/uiPro.c:454:26
	strb	r0, [r1]
	.loc	1 455 14 is_stmt 1              @ ../Core/Src/uiPro.c:455:14
	movw	r1, :lower16:PageKeyVoltage_T.Step
	movt	r1, :upper16:PageKeyVoltage_T.Step
	strb	r0, [r1]
	.loc	1 456 19                        @ ../Core/Src/uiPro.c:456:19
	movw	r1, :lower16:PageKeyVoltage_T.SmallStep
	movt	r1, :upper16:PageKeyVoltage_T.SmallStep
	movs	r0, #1
	strb	r0, [r1]
	.loc	1 457 19                        @ ../Core/Src/uiPro.c:457:19
	movw	r1, :lower16:PageKeyVoltage_T.Result
	movt	r1, :upper16:PageKeyVoltage_T.Result
	movs	r0, #0
	strb	r0, [r1, #1]
	.loc	1 458 19                        @ ../Core/Src/uiPro.c:458:19
	strb	r0, [r1]
	.loc	1 459 24                        @ ../Core/Src/uiPro.c:459:24
	movw	r1, :lower16:PageKeyVoltage_T.SequenceStrBuf
	movt	r1, :upper16:PageKeyVoltage_T.SequenceStrBuf
	movw	r0, :lower16:PageKeyVoltage_T.SequenceStrManual
	movt	r0, :upper16:PageKeyVoltage_T.SequenceStrManual
	str	r0, [r1]
	.loc	1 460 5                         @ ../Core/Src/uiPro.c:460:5
	b	.LBB3_2
.Ltmp128:
.LBB3_2:
	.loc	1 463 31                        @ ../Core/Src/uiPro.c:463:31
	movw	r1, :lower16:USART_Data
	movt	r1, :upper16:USART_Data
	ldrb	r0, [r1]
	.loc	1 463 65 is_stmt 0              @ ../Core/Src/uiPro.c:463:65
	ldrb	r1, [r1, #1]
.Ltmp129:
	.loc	1 463 8                         @ ../Core/Src/uiPro.c:463:8
	cmp	r0, r1
	beq	.LBB3_4
	b	.LBB3_3
.LBB3_3:
.Ltmp130:
	.loc	1 465 71 is_stmt 1              @ ../Core/Src/uiPro.c:465:71
	movw	r1, :lower16:USART_Data
	movt	r1, :upper16:USART_Data
	ldrb	r0, [r1]
	.loc	1 465 46 is_stmt 0              @ ../Core/Src/uiPro.c:465:46
	strb	r0, [r1, #1]
	.loc	1 466 14 is_stmt 1              @ ../Core/Src/uiPro.c:466:14
	movw	r1, :lower16:PageKeyVoltage_T.Step
	movt	r1, :upper16:PageKeyVoltage_T.Step
	movs	r0, #0
	strb	r0, [r1]
	.loc	1 467 19                        @ ../Core/Src/uiPro.c:467:19
	movw	r1, :lower16:PageKeyVoltage_T.SmallStep
	movt	r1, :upper16:PageKeyVoltage_T.SmallStep
	movs	r0, #1
	strb	r0, [r1]
	.loc	1 468 24                        @ ../Core/Src/uiPro.c:468:24
	movw	r1, :lower16:PageKeyVoltage_T.SequenceStrBuf
	movt	r1, :upper16:PageKeyVoltage_T.SequenceStrBuf
	movw	r0, :lower16:PageKeyVoltage_T.SequenceStrAuto
	movt	r0, :upper16:PageKeyVoltage_T.SequenceStrAuto
	str	r0, [r1]
	.loc	1 469 5                         @ ../Core/Src/uiPro.c:469:5
	b	.LBB3_4
.Ltmp131:
.LBB3_4:
	.loc	1 471 12                        @ ../Core/Src/uiPro.c:471:12
	movw	r0, :lower16:PageKeyVoltage_T.Step
	movt	r0, :upper16:PageKeyVoltage_T.Step
	ldrb	r0, [r0]
	.loc	1 471 5 is_stmt 0               @ ../Core/Src/uiPro.c:471:5
	mov	r1, r0
	str	r1, [sp, #140]                  @ 4-byte Spill
	cbz	r0, .LBB3_7
	b	.LBB3_5
.LBB3_5:
	ldr	r0, [sp, #140]                  @ 4-byte Reload
	cmp	r0, #1
	beq.w	.LBB3_35
	b	.LBB3_6
.LBB3_6:
	ldr	r0, [sp, #140]                  @ 4-byte Reload
	cmp	r0, #2
	beq.w	.LBB3_94
	b.w	.LBB3_216
.LBB3_7:
.Ltmp132:
	.loc	1 475 18 is_stmt 1              @ ../Core/Src/uiPro.c:475:18
	movw	r1, :lower16:PageKeyVoltage_T.Step
	movt	r1, :upper16:PageKeyVoltage_T.Step
	movs	r0, #1
	strb	r0, [r1]
	.loc	1 476 13                        @ ../Core/Src/uiPro.c:476:13
	ldr	r1, [sp, #200]
	movw	r2, #11376
	movs	r0, #0
	.loc	1 476 45 is_stmt 0              @ ../Core/Src/uiPro.c:476:45
	strb	r0, [r1, r2]
	movw	r0, #6144
	movt	r0, #16386
	mov.w	r1, #2048
.Ltmp133:
	.loc	1 479 16 is_stmt 1              @ ../Core/Src/uiPro.c:479:16
	bl	HAL_GPIO_ReadPin
.Ltmp134:
	.loc	1 479 16 is_stmt 0              @ ../Core/Src/uiPro.c:479:16
	cmp	r0, #1
	bne	.LBB3_9
	b	.LBB3_8
.LBB3_8:
.Ltmp135:
	.loc	1 481 34 is_stmt 1              @ ../Core/Src/uiPro.c:481:34
	ldr	r2, [sp, #200]
	movw	r3, #11376
	.loc	1 481 97 is_stmt 0              @ ../Core/Src/uiPro.c:481:97
	ldrb	r1, [r2, r3]
	movs	r0, #200
	.loc	1 481 50                        @ ../Core/Src/uiPro.c:481:50
	smlabb	r0, r1, r0, r2
	.loc	1 481 97                        @ ../Core/Src/uiPro.c:481:97
	adds	r1, #1
	strb	r1, [r2, r3]
	.loc	1 481 34                        @ ../Core/Src/uiPro.c:481:34
	add.w	r0, r0, #1376
	.loc	1 481 17                        @ ../Core/Src/uiPro.c:481:17
	movw	r1, :lower16:.L.str.37
	movt	r1, :upper16:.L.str.37
	movw	r2, :lower16:.L.str.38
	movt	r2, :upper16:.L.str.38
	movs	r3, #1
	bl	StringChangeLine
	.loc	1 482 13 is_stmt 1              @ ../Core/Src/uiPro.c:482:13
	b	.LBB3_10
.Ltmp136:
.LBB3_9:
	.loc	1 485 34                        @ ../Core/Src/uiPro.c:485:34
	ldr	r2, [sp, #200]
	movw	r3, #11376
	.loc	1 485 97 is_stmt 0              @ ../Core/Src/uiPro.c:485:97
	ldrb	r1, [r2, r3]
	movs	r0, #200
	.loc	1 485 50                        @ ../Core/Src/uiPro.c:485:50
	smlabb	r0, r1, r0, r2
	.loc	1 485 97                        @ ../Core/Src/uiPro.c:485:97
	adds	r1, #1
	strb	r1, [r2, r3]
	.loc	1 485 34                        @ ../Core/Src/uiPro.c:485:34
	add.w	r0, r0, #1376
	.loc	1 485 17                        @ ../Core/Src/uiPro.c:485:17
	movw	r1, :lower16:.L.str.37
	movt	r1, :upper16:.L.str.37
	movw	r2, :lower16:.L.str.39
	movt	r2, :upper16:.L.str.39
	movs	r3, #1
	bl	StringChangeLine
	b	.LBB3_10
.Ltmp137:
.LBB3_10:
	.loc	1 0 17                          @ ../Core/Src/uiPro.c:0:17
	movw	r0, #3072
	movt	r0, #16386
	mov.w	r1, #2048
.Ltmp138:
	.loc	1 488 16 is_stmt 1              @ ../Core/Src/uiPro.c:488:16
	bl	HAL_GPIO_ReadPin
.Ltmp139:
	.loc	1 488 16 is_stmt 0              @ ../Core/Src/uiPro.c:488:16
	cmp	r0, #1
	bne	.LBB3_12
	b	.LBB3_11
.LBB3_11:
.Ltmp140:
	.loc	1 490 34 is_stmt 1              @ ../Core/Src/uiPro.c:490:34
	ldr	r2, [sp, #200]
	movw	r3, #11376
	.loc	1 490 97 is_stmt 0              @ ../Core/Src/uiPro.c:490:97
	ldrb	r1, [r2, r3]
	movs	r0, #200
	.loc	1 490 50                        @ ../Core/Src/uiPro.c:490:50
	smlabb	r0, r1, r0, r2
	.loc	1 490 97                        @ ../Core/Src/uiPro.c:490:97
	adds	r1, #1
	strb	r1, [r2, r3]
	.loc	1 490 34                        @ ../Core/Src/uiPro.c:490:34
	add.w	r0, r0, #1376
	.loc	1 490 17                        @ ../Core/Src/uiPro.c:490:17
	movw	r1, :lower16:.L.str.40
	movt	r1, :upper16:.L.str.40
	movw	r2, :lower16:.L.str.41
	movt	r2, :upper16:.L.str.41
	movs	r3, #1
	bl	StringChangeLine
	.loc	1 491 13 is_stmt 1              @ ../Core/Src/uiPro.c:491:13
	b	.LBB3_13
.Ltmp141:
.LBB3_12:
	.loc	1 494 34                        @ ../Core/Src/uiPro.c:494:34
	ldr	r2, [sp, #200]
	movw	r3, #11376
	.loc	1 494 97 is_stmt 0              @ ../Core/Src/uiPro.c:494:97
	ldrb	r1, [r2, r3]
	movs	r0, #200
	.loc	1 494 50                        @ ../Core/Src/uiPro.c:494:50
	smlabb	r0, r1, r0, r2
	.loc	1 494 97                        @ ../Core/Src/uiPro.c:494:97
	adds	r1, #1
	strb	r1, [r2, r3]
	.loc	1 494 34                        @ ../Core/Src/uiPro.c:494:34
	add.w	r0, r0, #1376
	.loc	1 494 17                        @ ../Core/Src/uiPro.c:494:17
	movw	r1, :lower16:.L.str.40
	movt	r1, :upper16:.L.str.40
	movw	r2, :lower16:.L.str.42
	movt	r2, :upper16:.L.str.42
	movs	r3, #1
	bl	StringChangeLine
	b	.LBB3_13
.Ltmp142:
.LBB3_13:
	.loc	1 0 17                          @ ../Core/Src/uiPro.c:0:17
	movw	r0, #6144
	movt	r0, #16386
	movs	r1, #8
.Ltmp143:
	.loc	1 497 16 is_stmt 1              @ ../Core/Src/uiPro.c:497:16
	bl	HAL_GPIO_ReadPin
.Ltmp144:
	.loc	1 497 16 is_stmt 0              @ ../Core/Src/uiPro.c:497:16
	cmp	r0, #1
	bne	.LBB3_15
	b	.LBB3_14
.LBB3_14:
.Ltmp145:
	.loc	1 499 34 is_stmt 1              @ ../Core/Src/uiPro.c:499:34
	ldr	r2, [sp, #200]
	movw	r3, #11376
	.loc	1 499 97 is_stmt 0              @ ../Core/Src/uiPro.c:499:97
	ldrb	r1, [r2, r3]
	movs	r0, #200
	.loc	1 499 50                        @ ../Core/Src/uiPro.c:499:50
	smlabb	r0, r1, r0, r2
	.loc	1 499 97                        @ ../Core/Src/uiPro.c:499:97
	adds	r1, #1
	strb	r1, [r2, r3]
	.loc	1 499 34                        @ ../Core/Src/uiPro.c:499:34
	add.w	r0, r0, #1376
	.loc	1 499 17                        @ ../Core/Src/uiPro.c:499:17
	movw	r1, :lower16:.L.str.43
	movt	r1, :upper16:.L.str.43
	movw	r2, :lower16:.L.str.44
	movt	r2, :upper16:.L.str.44
	movs	r3, #1
	bl	StringChangeLine
	.loc	1 501 13 is_stmt 1              @ ../Core/Src/uiPro.c:501:13
	b	.LBB3_16
.Ltmp146:
.LBB3_15:
	.loc	1 504 34                        @ ../Core/Src/uiPro.c:504:34
	ldr	r2, [sp, #200]
	movw	r3, #11376
	.loc	1 504 97 is_stmt 0              @ ../Core/Src/uiPro.c:504:97
	ldrb	r1, [r2, r3]
	movs	r0, #200
	.loc	1 504 50                        @ ../Core/Src/uiPro.c:504:50
	smlabb	r0, r1, r0, r2
	.loc	1 504 97                        @ ../Core/Src/uiPro.c:504:97
	adds	r1, #1
	strb	r1, [r2, r3]
	.loc	1 504 34                        @ ../Core/Src/uiPro.c:504:34
	add.w	r0, r0, #1376
	.loc	1 504 17                        @ ../Core/Src/uiPro.c:504:17
	movw	r1, :lower16:.L.str.43
	movt	r1, :upper16:.L.str.43
	movw	r2, :lower16:.L.str.45
	movt	r2, :upper16:.L.str.45
	movs	r3, #1
	bl	StringChangeLine
	b	.LBB3_16
.Ltmp147:
.LBB3_16:
	.loc	1 0 17                          @ ../Core/Src/uiPro.c:0:17
	movw	r0, #6144
	movt	r0, #16386
	movs	r1, #64
.Ltmp148:
	.loc	1 508 16 is_stmt 1              @ ../Core/Src/uiPro.c:508:16
	bl	HAL_GPIO_ReadPin
.Ltmp149:
	.loc	1 508 16 is_stmt 0              @ ../Core/Src/uiPro.c:508:16
	cmp	r0, #1
	bne	.LBB3_18
	b	.LBB3_17
.LBB3_17:
.Ltmp150:
	.loc	1 510 34 is_stmt 1              @ ../Core/Src/uiPro.c:510:34
	ldr	r2, [sp, #200]
	movw	r3, #11376
	.loc	1 510 97 is_stmt 0              @ ../Core/Src/uiPro.c:510:97
	ldrb	r1, [r2, r3]
	movs	r0, #200
	.loc	1 510 50                        @ ../Core/Src/uiPro.c:510:50
	smlabb	r0, r1, r0, r2
	.loc	1 510 97                        @ ../Core/Src/uiPro.c:510:97
	adds	r1, #1
	strb	r1, [r2, r3]
	.loc	1 510 34                        @ ../Core/Src/uiPro.c:510:34
	add.w	r0, r0, #1376
	.loc	1 510 17                        @ ../Core/Src/uiPro.c:510:17
	movw	r1, :lower16:.L.str.46
	movt	r1, :upper16:.L.str.46
	movw	r2, :lower16:.L.str.47
	movt	r2, :upper16:.L.str.47
	movs	r3, #1
	bl	StringChangeLine
	.loc	1 511 13 is_stmt 1              @ ../Core/Src/uiPro.c:511:13
	b	.LBB3_19
.Ltmp151:
.LBB3_18:
	.loc	1 514 34                        @ ../Core/Src/uiPro.c:514:34
	ldr	r2, [sp, #200]
	movw	r3, #11376
	.loc	1 514 97 is_stmt 0              @ ../Core/Src/uiPro.c:514:97
	ldrb	r1, [r2, r3]
	movs	r0, #200
	.loc	1 514 50                        @ ../Core/Src/uiPro.c:514:50
	smlabb	r0, r1, r0, r2
	.loc	1 514 97                        @ ../Core/Src/uiPro.c:514:97
	adds	r1, #1
	strb	r1, [r2, r3]
	.loc	1 514 34                        @ ../Core/Src/uiPro.c:514:34
	add.w	r0, r0, #1376
	.loc	1 514 17                        @ ../Core/Src/uiPro.c:514:17
	movw	r1, :lower16:.L.str.46
	movt	r1, :upper16:.L.str.46
	movw	r2, :lower16:.L.str.48
	movt	r2, :upper16:.L.str.48
	movs	r3, #1
	bl	StringChangeLine
	b	.LBB3_19
.Ltmp152:
.LBB3_19:
	.loc	1 0 17                          @ ../Core/Src/uiPro.c:0:17
	movw	r0, #6144
	movt	r0, #16386
	movs	r1, #32
.Ltmp153:
	.loc	1 517 16 is_stmt 1              @ ../Core/Src/uiPro.c:517:16
	bl	HAL_GPIO_ReadPin
.Ltmp154:
	.loc	1 517 16 is_stmt 0              @ ../Core/Src/uiPro.c:517:16
	cmp	r0, #1
	bne	.LBB3_21
	b	.LBB3_20
.LBB3_20:
.Ltmp155:
	.loc	1 519 34 is_stmt 1              @ ../Core/Src/uiPro.c:519:34
	ldr	r2, [sp, #200]
	movw	r3, #11376
	.loc	1 519 97 is_stmt 0              @ ../Core/Src/uiPro.c:519:97
	ldrb	r1, [r2, r3]
	movs	r0, #200
	.loc	1 519 50                        @ ../Core/Src/uiPro.c:519:50
	smlabb	r0, r1, r0, r2
	.loc	1 519 97                        @ ../Core/Src/uiPro.c:519:97
	adds	r1, #1
	strb	r1, [r2, r3]
	.loc	1 519 34                        @ ../Core/Src/uiPro.c:519:34
	add.w	r0, r0, #1376
	.loc	1 519 17                        @ ../Core/Src/uiPro.c:519:17
	movw	r1, :lower16:.L.str.49
	movt	r1, :upper16:.L.str.49
	movw	r2, :lower16:.L.str.50
	movt	r2, :upper16:.L.str.50
	movs	r3, #1
	bl	StringChangeLine
	.loc	1 520 13 is_stmt 1              @ ../Core/Src/uiPro.c:520:13
	b	.LBB3_22
.Ltmp156:
.LBB3_21:
	.loc	1 523 34                        @ ../Core/Src/uiPro.c:523:34
	ldr	r2, [sp, #200]
	movw	r3, #11376
	.loc	1 523 97 is_stmt 0              @ ../Core/Src/uiPro.c:523:97
	ldrb	r1, [r2, r3]
	movs	r0, #200
	.loc	1 523 50                        @ ../Core/Src/uiPro.c:523:50
	smlabb	r0, r1, r0, r2
	.loc	1 523 97                        @ ../Core/Src/uiPro.c:523:97
	adds	r1, #1
	strb	r1, [r2, r3]
	.loc	1 523 34                        @ ../Core/Src/uiPro.c:523:34
	add.w	r0, r0, #1376
	.loc	1 523 17                        @ ../Core/Src/uiPro.c:523:17
	movw	r1, :lower16:.L.str.49
	movt	r1, :upper16:.L.str.49
	movw	r2, :lower16:.L.str.51
	movt	r2, :upper16:.L.str.51
	movs	r3, #1
	bl	StringChangeLine
	b	.LBB3_22
.Ltmp157:
.LBB3_22:
	.loc	1 0 17                          @ ../Core/Src/uiPro.c:0:17
	movw	r0, #6144
	movt	r0, #16386
	movs	r1, #16
.Ltmp158:
	.loc	1 526 16 is_stmt 1              @ ../Core/Src/uiPro.c:526:16
	bl	HAL_GPIO_ReadPin
.Ltmp159:
	.loc	1 526 16 is_stmt 0              @ ../Core/Src/uiPro.c:526:16
	cmp	r0, #1
	bne	.LBB3_24
	b	.LBB3_23
.LBB3_23:
.Ltmp160:
	.loc	1 528 34 is_stmt 1              @ ../Core/Src/uiPro.c:528:34
	ldr	r2, [sp, #200]
	movw	r3, #11376
	.loc	1 528 97 is_stmt 0              @ ../Core/Src/uiPro.c:528:97
	ldrb	r1, [r2, r3]
	movs	r0, #200
	.loc	1 528 50                        @ ../Core/Src/uiPro.c:528:50
	smlabb	r0, r1, r0, r2
	.loc	1 528 97                        @ ../Core/Src/uiPro.c:528:97
	adds	r1, #1
	strb	r1, [r2, r3]
	.loc	1 528 34                        @ ../Core/Src/uiPro.c:528:34
	add.w	r0, r0, #1376
	.loc	1 528 17                        @ ../Core/Src/uiPro.c:528:17
	movw	r1, :lower16:.L.str.52
	movt	r1, :upper16:.L.str.52
	movw	r2, :lower16:.L.str.53
	movt	r2, :upper16:.L.str.53
	movs	r3, #1
	bl	StringChangeLine
	.loc	1 529 13 is_stmt 1              @ ../Core/Src/uiPro.c:529:13
	b	.LBB3_25
.Ltmp161:
.LBB3_24:
	.loc	1 532 34                        @ ../Core/Src/uiPro.c:532:34
	ldr	r2, [sp, #200]
	movw	r3, #11376
	.loc	1 532 97 is_stmt 0              @ ../Core/Src/uiPro.c:532:97
	ldrb	r1, [r2, r3]
	movs	r0, #200
	.loc	1 532 50                        @ ../Core/Src/uiPro.c:532:50
	smlabb	r0, r1, r0, r2
	.loc	1 532 97                        @ ../Core/Src/uiPro.c:532:97
	adds	r1, #1
	strb	r1, [r2, r3]
	.loc	1 532 34                        @ ../Core/Src/uiPro.c:532:34
	add.w	r0, r0, #1376
	.loc	1 532 17                        @ ../Core/Src/uiPro.c:532:17
	movw	r1, :lower16:.L.str.52
	movt	r1, :upper16:.L.str.52
	movw	r2, :lower16:.L.str.54
	movt	r2, :upper16:.L.str.54
	movs	r3, #1
	bl	StringChangeLine
	b	.LBB3_25
.Ltmp162:
.LBB3_25:
	.loc	1 0 17                          @ ../Core/Src/uiPro.c:0:17
	movw	r0, #6144
	movt	r0, #16386
	movs	r1, #128
.Ltmp163:
	.loc	1 535 16 is_stmt 1              @ ../Core/Src/uiPro.c:535:16
	bl	HAL_GPIO_ReadPin
.Ltmp164:
	.loc	1 535 16 is_stmt 0              @ ../Core/Src/uiPro.c:535:16
	cmp	r0, #1
	bne	.LBB3_27
	b	.LBB3_26
.LBB3_26:
.Ltmp165:
	.loc	1 537 34 is_stmt 1              @ ../Core/Src/uiPro.c:537:34
	ldr	r2, [sp, #200]
	movw	r3, #11376
	.loc	1 537 97 is_stmt 0              @ ../Core/Src/uiPro.c:537:97
	ldrb	r1, [r2, r3]
	movs	r0, #200
	.loc	1 537 50                        @ ../Core/Src/uiPro.c:537:50
	smlabb	r0, r1, r0, r2
	.loc	1 537 97                        @ ../Core/Src/uiPro.c:537:97
	adds	r1, #1
	strb	r1, [r2, r3]
	.loc	1 537 34                        @ ../Core/Src/uiPro.c:537:34
	add.w	r0, r0, #1376
	.loc	1 537 17                        @ ../Core/Src/uiPro.c:537:17
	movw	r1, :lower16:.L.str.55
	movt	r1, :upper16:.L.str.55
	movw	r2, :lower16:.L.str.56
	movt	r2, :upper16:.L.str.56
	movs	r3, #1
	bl	StringChangeLine
	.loc	1 538 13 is_stmt 1              @ ../Core/Src/uiPro.c:538:13
	b	.LBB3_28
.Ltmp166:
.LBB3_27:
	.loc	1 541 34                        @ ../Core/Src/uiPro.c:541:34
	ldr	r2, [sp, #200]
	movw	r3, #11376
	.loc	1 541 97 is_stmt 0              @ ../Core/Src/uiPro.c:541:97
	ldrb	r1, [r2, r3]
	movs	r0, #200
	.loc	1 541 50                        @ ../Core/Src/uiPro.c:541:50
	smlabb	r0, r1, r0, r2
	.loc	1 541 97                        @ ../Core/Src/uiPro.c:541:97
	adds	r1, #1
	strb	r1, [r2, r3]
	.loc	1 541 34                        @ ../Core/Src/uiPro.c:541:34
	add.w	r0, r0, #1376
	.loc	1 541 17                        @ ../Core/Src/uiPro.c:541:17
	movw	r1, :lower16:.L.str.55
	movt	r1, :upper16:.L.str.55
	movw	r2, :lower16:.L.str.57
	movt	r2, :upper16:.L.str.57
	movs	r3, #1
	bl	StringChangeLine
	b	.LBB3_28
.Ltmp167:
.LBB3_28:
	.loc	1 0 17                          @ ../Core/Src/uiPro.c:0:17
	movw	r0, #6144
	movt	r0, #16386
	mov.w	r1, #256
.Ltmp168:
	.loc	1 544 16 is_stmt 1              @ ../Core/Src/uiPro.c:544:16
	bl	HAL_GPIO_ReadPin
.Ltmp169:
	.loc	1 544 16 is_stmt 0              @ ../Core/Src/uiPro.c:544:16
	cmp	r0, #1
	bne	.LBB3_30
	b	.LBB3_29
.LBB3_29:
.Ltmp170:
	.loc	1 546 34 is_stmt 1              @ ../Core/Src/uiPro.c:546:34
	ldr	r2, [sp, #200]
	movw	r3, #11376
	.loc	1 546 97 is_stmt 0              @ ../Core/Src/uiPro.c:546:97
	ldrb	r1, [r2, r3]
	movs	r0, #200
	.loc	1 546 50                        @ ../Core/Src/uiPro.c:546:50
	smlabb	r0, r1, r0, r2
	.loc	1 546 97                        @ ../Core/Src/uiPro.c:546:97
	adds	r1, #1
	strb	r1, [r2, r3]
	.loc	1 546 34                        @ ../Core/Src/uiPro.c:546:34
	add.w	r0, r0, #1376
	.loc	1 546 17                        @ ../Core/Src/uiPro.c:546:17
	movw	r1, :lower16:.L.str.58
	movt	r1, :upper16:.L.str.58
	movw	r2, :lower16:.L.str.59
	movt	r2, :upper16:.L.str.59
	movs	r3, #1
	bl	StringChangeLine
	.loc	1 547 13 is_stmt 1              @ ../Core/Src/uiPro.c:547:13
	b	.LBB3_31
.Ltmp171:
.LBB3_30:
	.loc	1 550 34                        @ ../Core/Src/uiPro.c:550:34
	ldr	r2, [sp, #200]
	movw	r3, #11376
	.loc	1 550 97 is_stmt 0              @ ../Core/Src/uiPro.c:550:97
	ldrb	r1, [r2, r3]
	movs	r0, #200
	.loc	1 550 50                        @ ../Core/Src/uiPro.c:550:50
	smlabb	r0, r1, r0, r2
	.loc	1 550 97                        @ ../Core/Src/uiPro.c:550:97
	adds	r1, #1
	strb	r1, [r2, r3]
	.loc	1 550 34                        @ ../Core/Src/uiPro.c:550:34
	add.w	r0, r0, #1376
	.loc	1 550 17                        @ ../Core/Src/uiPro.c:550:17
	movw	r1, :lower16:.L.str.58
	movt	r1, :upper16:.L.str.58
	movw	r2, :lower16:.L.str.60
	movt	r2, :upper16:.L.str.60
	movs	r3, #1
	bl	StringChangeLine
	b	.LBB3_31
.Ltmp172:
.LBB3_31:
	.loc	1 0 17                          @ ../Core/Src/uiPro.c:0:17
	movw	r0, #6144
	movt	r0, #16386
	mov.w	r1, #512
.Ltmp173:
	.loc	1 553 16 is_stmt 1              @ ../Core/Src/uiPro.c:553:16
	bl	HAL_GPIO_ReadPin
.Ltmp174:
	.loc	1 553 16 is_stmt 0              @ ../Core/Src/uiPro.c:553:16
	cmp	r0, #1
	bne	.LBB3_33
	b	.LBB3_32
.LBB3_32:
.Ltmp175:
	.loc	1 555 34 is_stmt 1              @ ../Core/Src/uiPro.c:555:34
	ldr	r2, [sp, #200]
	movw	r3, #11376
	.loc	1 555 97 is_stmt 0              @ ../Core/Src/uiPro.c:555:97
	ldrb	r1, [r2, r3]
	movs	r0, #200
	.loc	1 555 50                        @ ../Core/Src/uiPro.c:555:50
	smlabb	r0, r1, r0, r2
	.loc	1 555 97                        @ ../Core/Src/uiPro.c:555:97
	adds	r1, #1
	strb	r1, [r2, r3]
	.loc	1 555 34                        @ ../Core/Src/uiPro.c:555:34
	add.w	r0, r0, #1376
	.loc	1 555 17                        @ ../Core/Src/uiPro.c:555:17
	movw	r1, :lower16:.L.str.61
	movt	r1, :upper16:.L.str.61
	movw	r2, :lower16:.L.str.62
	movt	r2, :upper16:.L.str.62
	movs	r3, #1
	bl	StringChangeLine
	.loc	1 556 13 is_stmt 1              @ ../Core/Src/uiPro.c:556:13
	b	.LBB3_34
.Ltmp176:
.LBB3_33:
	.loc	1 559 34                        @ ../Core/Src/uiPro.c:559:34
	ldr	r2, [sp, #200]
	movw	r3, #11376
	.loc	1 559 97 is_stmt 0              @ ../Core/Src/uiPro.c:559:97
	ldrb	r1, [r2, r3]
	movs	r0, #200
	.loc	1 559 50                        @ ../Core/Src/uiPro.c:559:50
	smlabb	r0, r1, r0, r2
	.loc	1 559 97                        @ ../Core/Src/uiPro.c:559:97
	adds	r1, #1
	strb	r1, [r2, r3]
	.loc	1 559 34                        @ ../Core/Src/uiPro.c:559:34
	add.w	r0, r0, #1376
	.loc	1 559 17                        @ ../Core/Src/uiPro.c:559:17
	movw	r1, :lower16:.L.str.61
	movt	r1, :upper16:.L.str.61
	movw	r2, :lower16:.L.str.63
	movt	r2, :upper16:.L.str.63
	movs	r3, #1
	bl	StringChangeLine
	b	.LBB3_34
.Ltmp177:
.LBB3_34:
	.loc	1 565 39 is_stmt 1              @ ../Core/Src/uiPro.c:565:39
	ldr	r0, [sp, #200]
	ldr	r0, [r0, #80]
	bl	__aeabi_f2d
	vmov	d0, r0, r1
	.loc	1 565 13 is_stmt 0              @ ../Core/Src/uiPro.c:565:13
	vmov	r2, r3, d0
	movw	r0, :lower16:PageKeyVoltage_T.StrTemp
	movt	r0, :upper16:PageKeyVoltage_T.StrTemp
	str	r0, [sp, #124]                  @ 4-byte Spill
	movw	r1, :lower16:.L.str.9
	movt	r1, :upper16:.L.str.9
	str	r1, [sp, #120]                  @ 4-byte Spill
	bl	sprintf
	ldr	r2, [sp, #124]                  @ 4-byte Reload
	.loc	1 566 30 is_stmt 1              @ ../Core/Src/uiPro.c:566:30
	ldr	r3, [sp, #200]
	movw	r12, #11376
	.loc	1 566 93 is_stmt 0              @ ../Core/Src/uiPro.c:566:93
	str.w	r12, [sp, #136]                 @ 4-byte Spill
	ldrb.w	r1, [r3, r12]
	movs	r0, #200
	.loc	1 566 46                        @ ../Core/Src/uiPro.c:566:46
	str	r0, [sp, #132]                  @ 4-byte Spill
	smlabb	r0, r1, r0, r3
	.loc	1 566 93                        @ ../Core/Src/uiPro.c:566:93
	adds	r1, #1
	strb.w	r1, [r3, r12]
	.loc	1 566 30                        @ ../Core/Src/uiPro.c:566:30
	add.w	r0, r0, #1376
	.loc	1 566 13                        @ ../Core/Src/uiPro.c:566:13
	movw	r1, :lower16:.L.str.64
	movt	r1, :upper16:.L.str.64
	movs	r3, #1
	str	r3, [sp, #128]                  @ 4-byte Spill
	bl	StringChangeLine
	.loc	1 568 39 is_stmt 1              @ ../Core/Src/uiPro.c:568:39
	ldr	r0, [sp, #200]
	ldr	r0, [r0, #48]
	bl	__aeabi_f2d
	mov	r2, r0
	ldr	r0, [sp, #124]                  @ 4-byte Reload
	mov	r3, r1
	ldr	r1, [sp, #120]                  @ 4-byte Reload
	vmov	d0, r2, r3
	.loc	1 568 13 is_stmt 0              @ ../Core/Src/uiPro.c:568:13
	vmov	r2, r3, d0
	bl	sprintf
	ldr	r2, [sp, #124]                  @ 4-byte Reload
	ldr	r3, [sp, #128]                  @ 4-byte Reload
	ldr.w	lr, [sp, #136]                  @ 4-byte Reload
                                        @ kill: def $r1 killed $r0
	.loc	1 569 30 is_stmt 1              @ ../Core/Src/uiPro.c:569:30
	ldr	r0, [sp, #132]                  @ 4-byte Reload
	ldr.w	r12, [sp, #200]
	.loc	1 569 93 is_stmt 0              @ ../Core/Src/uiPro.c:569:93
	ldrb.w	r1, [r12, lr]
	.loc	1 569 46                        @ ../Core/Src/uiPro.c:569:46
	smlabb	r0, r1, r0, r12
	.loc	1 569 93                        @ ../Core/Src/uiPro.c:569:93
	adds	r1, #1
	strb.w	r1, [r12, lr]
	.loc	1 569 30                        @ ../Core/Src/uiPro.c:569:30
	add.w	r0, r0, #1376
	.loc	1 569 13                        @ ../Core/Src/uiPro.c:569:13
	movw	r1, :lower16:.L.str.65
	movt	r1, :upper16:.L.str.65
	bl	StringChangeLine
	.loc	1 571 39 is_stmt 1              @ ../Core/Src/uiPro.c:571:39
	ldr	r0, [sp, #200]
	ldr	r0, [r0, #84]
	bl	__aeabi_f2d
	mov	r2, r0
	ldr	r0, [sp, #124]                  @ 4-byte Reload
	mov	r3, r1
	ldr	r1, [sp, #120]                  @ 4-byte Reload
	vmov	d0, r2, r3
	.loc	1 571 13 is_stmt 0              @ ../Core/Src/uiPro.c:571:13
	vmov	r2, r3, d0
	bl	sprintf
	ldr	r2, [sp, #124]                  @ 4-byte Reload
	ldr	r3, [sp, #128]                  @ 4-byte Reload
	ldr.w	lr, [sp, #136]                  @ 4-byte Reload
                                        @ kill: def $r1 killed $r0
	.loc	1 572 30 is_stmt 1              @ ../Core/Src/uiPro.c:572:30
	ldr	r0, [sp, #132]                  @ 4-byte Reload
	ldr.w	r12, [sp, #200]
	.loc	1 572 93 is_stmt 0              @ ../Core/Src/uiPro.c:572:93
	ldrb.w	r1, [r12, lr]
	.loc	1 572 46                        @ ../Core/Src/uiPro.c:572:46
	smlabb	r0, r1, r0, r12
	.loc	1 572 93                        @ ../Core/Src/uiPro.c:572:93
	adds	r1, #1
	strb.w	r1, [r12, lr]
	.loc	1 572 30                        @ ../Core/Src/uiPro.c:572:30
	add.w	r0, r0, #1376
	.loc	1 572 13                        @ ../Core/Src/uiPro.c:572:13
	movw	r1, :lower16:.L.str.66
	movt	r1, :upper16:.L.str.66
	bl	StringChangeLine
	.loc	1 574 39 is_stmt 1              @ ../Core/Src/uiPro.c:574:39
	ldr	r0, [sp, #200]
	ldr	r0, [r0, #52]
	bl	__aeabi_f2d
	mov	r2, r0
	ldr	r0, [sp, #124]                  @ 4-byte Reload
	mov	r3, r1
	ldr	r1, [sp, #120]                  @ 4-byte Reload
	vmov	d0, r2, r3
	.loc	1 574 13 is_stmt 0              @ ../Core/Src/uiPro.c:574:13
	vmov	r2, r3, d0
	bl	sprintf
	ldr	r2, [sp, #124]                  @ 4-byte Reload
	ldr	r3, [sp, #128]                  @ 4-byte Reload
	ldr.w	lr, [sp, #136]                  @ 4-byte Reload
                                        @ kill: def $r1 killed $r0
	.loc	1 575 30 is_stmt 1              @ ../Core/Src/uiPro.c:575:30
	ldr	r0, [sp, #132]                  @ 4-byte Reload
	ldr.w	r12, [sp, #200]
	.loc	1 575 93 is_stmt 0              @ ../Core/Src/uiPro.c:575:93
	ldrb.w	r1, [r12, lr]
	.loc	1 575 46                        @ ../Core/Src/uiPro.c:575:46
	smlabb	r0, r1, r0, r12
	.loc	1 575 93                        @ ../Core/Src/uiPro.c:575:93
	adds	r1, #1
	strb.w	r1, [r12, lr]
	.loc	1 575 30                        @ ../Core/Src/uiPro.c:575:30
	add.w	r0, r0, #1376
	.loc	1 575 13                        @ ../Core/Src/uiPro.c:575:13
	movw	r1, :lower16:.L.str.67
	movt	r1, :upper16:.L.str.67
	bl	StringChangeLine
	.loc	1 577 39 is_stmt 1              @ ../Core/Src/uiPro.c:577:39
	ldr	r0, [sp, #200]
	ldr	r0, [r0, #88]
	bl	__aeabi_f2d
	mov	r2, r0
	ldr	r0, [sp, #124]                  @ 4-byte Reload
	mov	r3, r1
	ldr	r1, [sp, #120]                  @ 4-byte Reload
	vmov	d0, r2, r3
	.loc	1 577 13 is_stmt 0              @ ../Core/Src/uiPro.c:577:13
	vmov	r2, r3, d0
	bl	sprintf
	ldr	r2, [sp, #124]                  @ 4-byte Reload
	ldr	r3, [sp, #128]                  @ 4-byte Reload
	ldr.w	lr, [sp, #136]                  @ 4-byte Reload
                                        @ kill: def $r1 killed $r0
	.loc	1 578 30 is_stmt 1              @ ../Core/Src/uiPro.c:578:30
	ldr	r0, [sp, #132]                  @ 4-byte Reload
	ldr.w	r12, [sp, #200]
	.loc	1 578 93 is_stmt 0              @ ../Core/Src/uiPro.c:578:93
	ldrb.w	r1, [r12, lr]
	.loc	1 578 46                        @ ../Core/Src/uiPro.c:578:46
	smlabb	r0, r1, r0, r12
	.loc	1 578 93                        @ ../Core/Src/uiPro.c:578:93
	adds	r1, #1
	strb.w	r1, [r12, lr]
	.loc	1 578 30                        @ ../Core/Src/uiPro.c:578:30
	add.w	r0, r0, #1376
	.loc	1 578 13                        @ ../Core/Src/uiPro.c:578:13
	movw	r1, :lower16:.L.str.68
	movt	r1, :upper16:.L.str.68
	bl	StringChangeLine
	.loc	1 580 39 is_stmt 1              @ ../Core/Src/uiPro.c:580:39
	ldr	r0, [sp, #200]
	ldr	r0, [r0, #56]
	bl	__aeabi_f2d
	mov	r2, r0
	ldr	r0, [sp, #124]                  @ 4-byte Reload
	mov	r3, r1
	ldr	r1, [sp, #120]                  @ 4-byte Reload
	vmov	d0, r2, r3
	.loc	1 580 13 is_stmt 0              @ ../Core/Src/uiPro.c:580:13
	vmov	r2, r3, d0
	bl	sprintf
	ldr	r2, [sp, #124]                  @ 4-byte Reload
	ldr	r3, [sp, #128]                  @ 4-byte Reload
	ldr.w	lr, [sp, #136]                  @ 4-byte Reload
                                        @ kill: def $r1 killed $r0
	.loc	1 581 30 is_stmt 1              @ ../Core/Src/uiPro.c:581:30
	ldr	r0, [sp, #132]                  @ 4-byte Reload
	ldr.w	r12, [sp, #200]
	.loc	1 581 93 is_stmt 0              @ ../Core/Src/uiPro.c:581:93
	ldrb.w	r1, [r12, lr]
	.loc	1 581 46                        @ ../Core/Src/uiPro.c:581:46
	smlabb	r0, r1, r0, r12
	.loc	1 581 93                        @ ../Core/Src/uiPro.c:581:93
	adds	r1, #1
	strb.w	r1, [r12, lr]
	.loc	1 581 30                        @ ../Core/Src/uiPro.c:581:30
	add.w	r0, r0, #1376
	.loc	1 581 13                        @ ../Core/Src/uiPro.c:581:13
	movw	r1, :lower16:.L.str.69
	movt	r1, :upper16:.L.str.69
	bl	StringChangeLine
	.loc	1 583 39 is_stmt 1              @ ../Core/Src/uiPro.c:583:39
	ldr	r0, [sp, #200]
	ldr	r0, [r0, #92]
	bl	__aeabi_f2d
	mov	r2, r0
	ldr	r0, [sp, #124]                  @ 4-byte Reload
	mov	r3, r1
	ldr	r1, [sp, #120]                  @ 4-byte Reload
	vmov	d0, r2, r3
	.loc	1 583 13 is_stmt 0              @ ../Core/Src/uiPro.c:583:13
	vmov	r2, r3, d0
	bl	sprintf
	ldr	r2, [sp, #124]                  @ 4-byte Reload
	ldr	r3, [sp, #128]                  @ 4-byte Reload
	ldr.w	lr, [sp, #136]                  @ 4-byte Reload
                                        @ kill: def $r1 killed $r0
	.loc	1 584 30 is_stmt 1              @ ../Core/Src/uiPro.c:584:30
	ldr	r0, [sp, #132]                  @ 4-byte Reload
	ldr.w	r12, [sp, #200]
	.loc	1 584 93 is_stmt 0              @ ../Core/Src/uiPro.c:584:93
	ldrb.w	r1, [r12, lr]
	.loc	1 584 46                        @ ../Core/Src/uiPro.c:584:46
	smlabb	r0, r1, r0, r12
	.loc	1 584 93                        @ ../Core/Src/uiPro.c:584:93
	adds	r1, #1
	strb.w	r1, [r12, lr]
	.loc	1 584 30                        @ ../Core/Src/uiPro.c:584:30
	add.w	r0, r0, #1376
	.loc	1 584 13                        @ ../Core/Src/uiPro.c:584:13
	movw	r1, :lower16:.L.str.70
	movt	r1, :upper16:.L.str.70
	bl	StringChangeLine
	.loc	1 586 39 is_stmt 1              @ ../Core/Src/uiPro.c:586:39
	ldr	r0, [sp, #200]
	ldr	r0, [r0, #60]
	bl	__aeabi_f2d
	mov	r2, r0
	ldr	r0, [sp, #124]                  @ 4-byte Reload
	mov	r3, r1
	ldr	r1, [sp, #120]                  @ 4-byte Reload
	vmov	d0, r2, r3
	.loc	1 586 13 is_stmt 0              @ ../Core/Src/uiPro.c:586:13
	vmov	r2, r3, d0
	bl	sprintf
	ldr	r2, [sp, #124]                  @ 4-byte Reload
	ldr	r3, [sp, #128]                  @ 4-byte Reload
	ldr.w	lr, [sp, #136]                  @ 4-byte Reload
                                        @ kill: def $r1 killed $r0
	.loc	1 587 30 is_stmt 1              @ ../Core/Src/uiPro.c:587:30
	ldr	r0, [sp, #132]                  @ 4-byte Reload
	ldr.w	r12, [sp, #200]
	.loc	1 587 93 is_stmt 0              @ ../Core/Src/uiPro.c:587:93
	ldrb.w	r1, [r12, lr]
	.loc	1 587 46                        @ ../Core/Src/uiPro.c:587:46
	smlabb	r0, r1, r0, r12
	.loc	1 587 93                        @ ../Core/Src/uiPro.c:587:93
	adds	r1, #1
	strb.w	r1, [r12, lr]
	.loc	1 587 30                        @ ../Core/Src/uiPro.c:587:30
	add.w	r0, r0, #1376
	.loc	1 587 13                        @ ../Core/Src/uiPro.c:587:13
	movw	r1, :lower16:.L.str.71
	movt	r1, :upper16:.L.str.71
	bl	StringChangeLine
	.loc	1 589 39 is_stmt 1              @ ../Core/Src/uiPro.c:589:39
	ldr	r0, [sp, #200]
	ldr	r0, [r0, #96]
	bl	__aeabi_f2d
	mov	r2, r0
	ldr	r0, [sp, #124]                  @ 4-byte Reload
	mov	r3, r1
	ldr	r1, [sp, #120]                  @ 4-byte Reload
	vmov	d0, r2, r3
	.loc	1 589 13 is_stmt 0              @ ../Core/Src/uiPro.c:589:13
	vmov	r2, r3, d0
	bl	sprintf
	ldr	r2, [sp, #124]                  @ 4-byte Reload
	ldr	r3, [sp, #128]                  @ 4-byte Reload
	ldr.w	lr, [sp, #136]                  @ 4-byte Reload
                                        @ kill: def $r1 killed $r0
	.loc	1 590 30 is_stmt 1              @ ../Core/Src/uiPro.c:590:30
	ldr	r0, [sp, #132]                  @ 4-byte Reload
	ldr.w	r12, [sp, #200]
	.loc	1 590 93 is_stmt 0              @ ../Core/Src/uiPro.c:590:93
	ldrb.w	r1, [r12, lr]
	.loc	1 590 46                        @ ../Core/Src/uiPro.c:590:46
	smlabb	r0, r1, r0, r12
	.loc	1 590 93                        @ ../Core/Src/uiPro.c:590:93
	adds	r1, #1
	strb.w	r1, [r12, lr]
	.loc	1 590 30                        @ ../Core/Src/uiPro.c:590:30
	add.w	r0, r0, #1376
	.loc	1 590 13                        @ ../Core/Src/uiPro.c:590:13
	movw	r1, :lower16:.L.str.72
	movt	r1, :upper16:.L.str.72
	bl	StringChangeLine
	.loc	1 592 39 is_stmt 1              @ ../Core/Src/uiPro.c:592:39
	ldr	r0, [sp, #200]
	ldr	r0, [r0, #64]
	bl	__aeabi_f2d
	mov	r2, r0
	ldr	r0, [sp, #124]                  @ 4-byte Reload
	mov	r3, r1
	ldr	r1, [sp, #120]                  @ 4-byte Reload
	vmov	d0, r2, r3
	.loc	1 592 13 is_stmt 0              @ ../Core/Src/uiPro.c:592:13
	vmov	r2, r3, d0
	bl	sprintf
	ldr	r2, [sp, #124]                  @ 4-byte Reload
	ldr	r3, [sp, #128]                  @ 4-byte Reload
	ldr.w	lr, [sp, #136]                  @ 4-byte Reload
                                        @ kill: def $r1 killed $r0
	.loc	1 593 30 is_stmt 1              @ ../Core/Src/uiPro.c:593:30
	ldr	r0, [sp, #132]                  @ 4-byte Reload
	ldr.w	r12, [sp, #200]
	.loc	1 593 93 is_stmt 0              @ ../Core/Src/uiPro.c:593:93
	ldrb.w	r1, [r12, lr]
	.loc	1 593 46                        @ ../Core/Src/uiPro.c:593:46
	smlabb	r0, r1, r0, r12
	.loc	1 593 93                        @ ../Core/Src/uiPro.c:593:93
	adds	r1, #1
	strb.w	r1, [r12, lr]
	.loc	1 593 30                        @ ../Core/Src/uiPro.c:593:30
	add.w	r0, r0, #1376
	.loc	1 593 13                        @ ../Core/Src/uiPro.c:593:13
	movw	r1, :lower16:.L.str.73
	movt	r1, :upper16:.L.str.73
	bl	StringChangeLine
	.loc	1 595 39 is_stmt 1              @ ../Core/Src/uiPro.c:595:39
	ldr	r0, [sp, #200]
	ldr	r0, [r0, #100]
	bl	__aeabi_f2d
	mov	r2, r0
	ldr	r0, [sp, #124]                  @ 4-byte Reload
	mov	r3, r1
	ldr	r1, [sp, #120]                  @ 4-byte Reload
	vmov	d0, r2, r3
	.loc	1 595 13 is_stmt 0              @ ../Core/Src/uiPro.c:595:13
	vmov	r2, r3, d0
	bl	sprintf
	ldr	r2, [sp, #124]                  @ 4-byte Reload
	ldr	r3, [sp, #128]                  @ 4-byte Reload
	ldr.w	lr, [sp, #136]                  @ 4-byte Reload
                                        @ kill: def $r1 killed $r0
	.loc	1 596 30 is_stmt 1              @ ../Core/Src/uiPro.c:596:30
	ldr	r0, [sp, #132]                  @ 4-byte Reload
	ldr.w	r12, [sp, #200]
	.loc	1 596 93 is_stmt 0              @ ../Core/Src/uiPro.c:596:93
	ldrb.w	r1, [r12, lr]
	.loc	1 596 46                        @ ../Core/Src/uiPro.c:596:46
	smlabb	r0, r1, r0, r12
	.loc	1 596 93                        @ ../Core/Src/uiPro.c:596:93
	adds	r1, #1
	strb.w	r1, [r12, lr]
	.loc	1 596 30                        @ ../Core/Src/uiPro.c:596:30
	add.w	r0, r0, #1376
	.loc	1 596 13                        @ ../Core/Src/uiPro.c:596:13
	movw	r1, :lower16:.L.str.74
	movt	r1, :upper16:.L.str.74
	bl	StringChangeLine
	.loc	1 598 39 is_stmt 1              @ ../Core/Src/uiPro.c:598:39
	ldr	r0, [sp, #200]
	ldr	r0, [r0, #68]
	bl	__aeabi_f2d
	mov	r2, r0
	ldr	r0, [sp, #124]                  @ 4-byte Reload
	mov	r3, r1
	ldr	r1, [sp, #120]                  @ 4-byte Reload
	vmov	d0, r2, r3
	.loc	1 598 13 is_stmt 0              @ ../Core/Src/uiPro.c:598:13
	vmov	r2, r3, d0
	bl	sprintf
	ldr	r2, [sp, #124]                  @ 4-byte Reload
	ldr	r3, [sp, #128]                  @ 4-byte Reload
	ldr.w	lr, [sp, #136]                  @ 4-byte Reload
                                        @ kill: def $r1 killed $r0
	.loc	1 599 30 is_stmt 1              @ ../Core/Src/uiPro.c:599:30
	ldr	r0, [sp, #132]                  @ 4-byte Reload
	ldr.w	r12, [sp, #200]
	.loc	1 599 93 is_stmt 0              @ ../Core/Src/uiPro.c:599:93
	ldrb.w	r1, [r12, lr]
	.loc	1 599 46                        @ ../Core/Src/uiPro.c:599:46
	smlabb	r0, r1, r0, r12
	.loc	1 599 93                        @ ../Core/Src/uiPro.c:599:93
	adds	r1, #1
	strb.w	r1, [r12, lr]
	.loc	1 599 30                        @ ../Core/Src/uiPro.c:599:30
	add.w	r0, r0, #1376
	.loc	1 599 13                        @ ../Core/Src/uiPro.c:599:13
	movw	r1, :lower16:.L.str.75
	movt	r1, :upper16:.L.str.75
	bl	StringChangeLine
	.loc	1 601 39 is_stmt 1              @ ../Core/Src/uiPro.c:601:39
	ldr	r0, [sp, #200]
	ldr	r0, [r0, #104]
	bl	__aeabi_f2d
	mov	r2, r0
	ldr	r0, [sp, #124]                  @ 4-byte Reload
	mov	r3, r1
	ldr	r1, [sp, #120]                  @ 4-byte Reload
	vmov	d0, r2, r3
	.loc	1 601 13 is_stmt 0              @ ../Core/Src/uiPro.c:601:13
	vmov	r2, r3, d0
	bl	sprintf
	ldr	r2, [sp, #124]                  @ 4-byte Reload
	ldr	r3, [sp, #128]                  @ 4-byte Reload
	ldr.w	lr, [sp, #136]                  @ 4-byte Reload
                                        @ kill: def $r1 killed $r0
	.loc	1 602 30 is_stmt 1              @ ../Core/Src/uiPro.c:602:30
	ldr	r0, [sp, #132]                  @ 4-byte Reload
	ldr.w	r12, [sp, #200]
	.loc	1 602 93 is_stmt 0              @ ../Core/Src/uiPro.c:602:93
	ldrb.w	r1, [r12, lr]
	.loc	1 602 46                        @ ../Core/Src/uiPro.c:602:46
	smlabb	r0, r1, r0, r12
	.loc	1 602 93                        @ ../Core/Src/uiPro.c:602:93
	adds	r1, #1
	strb.w	r1, [r12, lr]
	.loc	1 602 30                        @ ../Core/Src/uiPro.c:602:30
	add.w	r0, r0, #1376
	.loc	1 602 13                        @ ../Core/Src/uiPro.c:602:13
	movw	r1, :lower16:.L.str.76
	movt	r1, :upper16:.L.str.76
	bl	StringChangeLine
	.loc	1 604 39 is_stmt 1              @ ../Core/Src/uiPro.c:604:39
	ldr	r0, [sp, #200]
	ldr	r0, [r0, #72]
	bl	__aeabi_f2d
	mov	r2, r0
	ldr	r0, [sp, #124]                  @ 4-byte Reload
	mov	r3, r1
	ldr	r1, [sp, #120]                  @ 4-byte Reload
	vmov	d0, r2, r3
	.loc	1 604 13 is_stmt 0              @ ../Core/Src/uiPro.c:604:13
	vmov	r2, r3, d0
	bl	sprintf
	ldr	r2, [sp, #124]                  @ 4-byte Reload
	ldr	r3, [sp, #128]                  @ 4-byte Reload
	ldr.w	lr, [sp, #136]                  @ 4-byte Reload
                                        @ kill: def $r1 killed $r0
	.loc	1 605 30 is_stmt 1              @ ../Core/Src/uiPro.c:605:30
	ldr	r0, [sp, #132]                  @ 4-byte Reload
	ldr.w	r12, [sp, #200]
	.loc	1 605 93 is_stmt 0              @ ../Core/Src/uiPro.c:605:93
	ldrb.w	r1, [r12, lr]
	.loc	1 605 46                        @ ../Core/Src/uiPro.c:605:46
	smlabb	r0, r1, r0, r12
	.loc	1 605 93                        @ ../Core/Src/uiPro.c:605:93
	adds	r1, #1
	strb.w	r1, [r12, lr]
	.loc	1 605 30                        @ ../Core/Src/uiPro.c:605:30
	add.w	r0, r0, #1376
	.loc	1 605 13                        @ ../Core/Src/uiPro.c:605:13
	movw	r1, :lower16:.L.str.77
	movt	r1, :upper16:.L.str.77
	bl	StringChangeLine
	.loc	1 607 39 is_stmt 1              @ ../Core/Src/uiPro.c:607:39
	ldr	r0, [sp, #200]
	ldr	r0, [r0, #108]
	bl	__aeabi_f2d
	mov	r2, r0
	ldr	r0, [sp, #124]                  @ 4-byte Reload
	mov	r3, r1
	ldr	r1, [sp, #120]                  @ 4-byte Reload
	vmov	d0, r2, r3
	.loc	1 607 13 is_stmt 0              @ ../Core/Src/uiPro.c:607:13
	vmov	r2, r3, d0
	bl	sprintf
	ldr	r2, [sp, #124]                  @ 4-byte Reload
	ldr	r3, [sp, #128]                  @ 4-byte Reload
	ldr.w	lr, [sp, #136]                  @ 4-byte Reload
                                        @ kill: def $r1 killed $r0
	.loc	1 608 30 is_stmt 1              @ ../Core/Src/uiPro.c:608:30
	ldr	r0, [sp, #132]                  @ 4-byte Reload
	ldr.w	r12, [sp, #200]
	.loc	1 608 93 is_stmt 0              @ ../Core/Src/uiPro.c:608:93
	ldrb.w	r1, [r12, lr]
	.loc	1 608 46                        @ ../Core/Src/uiPro.c:608:46
	smlabb	r0, r1, r0, r12
	.loc	1 608 93                        @ ../Core/Src/uiPro.c:608:93
	adds	r1, #1
	strb.w	r1, [r12, lr]
	.loc	1 608 30                        @ ../Core/Src/uiPro.c:608:30
	add.w	r0, r0, #1376
	.loc	1 608 13                        @ ../Core/Src/uiPro.c:608:13
	movw	r1, :lower16:.L.str.78
	movt	r1, :upper16:.L.str.78
	bl	StringChangeLine
	.loc	1 610 39 is_stmt 1              @ ../Core/Src/uiPro.c:610:39
	ldr	r0, [sp, #200]
	ldr	r0, [r0, #76]
	bl	__aeabi_f2d
	mov	r2, r0
	ldr	r0, [sp, #124]                  @ 4-byte Reload
	mov	r3, r1
	ldr	r1, [sp, #120]                  @ 4-byte Reload
	vmov	d0, r2, r3
	.loc	1 610 13 is_stmt 0              @ ../Core/Src/uiPro.c:610:13
	vmov	r2, r3, d0
	bl	sprintf
	ldr	r2, [sp, #124]                  @ 4-byte Reload
	ldr	r3, [sp, #128]                  @ 4-byte Reload
	ldr.w	lr, [sp, #136]                  @ 4-byte Reload
                                        @ kill: def $r1 killed $r0
	.loc	1 611 30 is_stmt 1              @ ../Core/Src/uiPro.c:611:30
	ldr	r0, [sp, #132]                  @ 4-byte Reload
	ldr.w	r12, [sp, #200]
	.loc	1 611 93 is_stmt 0              @ ../Core/Src/uiPro.c:611:93
	ldrb.w	r1, [r12, lr]
	.loc	1 611 46                        @ ../Core/Src/uiPro.c:611:46
	smlabb	r0, r1, r0, r12
	.loc	1 611 93                        @ ../Core/Src/uiPro.c:611:93
	adds	r1, #1
	strb.w	r1, [r12, lr]
	.loc	1 611 30                        @ ../Core/Src/uiPro.c:611:30
	add.w	r0, r0, #1376
	.loc	1 611 13                        @ ../Core/Src/uiPro.c:611:13
	movw	r1, :lower16:.L.str.79
	movt	r1, :upper16:.L.str.79
	bl	StringChangeLine
	ldr	r2, [sp, #136]                  @ 4-byte Reload
	.loc	1 613 41 is_stmt 1              @ ../Core/Src/uiPro.c:613:41
	ldr	r0, [sp, #200]
	.loc	1 613 57 is_stmt 0              @ ../Core/Src/uiPro.c:613:57
	add.w	r1, r0, #1376
	.loc	1 613 90                        @ ../Core/Src/uiPro.c:613:90
	ldrb	r2, [r0, r2]
	.loc	1 613 13                        @ ../Core/Src/uiPro.c:613:13
	movw	r0, :lower16:USART_Data
	movt	r0, :upper16:USART_Data
	mov.w	r3, #1000
	bl	ScreenTransmit
.Ltmp178:
	.loc	1 616 9 is_stmt 1               @ ../Core/Src/uiPro.c:616:9
	b.w	.LBB3_216
.LBB3_35:
.Ltmp179:
	.loc	1 620 7                         @ ../Core/Src/uiPro.c:620:7
	ldr	r0, [sp, #200]
	movw	r1, #11379
	.loc	1 620 23 is_stmt 0              @ ../Core/Src/uiPro.c:620:23
	ldrb	r0, [r0, r1]
.Ltmp180:
	.loc	1 620 7                         @ ../Core/Src/uiPro.c:620:7
	cmp	r0, #1
	bne.w	.LBB3_93
	b	.LBB3_36
.LBB3_36:
.Ltmp181:
	.loc	1 623 5 is_stmt 1               @ ../Core/Src/uiPro.c:623:5
	ldr	r1, [sp, #200]
	movw	r2, #11379
	movs	r0, #0
	.loc	1 623 44 is_stmt 0              @ ../Core/Src/uiPro.c:623:44
	strb	r0, [r1, r2]
	.loc	1 625 22 is_stmt 1              @ ../Core/Src/uiPro.c:625:22
	movw	r1, :lower16:PageKeyVoltage_T.Step
	movt	r1, :upper16:PageKeyVoltage_T.Step
	strb	r0, [r1]
.Ltmp182:
	.loc	1 627 41                        @ ../Core/Src/uiPro.c:627:41
	ldr	r0, [sp, #200]
	.loc	1 627 57 is_stmt 0              @ ../Core/Src/uiPro.c:627:57
	add.w	r0, r0, #376
	.loc	1 627 20                        @ ../Core/Src/uiPro.c:627:20
	movw	r1, :lower16:.L.str.38
	movt	r1, :upper16:.L.str.38
	bl	strcmp
.Ltmp183:
	.loc	1 627 20                        @ ../Core/Src/uiPro.c:627:20
	cbnz	r0, .LBB3_38
	b	.LBB3_37
.LBB3_37:
	.loc	1 0 20                          @ ../Core/Src/uiPro.c:0:20
	movw	r1, #6168
	movt	r1, #16386
	mov.w	r0, #134217728
.Ltmp184:
	.loc	1 630 21 is_stmt 1              @ ../Core/Src/uiPro.c:630:21
	str	r0, [r1]
	.loc	1 632 17                        @ ../Core/Src/uiPro.c:632:17
	b	.LBB3_92
.Ltmp185:
.LBB3_38:
	.loc	1 633 47                        @ ../Core/Src/uiPro.c:633:47
	ldr	r0, [sp, #200]
	.loc	1 633 63 is_stmt 0              @ ../Core/Src/uiPro.c:633:63
	add.w	r0, r0, #376
	.loc	1 633 26                        @ ../Core/Src/uiPro.c:633:26
	movw	r1, :lower16:.L.str.39
	movt	r1, :upper16:.L.str.39
	bl	strcmp
.Ltmp186:
	.loc	1 633 26                        @ ../Core/Src/uiPro.c:633:26
	cbnz	r0, .LBB3_40
	b	.LBB3_39
.LBB3_39:
	.loc	1 0 26                          @ ../Core/Src/uiPro.c:0:26
	movw	r1, #6168
	movt	r1, #16386
	mov.w	r0, #2048
.Ltmp187:
	.loc	1 635 21 is_stmt 1              @ ../Core/Src/uiPro.c:635:21
	str	r0, [r1]
	.loc	1 638 17                        @ ../Core/Src/uiPro.c:638:17
	b	.LBB3_91
.Ltmp188:
.LBB3_40:
	.loc	1 639 47                        @ ../Core/Src/uiPro.c:639:47
	ldr	r0, [sp, #200]
	.loc	1 639 63 is_stmt 0              @ ../Core/Src/uiPro.c:639:63
	add.w	r0, r0, #376
	.loc	1 639 26                        @ ../Core/Src/uiPro.c:639:26
	movw	r1, :lower16:.L.str.41
	movt	r1, :upper16:.L.str.41
	bl	strcmp
.Ltmp189:
	.loc	1 639 26                        @ ../Core/Src/uiPro.c:639:26
	cbnz	r0, .LBB3_42
	b	.LBB3_41
.LBB3_41:
	.loc	1 0 26                          @ ../Core/Src/uiPro.c:0:26
	movw	r1, #3096
	movt	r1, #16386
	mov.w	r0, #134217728
.Ltmp190:
	.loc	1 641 21 is_stmt 1              @ ../Core/Src/uiPro.c:641:21
	str	r0, [r1]
	.loc	1 642 17                        @ ../Core/Src/uiPro.c:642:17
	b	.LBB3_90
.Ltmp191:
.LBB3_42:
	.loc	1 643 47                        @ ../Core/Src/uiPro.c:643:47
	ldr	r0, [sp, #200]
	.loc	1 643 63 is_stmt 0              @ ../Core/Src/uiPro.c:643:63
	add.w	r0, r0, #376
	.loc	1 643 26                        @ ../Core/Src/uiPro.c:643:26
	movw	r1, :lower16:.L.str.42
	movt	r1, :upper16:.L.str.42
	bl	strcmp
.Ltmp192:
	.loc	1 643 26                        @ ../Core/Src/uiPro.c:643:26
	cbnz	r0, .LBB3_44
	b	.LBB3_43
.LBB3_43:
	.loc	1 0 26                          @ ../Core/Src/uiPro.c:0:26
	movw	r1, #3096
	movt	r1, #16386
	mov.w	r0, #2048
.Ltmp193:
	.loc	1 645 21 is_stmt 1              @ ../Core/Src/uiPro.c:645:21
	str	r0, [r1]
	movw	r1, #6168
	movt	r1, #16386
	mov.w	r0, #524288
	.loc	1 646 21                        @ ../Core/Src/uiPro.c:646:21
	str	r0, [r1]
	mov.w	r0, #4194304
	.loc	1 647 21                        @ ../Core/Src/uiPro.c:647:21
	str	r0, [r1]
	mov.w	r0, #2097152
	.loc	1 648 21                        @ ../Core/Src/uiPro.c:648:21
	str	r0, [r1]
	mov.w	r0, #1048576
	.loc	1 649 21                        @ ../Core/Src/uiPro.c:649:21
	str	r0, [r1]
	mov.w	r0, #8388608
	.loc	1 650 21                        @ ../Core/Src/uiPro.c:650:21
	str	r0, [r1]
	mov.w	r0, #16777216
	.loc	1 651 21                        @ ../Core/Src/uiPro.c:651:21
	str	r0, [r1]
	mov.w	r0, #33554432
	.loc	1 652 21                        @ ../Core/Src/uiPro.c:652:21
	str	r0, [r1]
	.loc	1 654 17                        @ ../Core/Src/uiPro.c:654:17
	b	.LBB3_89
.Ltmp194:
.LBB3_44:
	.loc	1 655 47                        @ ../Core/Src/uiPro.c:655:47
	ldr	r0, [sp, #200]
	.loc	1 655 63 is_stmt 0              @ ../Core/Src/uiPro.c:655:63
	add.w	r0, r0, #376
	.loc	1 655 26                        @ ../Core/Src/uiPro.c:655:26
	movw	r1, :lower16:.L.str.44
	movt	r1, :upper16:.L.str.44
	bl	strcmp
.Ltmp195:
	.loc	1 655 26                        @ ../Core/Src/uiPro.c:655:26
	cbnz	r0, .LBB3_46
	b	.LBB3_45
.LBB3_45:
	.loc	1 0 26                          @ ../Core/Src/uiPro.c:0:26
	movw	r1, #6168
	movt	r1, #16386
	mov.w	r0, #524288
.Ltmp196:
	.loc	1 657 21 is_stmt 1              @ ../Core/Src/uiPro.c:657:21
	str	r0, [r1]
	.loc	1 658 17                        @ ../Core/Src/uiPro.c:658:17
	b	.LBB3_88
.Ltmp197:
.LBB3_46:
	.loc	1 659 47                        @ ../Core/Src/uiPro.c:659:47
	ldr	r0, [sp, #200]
	.loc	1 659 63 is_stmt 0              @ ../Core/Src/uiPro.c:659:63
	add.w	r0, r0, #376
	.loc	1 659 26                        @ ../Core/Src/uiPro.c:659:26
	movw	r1, :lower16:.L.str.45
	movt	r1, :upper16:.L.str.45
	bl	strcmp
.Ltmp198:
	.loc	1 659 26                        @ ../Core/Src/uiPro.c:659:26
	cbnz	r0, .LBB3_48
	b	.LBB3_47
.LBB3_47:
	.loc	1 0 26                          @ ../Core/Src/uiPro.c:0:26
	movw	r1, #3096
	movt	r1, #16386
	mov.w	r0, #134217728
.Ltmp199:
	.loc	1 662 21 is_stmt 1              @ ../Core/Src/uiPro.c:662:21
	str	r0, [r1]
	movw	r1, #6168
	movt	r1, #16386
	movs	r0, #8
	.loc	1 663 21                        @ ../Core/Src/uiPro.c:663:21
	str	r0, [r1]
	mov.w	r0, #4194304
	.loc	1 664 21                        @ ../Core/Src/uiPro.c:664:21
	str	r0, [r1]
	mov.w	r0, #2097152
	.loc	1 665 21                        @ ../Core/Src/uiPro.c:665:21
	str	r0, [r1]
	mov.w	r0, #1048576
	.loc	1 666 21                        @ ../Core/Src/uiPro.c:666:21
	str	r0, [r1]
	mov.w	r0, #8388608
	.loc	1 667 21                        @ ../Core/Src/uiPro.c:667:21
	str	r0, [r1]
	mov.w	r0, #16777216
	.loc	1 668 21                        @ ../Core/Src/uiPro.c:668:21
	str	r0, [r1]
	mov.w	r0, #33554432
	.loc	1 669 21                        @ ../Core/Src/uiPro.c:669:21
	str	r0, [r1]
	.loc	1 671 17                        @ ../Core/Src/uiPro.c:671:17
	b	.LBB3_87
.Ltmp200:
.LBB3_48:
	.loc	1 672 47                        @ ../Core/Src/uiPro.c:672:47
	ldr	r0, [sp, #200]
	.loc	1 672 63 is_stmt 0              @ ../Core/Src/uiPro.c:672:63
	add.w	r0, r0, #376
	.loc	1 672 26                        @ ../Core/Src/uiPro.c:672:26
	movw	r1, :lower16:.L.str.47
	movt	r1, :upper16:.L.str.47
	bl	strcmp
.Ltmp201:
	.loc	1 672 26                        @ ../Core/Src/uiPro.c:672:26
	cbnz	r0, .LBB3_50
	b	.LBB3_49
.LBB3_49:
	.loc	1 0 26                          @ ../Core/Src/uiPro.c:0:26
	movw	r1, #6168
	movt	r1, #16386
	mov.w	r0, #4194304
.Ltmp202:
	.loc	1 675 21 is_stmt 1              @ ../Core/Src/uiPro.c:675:21
	str	r0, [r1]
	.loc	1 678 17                        @ ../Core/Src/uiPro.c:678:17
	b	.LBB3_86
.Ltmp203:
.LBB3_50:
	.loc	1 679 47                        @ ../Core/Src/uiPro.c:679:47
	ldr	r0, [sp, #200]
	.loc	1 679 63 is_stmt 0              @ ../Core/Src/uiPro.c:679:63
	add.w	r0, r0, #376
	.loc	1 679 26                        @ ../Core/Src/uiPro.c:679:26
	movw	r1, :lower16:.L.str.48
	movt	r1, :upper16:.L.str.48
	bl	strcmp
.Ltmp204:
	.loc	1 679 26                        @ ../Core/Src/uiPro.c:679:26
	cbnz	r0, .LBB3_52
	b	.LBB3_51
.LBB3_51:
	.loc	1 0 26                          @ ../Core/Src/uiPro.c:0:26
	movw	r1, #3096
	movt	r1, #16386
	mov.w	r0, #134217728
.Ltmp205:
	.loc	1 681 21 is_stmt 1              @ ../Core/Src/uiPro.c:681:21
	str	r0, [r1]
	movw	r1, #6168
	movt	r1, #16386
	mov.w	r0, #524288
	.loc	1 682 21                        @ ../Core/Src/uiPro.c:682:21
	str	r0, [r1]
	movs	r0, #64
	.loc	1 683 21                        @ ../Core/Src/uiPro.c:683:21
	str	r0, [r1]
	mov.w	r0, #2097152
	.loc	1 684 21                        @ ../Core/Src/uiPro.c:684:21
	str	r0, [r1]
	mov.w	r0, #1048576
	.loc	1 685 21                        @ ../Core/Src/uiPro.c:685:21
	str	r0, [r1]
	mov.w	r0, #8388608
	.loc	1 686 21                        @ ../Core/Src/uiPro.c:686:21
	str	r0, [r1]
	mov.w	r0, #16777216
	.loc	1 687 21                        @ ../Core/Src/uiPro.c:687:21
	str	r0, [r1]
	mov.w	r0, #33554432
	.loc	1 688 21                        @ ../Core/Src/uiPro.c:688:21
	str	r0, [r1]
	.loc	1 690 17                        @ ../Core/Src/uiPro.c:690:17
	b	.LBB3_85
.Ltmp206:
.LBB3_52:
	.loc	1 691 47                        @ ../Core/Src/uiPro.c:691:47
	ldr	r0, [sp, #200]
	.loc	1 691 63 is_stmt 0              @ ../Core/Src/uiPro.c:691:63
	add.w	r0, r0, #376
	.loc	1 691 26                        @ ../Core/Src/uiPro.c:691:26
	movw	r1, :lower16:.L.str.50
	movt	r1, :upper16:.L.str.50
	bl	strcmp
.Ltmp207:
	.loc	1 691 26                        @ ../Core/Src/uiPro.c:691:26
	cbnz	r0, .LBB3_54
	b	.LBB3_53
.LBB3_53:
	.loc	1 0 26                          @ ../Core/Src/uiPro.c:0:26
	movw	r1, #6168
	movt	r1, #16386
	mov.w	r0, #2097152
.Ltmp208:
	.loc	1 694 21 is_stmt 1              @ ../Core/Src/uiPro.c:694:21
	str	r0, [r1]
	.loc	1 697 17                        @ ../Core/Src/uiPro.c:697:17
	b	.LBB3_84
.Ltmp209:
.LBB3_54:
	.loc	1 698 47                        @ ../Core/Src/uiPro.c:698:47
	ldr	r0, [sp, #200]
	.loc	1 698 63 is_stmt 0              @ ../Core/Src/uiPro.c:698:63
	add.w	r0, r0, #376
	.loc	1 698 26                        @ ../Core/Src/uiPro.c:698:26
	movw	r1, :lower16:.L.str.51
	movt	r1, :upper16:.L.str.51
	bl	strcmp
.Ltmp210:
	.loc	1 698 26                        @ ../Core/Src/uiPro.c:698:26
	cbnz	r0, .LBB3_56
	b	.LBB3_55
.LBB3_55:
	.loc	1 0 26                          @ ../Core/Src/uiPro.c:0:26
	movw	r1, #3096
	movt	r1, #16386
	mov.w	r0, #134217728
.Ltmp211:
	.loc	1 701 21 is_stmt 1              @ ../Core/Src/uiPro.c:701:21
	str	r0, [r1]
	movw	r1, #6168
	movt	r1, #16386
	mov.w	r0, #524288
	.loc	1 702 21                        @ ../Core/Src/uiPro.c:702:21
	str	r0, [r1]
	mov.w	r0, #4194304
	.loc	1 703 21                        @ ../Core/Src/uiPro.c:703:21
	str	r0, [r1]
	movs	r0, #32
	.loc	1 704 21                        @ ../Core/Src/uiPro.c:704:21
	str	r0, [r1]
	mov.w	r0, #1048576
	.loc	1 705 21                        @ ../Core/Src/uiPro.c:705:21
	str	r0, [r1]
	mov.w	r0, #8388608
	.loc	1 706 21                        @ ../Core/Src/uiPro.c:706:21
	str	r0, [r1]
	mov.w	r0, #16777216
	.loc	1 707 21                        @ ../Core/Src/uiPro.c:707:21
	str	r0, [r1]
	mov.w	r0, #33554432
	.loc	1 708 21                        @ ../Core/Src/uiPro.c:708:21
	str	r0, [r1]
	.loc	1 711 17                        @ ../Core/Src/uiPro.c:711:17
	b	.LBB3_83
.Ltmp212:
.LBB3_56:
	.loc	1 712 47                        @ ../Core/Src/uiPro.c:712:47
	ldr	r0, [sp, #200]
	.loc	1 712 63 is_stmt 0              @ ../Core/Src/uiPro.c:712:63
	add.w	r0, r0, #376
	.loc	1 712 26                        @ ../Core/Src/uiPro.c:712:26
	movw	r1, :lower16:.L.str.53
	movt	r1, :upper16:.L.str.53
	bl	strcmp
.Ltmp213:
	.loc	1 712 26                        @ ../Core/Src/uiPro.c:712:26
	cbnz	r0, .LBB3_58
	b	.LBB3_57
.LBB3_57:
	.loc	1 0 26                          @ ../Core/Src/uiPro.c:0:26
	movw	r1, #6168
	movt	r1, #16386
	mov.w	r0, #1048576
.Ltmp214:
	.loc	1 715 21 is_stmt 1              @ ../Core/Src/uiPro.c:715:21
	str	r0, [r1]
	.loc	1 718 17                        @ ../Core/Src/uiPro.c:718:17
	b	.LBB3_82
.Ltmp215:
.LBB3_58:
	.loc	1 719 47                        @ ../Core/Src/uiPro.c:719:47
	ldr	r0, [sp, #200]
	.loc	1 719 63 is_stmt 0              @ ../Core/Src/uiPro.c:719:63
	add.w	r0, r0, #376
	.loc	1 719 26                        @ ../Core/Src/uiPro.c:719:26
	movw	r1, :lower16:.L.str.54
	movt	r1, :upper16:.L.str.54
	bl	strcmp
.Ltmp216:
	.loc	1 719 26                        @ ../Core/Src/uiPro.c:719:26
	cbnz	r0, .LBB3_60
	b	.LBB3_59
.LBB3_59:
	.loc	1 0 26                          @ ../Core/Src/uiPro.c:0:26
	movw	r1, #3096
	movt	r1, #16386
	mov.w	r0, #134217728
.Ltmp217:
	.loc	1 722 21 is_stmt 1              @ ../Core/Src/uiPro.c:722:21
	str	r0, [r1]
	movw	r1, #6168
	movt	r1, #16386
	mov.w	r0, #524288
	.loc	1 723 21                        @ ../Core/Src/uiPro.c:723:21
	str	r0, [r1]
	mov.w	r0, #4194304
	.loc	1 724 21                        @ ../Core/Src/uiPro.c:724:21
	str	r0, [r1]
	mov.w	r0, #2097152
	.loc	1 725 21                        @ ../Core/Src/uiPro.c:725:21
	str	r0, [r1]
	movs	r0, #16
	.loc	1 726 21                        @ ../Core/Src/uiPro.c:726:21
	str	r0, [r1]
	mov.w	r0, #8388608
	.loc	1 727 21                        @ ../Core/Src/uiPro.c:727:21
	str	r0, [r1]
	mov.w	r0, #16777216
	.loc	1 728 21                        @ ../Core/Src/uiPro.c:728:21
	str	r0, [r1]
	mov.w	r0, #33554432
	.loc	1 729 21                        @ ../Core/Src/uiPro.c:729:21
	str	r0, [r1]
	.loc	1 731 17                        @ ../Core/Src/uiPro.c:731:17
	b	.LBB3_81
.Ltmp218:
.LBB3_60:
	.loc	1 732 47                        @ ../Core/Src/uiPro.c:732:47
	ldr	r0, [sp, #200]
	.loc	1 732 63 is_stmt 0              @ ../Core/Src/uiPro.c:732:63
	add.w	r0, r0, #376
	.loc	1 732 26                        @ ../Core/Src/uiPro.c:732:26
	movw	r1, :lower16:.L.str.56
	movt	r1, :upper16:.L.str.56
	bl	strcmp
.Ltmp219:
	.loc	1 732 26                        @ ../Core/Src/uiPro.c:732:26
	cbnz	r0, .LBB3_62
	b	.LBB3_61
.LBB3_61:
	.loc	1 0 26                          @ ../Core/Src/uiPro.c:0:26
	movw	r1, #6168
	movt	r1, #16386
	mov.w	r0, #8388608
.Ltmp220:
	.loc	1 735 21 is_stmt 1              @ ../Core/Src/uiPro.c:735:21
	str	r0, [r1]
	.loc	1 737 17                        @ ../Core/Src/uiPro.c:737:17
	b	.LBB3_80
.Ltmp221:
.LBB3_62:
	.loc	1 738 47                        @ ../Core/Src/uiPro.c:738:47
	ldr	r0, [sp, #200]
	.loc	1 738 63 is_stmt 0              @ ../Core/Src/uiPro.c:738:63
	add.w	r0, r0, #376
	.loc	1 738 26                        @ ../Core/Src/uiPro.c:738:26
	movw	r1, :lower16:.L.str.57
	movt	r1, :upper16:.L.str.57
	bl	strcmp
.Ltmp222:
	.loc	1 738 26                        @ ../Core/Src/uiPro.c:738:26
	cbnz	r0, .LBB3_64
	b	.LBB3_63
.LBB3_63:
	.loc	1 0 26                          @ ../Core/Src/uiPro.c:0:26
	movw	r1, #3096
	movt	r1, #16386
	mov.w	r0, #134217728
.Ltmp223:
	.loc	1 741 21 is_stmt 1              @ ../Core/Src/uiPro.c:741:21
	str	r0, [r1]
	movw	r1, #6168
	movt	r1, #16386
	mov.w	r0, #524288
	.loc	1 742 21                        @ ../Core/Src/uiPro.c:742:21
	str	r0, [r1]
	mov.w	r0, #4194304
	.loc	1 743 21                        @ ../Core/Src/uiPro.c:743:21
	str	r0, [r1]
	mov.w	r0, #2097152
	.loc	1 744 21                        @ ../Core/Src/uiPro.c:744:21
	str	r0, [r1]
	mov.w	r0, #1048576
	.loc	1 745 21                        @ ../Core/Src/uiPro.c:745:21
	str	r0, [r1]
	movs	r0, #128
	.loc	1 746 21                        @ ../Core/Src/uiPro.c:746:21
	str	r0, [r1]
	mov.w	r0, #16777216
	.loc	1 747 21                        @ ../Core/Src/uiPro.c:747:21
	str	r0, [r1]
	mov.w	r0, #33554432
	.loc	1 748 21                        @ ../Core/Src/uiPro.c:748:21
	str	r0, [r1]
	.loc	1 750 17                        @ ../Core/Src/uiPro.c:750:17
	b	.LBB3_79
.Ltmp224:
.LBB3_64:
	.loc	1 751 47                        @ ../Core/Src/uiPro.c:751:47
	ldr	r0, [sp, #200]
	.loc	1 751 63 is_stmt 0              @ ../Core/Src/uiPro.c:751:63
	add.w	r0, r0, #376
	.loc	1 751 26                        @ ../Core/Src/uiPro.c:751:26
	movw	r1, :lower16:.L.str.59
	movt	r1, :upper16:.L.str.59
	bl	strcmp
.Ltmp225:
	.loc	1 751 26                        @ ../Core/Src/uiPro.c:751:26
	cbnz	r0, .LBB3_66
	b	.LBB3_65
.LBB3_65:
	.loc	1 0 26                          @ ../Core/Src/uiPro.c:0:26
	movw	r1, #6168
	movt	r1, #16386
	mov.w	r0, #16777216
.Ltmp226:
	.loc	1 754 21 is_stmt 1              @ ../Core/Src/uiPro.c:754:21
	str	r0, [r1]
	.loc	1 756 17                        @ ../Core/Src/uiPro.c:756:17
	b	.LBB3_78
.Ltmp227:
.LBB3_66:
	.loc	1 757 47                        @ ../Core/Src/uiPro.c:757:47
	ldr	r0, [sp, #200]
	.loc	1 757 63 is_stmt 0              @ ../Core/Src/uiPro.c:757:63
	add.w	r0, r0, #376
	.loc	1 757 26                        @ ../Core/Src/uiPro.c:757:26
	movw	r1, :lower16:.L.str.60
	movt	r1, :upper16:.L.str.60
	bl	strcmp
.Ltmp228:
	.loc	1 757 26                        @ ../Core/Src/uiPro.c:757:26
	cbnz	r0, .LBB3_68
	b	.LBB3_67
.LBB3_67:
	.loc	1 0 26                          @ ../Core/Src/uiPro.c:0:26
	movw	r1, #3096
	movt	r1, #16386
	mov.w	r0, #134217728
.Ltmp229:
	.loc	1 761 21 is_stmt 1              @ ../Core/Src/uiPro.c:761:21
	str	r0, [r1]
	movw	r1, #6168
	movt	r1, #16386
	mov.w	r0, #524288
	.loc	1 762 21                        @ ../Core/Src/uiPro.c:762:21
	str	r0, [r1]
	mov.w	r0, #4194304
	.loc	1 763 21                        @ ../Core/Src/uiPro.c:763:21
	str	r0, [r1]
	mov.w	r0, #2097152
	.loc	1 764 21                        @ ../Core/Src/uiPro.c:764:21
	str	r0, [r1]
	mov.w	r0, #1048576
	.loc	1 765 21                        @ ../Core/Src/uiPro.c:765:21
	str	r0, [r1]
	mov.w	r0, #8388608
	.loc	1 766 21                        @ ../Core/Src/uiPro.c:766:21
	str	r0, [r1]
	mov.w	r0, #256
	.loc	1 767 21                        @ ../Core/Src/uiPro.c:767:21
	str	r0, [r1]
	mov.w	r0, #33554432
	.loc	1 768 21                        @ ../Core/Src/uiPro.c:768:21
	str	r0, [r1]
	.loc	1 770 17                        @ ../Core/Src/uiPro.c:770:17
	b	.LBB3_77
.Ltmp230:
.LBB3_68:
	.loc	1 771 47                        @ ../Core/Src/uiPro.c:771:47
	ldr	r0, [sp, #200]
	.loc	1 771 63 is_stmt 0              @ ../Core/Src/uiPro.c:771:63
	add.w	r0, r0, #376
	.loc	1 771 26                        @ ../Core/Src/uiPro.c:771:26
	movw	r1, :lower16:.L.str.62
	movt	r1, :upper16:.L.str.62
	bl	strcmp
.Ltmp231:
	.loc	1 771 26                        @ ../Core/Src/uiPro.c:771:26
	cbnz	r0, .LBB3_70
	b	.LBB3_69
.LBB3_69:
	.loc	1 0 26                          @ ../Core/Src/uiPro.c:0:26
	movw	r1, #6168
	movt	r1, #16386
	mov.w	r0, #33554432
.Ltmp232:
	.loc	1 774 21 is_stmt 1              @ ../Core/Src/uiPro.c:774:21
	str	r0, [r1]
	.loc	1 776 17                        @ ../Core/Src/uiPro.c:776:17
	b	.LBB3_76
.Ltmp233:
.LBB3_70:
	.loc	1 777 47                        @ ../Core/Src/uiPro.c:777:47
	ldr	r0, [sp, #200]
	.loc	1 777 63 is_stmt 0              @ ../Core/Src/uiPro.c:777:63
	add.w	r0, r0, #376
	.loc	1 777 26                        @ ../Core/Src/uiPro.c:777:26
	movw	r1, :lower16:.L.str.63
	movt	r1, :upper16:.L.str.63
	bl	strcmp
.Ltmp234:
	.loc	1 777 26                        @ ../Core/Src/uiPro.c:777:26
	cbnz	r0, .LBB3_72
	b	.LBB3_71
.LBB3_71:
	.loc	1 0 26                          @ ../Core/Src/uiPro.c:0:26
	movw	r1, #3096
	movt	r1, #16386
	mov.w	r0, #134217728
.Ltmp235:
	.loc	1 780 21 is_stmt 1              @ ../Core/Src/uiPro.c:780:21
	str	r0, [r1]
	movw	r1, #6168
	movt	r1, #16386
	mov.w	r0, #524288
	.loc	1 781 21                        @ ../Core/Src/uiPro.c:781:21
	str	r0, [r1]
	mov.w	r0, #4194304
	.loc	1 782 21                        @ ../Core/Src/uiPro.c:782:21
	str	r0, [r1]
	mov.w	r0, #2097152
	.loc	1 783 21                        @ ../Core/Src/uiPro.c:783:21
	str	r0, [r1]
	mov.w	r0, #1048576
	.loc	1 784 21                        @ ../Core/Src/uiPro.c:784:21
	str	r0, [r1]
	mov.w	r0, #8388608
	.loc	1 785 21                        @ ../Core/Src/uiPro.c:785:21
	str	r0, [r1]
	mov.w	r0, #16777216
	.loc	1 786 21                        @ ../Core/Src/uiPro.c:786:21
	str	r0, [r1]
	mov.w	r0, #512
	.loc	1 787 21                        @ ../Core/Src/uiPro.c:787:21
	str	r0, [r1]
	.loc	1 789 17                        @ ../Core/Src/uiPro.c:789:17
	b	.LBB3_75
.Ltmp236:
.LBB3_72:
	.loc	1 790 25                        @ ../Core/Src/uiPro.c:790:25
	ldr	r0, [sp, #200]
	ldrb.w	r0, [r0, #376]
.Ltmp237:
	.loc	1 790 25 is_stmt 0              @ ../Core/Src/uiPro.c:790:25
	cmp	r0, #98
	bne	.LBB3_74
	b	.LBB3_73
.LBB3_73:
.Ltmp238:
	.loc	1 793 26 is_stmt 1              @ ../Core/Src/uiPro.c:793:26
	movw	r1, :lower16:PageKeyVoltage_T.Step
	movt	r1, :upper16:PageKeyVoltage_T.Step
	movs	r0, #2
	strb	r0, [r1]
	.loc	1 794 31                        @ ../Core/Src/uiPro.c:794:31
	movw	r1, :lower16:PageKeyVoltage_T.SmallStep
	movt	r1, :upper16:PageKeyVoltage_T.SmallStep
	movs	r0, #1
	strb	r0, [r1]
	.loc	1 795 17                        @ ../Core/Src/uiPro.c:795:17
	b	.LBB3_74
.Ltmp239:
.LBB3_74:
	.loc	1 0 17 is_stmt 0                @ ../Core/Src/uiPro.c:0:17
	b	.LBB3_75
.LBB3_75:
	b	.LBB3_76
.LBB3_76:
	b	.LBB3_77
.LBB3_77:
	b	.LBB3_78
.LBB3_78:
	b	.LBB3_79
.LBB3_79:
	b	.LBB3_80
.LBB3_80:
	b	.LBB3_81
.LBB3_81:
	b	.LBB3_82
.LBB3_82:
	b	.LBB3_83
.LBB3_83:
	b	.LBB3_84
.LBB3_84:
	b	.LBB3_85
.LBB3_85:
	b	.LBB3_86
.LBB3_86:
	b	.LBB3_87
.LBB3_87:
	b	.LBB3_88
.LBB3_88:
	b	.LBB3_89
.LBB3_89:
	b	.LBB3_90
.LBB3_90:
	b	.LBB3_91
.LBB3_91:
	b	.LBB3_92
.LBB3_92:
	.loc	1 797 13 is_stmt 1              @ ../Core/Src/uiPro.c:797:13
	b	.LBB3_93
.Ltmp240:
.LBB3_93:
	.loc	1 799 9                         @ ../Core/Src/uiPro.c:799:9
	b.w	.LBB3_216
.LBB3_94:
.Ltmp241:
	.loc	1 804 16                        @ ../Core/Src/uiPro.c:804:16
	movw	r0, :lower16:PageKeyVoltage_T.SmallStep
	movt	r0, :upper16:PageKeyVoltage_T.SmallStep
	ldrb	r0, [r0]
.Ltmp242:
	.loc	1 804 16 is_stmt 0              @ ../Core/Src/uiPro.c:804:16
	cmp	r0, #1
	bne	.LBB3_96
	b	.LBB3_95
.LBB3_95:
.Ltmp243:
	.loc	1 806 29 is_stmt 1              @ ../Core/Src/uiPro.c:806:29
	movw	r0, :lower16:PageKeyVoltage_T.SequenceStrBuf
	movt	r0, :upper16:PageKeyVoltage_T.SequenceStrBuf
	ldr	r0, [r0]
	ldrb	r0, [r0]
	.loc	1 806 27 is_stmt 0              @ ../Core/Src/uiPro.c:806:27
	movw	r1, :lower16:PageKeyVoltage_T.SmallStep
	movt	r1, :upper16:PageKeyVoltage_T.SmallStep
	strb	r0, [r1]
	movw	r1, #6168
	movt	r1, #16386
	str	r1, [sp, #108]                  @ 4-byte Spill
	mov.w	r0, #2048
	.loc	1 807 17 is_stmt 1              @ ../Core/Src/uiPro.c:807:17
	str	r0, [r1]
	movw	r2, #3096
	movt	r2, #16386
	mov.w	r0, #134217728
	.loc	1 808 17                        @ ../Core/Src/uiPro.c:808:17
	str	r0, [r2]
	mov.w	r0, #524288
	.loc	1 809 17                        @ ../Core/Src/uiPro.c:809:17
	str	r0, [r1]
	mov.w	r0, #4194304
	.loc	1 810 17                        @ ../Core/Src/uiPro.c:810:17
	str	r0, [r1]
	mov.w	r0, #2097152
	.loc	1 811 17                        @ ../Core/Src/uiPro.c:811:17
	str	r0, [r1]
	mov.w	r0, #1048576
	.loc	1 812 17                        @ ../Core/Src/uiPro.c:812:17
	str	r0, [r1]
	mov.w	r0, #8388608
	.loc	1 813 17                        @ ../Core/Src/uiPro.c:813:17
	str	r0, [r1]
	mov.w	r0, #16777216
	.loc	1 814 17                        @ ../Core/Src/uiPro.c:814:17
	str	r0, [r1]
	mov.w	r0, #33554432
	.loc	1 815 17                        @ ../Core/Src/uiPro.c:815:17
	str	r0, [r1]
	movs	r0, #0
	str	r0, [sp, #116]                  @ 4-byte Spill
	mov.w	r1, #1000
	.loc	1 816 17                        @ ../Core/Src/uiPro.c:816:17
	str	r1, [sp, #112]                  @ 4-byte Spill
	bl	SetAutoDetecMultimeter
	ldr	r2, [sp, #112]                  @ 4-byte Reload
                                        @ kill: def $r1 killed $r0
	.loc	1 817 17                        @ ../Core/Src/uiPro.c:817:17
	ldr	r0, [sp, #116]                  @ 4-byte Reload
	movs	r1, #1
	bl	SetPowerOut
	movs	r0, #50
	.loc	1 818 5                         @ ../Core/Src/uiPro.c:818:5
	bl	My_Delay
                                        @ kill: def $r1 killed $r0
	.loc	1 820 5                         @ ../Core/Src/uiPro.c:820:5
	ldr	r0, [sp, #116]                  @ 4-byte Reload
	ldr	r1, [sp, #200]
	movw	r2, #11376
	.loc	1 820 37 is_stmt 0              @ ../Core/Src/uiPro.c:820:37
	strb	r0, [r1, r2]
	.loc	1 822 13 is_stmt 1              @ ../Core/Src/uiPro.c:822:13
	b.w	.LBB3_215
.Ltmp244:
.LBB3_96:
	.loc	1 823 21                        @ ../Core/Src/uiPro.c:823:21
	movw	r0, :lower16:PageKeyVoltage_T.SmallStep
	movt	r0, :upper16:PageKeyVoltage_T.SmallStep
	ldrb	r0, [r0]
.Ltmp245:
	.loc	1 823 21 is_stmt 0              @ ../Core/Src/uiPro.c:823:21
	cmp	r0, #2
	bne.w	.LBB3_108
	b	.LBB3_97
.LBB3_97:
.Ltmp246:
	.loc	1 825 29 is_stmt 1              @ ../Core/Src/uiPro.c:825:29
	movw	r0, :lower16:PageKeyVoltage_T.SequenceStrBuf
	movt	r0, :upper16:PageKeyVoltage_T.SequenceStrBuf
	ldr	r0, [r0]
	ldrb	r0, [r0, #1]
	.loc	1 825 27 is_stmt 0              @ ../Core/Src/uiPro.c:825:27
	movw	r1, :lower16:PageKeyVoltage_T.SmallStep
	movt	r1, :upper16:PageKeyVoltage_T.SmallStep
	strb	r0, [r1]
	movw	r1, #3096
	movt	r1, #16386
	mov.w	r0, #2048
	.loc	1 826 17 is_stmt 1              @ ../Core/Src/uiPro.c:826:17
	str	r0, [r1]
	movw	r1, #6168
	movt	r1, #16386
	mov.w	r0, #524288
	.loc	1 827 17                        @ ../Core/Src/uiPro.c:827:17
	str	r0, [r1]
	mov.w	r0, #4194304
	.loc	1 828 17                        @ ../Core/Src/uiPro.c:828:17
	str	r0, [r1]
	mov.w	r0, #2097152
	.loc	1 829 17                        @ ../Core/Src/uiPro.c:829:17
	str	r0, [r1]
	mov.w	r0, #1048576
	.loc	1 830 17                        @ ../Core/Src/uiPro.c:830:17
	str	r0, [r1]
	mov.w	r0, #8388608
	.loc	1 831 17                        @ ../Core/Src/uiPro.c:831:17
	str	r0, [r1]
	mov.w	r0, #16777216
	.loc	1 832 17                        @ ../Core/Src/uiPro.c:832:17
	str	r0, [r1]
	mov.w	r0, #33554432
	.loc	1 833 17                        @ ../Core/Src/uiPro.c:833:17
	str	r0, [r1]
	movs	r0, #80
	.loc	1 834 5                         @ ../Core/Src/uiPro.c:834:5
	bl	My_Delay
	movs	r0, #1
	mov.w	r1, #2000
	.loc	1 835 17                        @ ../Core/Src/uiPro.c:835:17
	bl	GetMultimeter
	.loc	1 836 50                        @ ../Core/Src/uiPro.c:836:50
	ldr	r1, [sp, #200]
	mov.w	r0, #17408
	ldr	r0, [r1, r0]
	.loc	1 836 48 is_stmt 0              @ ../Core/Src/uiPro.c:836:48
	str	r0, [r1, #16]
	.loc	1 837 56 is_stmt 1              @ ../Core/Src/uiPro.c:837:56
	ldr	r0, [sp, #200]
	ldr	r0, [r0, #16]
	bl	__aeabi_f2d
	vmov	d0, r0, r1
	.loc	1 837 17 is_stmt 0              @ ../Core/Src/uiPro.c:837:17
	movw	r0, :lower16:.L.str.80
	movt	r0, :upper16:.L.str.80
	mov	r1, sp
	str	r0, [r1]
	vmov	r2, r3, d0
	movw	r1, :lower16:.L.str.27
	movt	r1, :upper16:.L.str.27
	add.w	r0, sp, #146
	bl	sprintf
.Ltmp247:
	.loc	1 839 21 is_stmt 1              @ ../Core/Src/uiPro.c:839:21
	ldr	r0, [sp, #200]
	.loc	1 839 37 is_stmt 0              @ ../Core/Src/uiPro.c:839:37
	vldr	s0, [r0, #16]
	.loc	1 839 71                        @ ../Core/Src/uiPro.c:839:71
	vldr	s2, [r0, #48]
	.loc	1 840 25 is_stmt 1              @ ../Core/Src/uiPro.c:840:25
	vcmp.f32	s0, s2
	vmrs	APSR_nzcv, fpscr
	blt	.LBB3_104
	b	.LBB3_98
.LBB3_98:
	.loc	1 840 28 is_stmt 0              @ ../Core/Src/uiPro.c:840:28
	ldr	r0, [sp, #200]
	.loc	1 840 44                        @ ../Core/Src/uiPro.c:840:44
	vldr	s0, [r0, #16]
	.loc	1 840 78                        @ ../Core/Src/uiPro.c:840:78
	vldr	s2, [r0, #80]
.Ltmp248:
	.loc	1 839 21 is_stmt 1              @ ../Core/Src/uiPro.c:839:21
	vcmp.f32	s0, s2
	vmrs	APSR_nzcv, fpscr
	bgt	.LBB3_104
	b	.LBB3_99
.LBB3_99:
.Ltmp249:
	.loc	1 842 23                        @ ../Core/Src/uiPro.c:842:23
	ldr	r2, [sp, #200]
	movw	r3, #11376
	.loc	1 842 86 is_stmt 0              @ ../Core/Src/uiPro.c:842:86
	ldrb	r1, [r2, r3]
	movs	r0, #200
	.loc	1 842 39                        @ ../Core/Src/uiPro.c:842:39
	smlabb	r0, r1, r0, r2
	.loc	1 842 86                        @ ../Core/Src/uiPro.c:842:86
	adds	r1, #1
	strb	r1, [r2, r3]
	.loc	1 842 23                        @ ../Core/Src/uiPro.c:842:23
	add.w	r0, r0, #1376
	.loc	1 842 6                         @ ../Core/Src/uiPro.c:842:6
	movw	r1, :lower16:.L.str.81
	movt	r1, :upper16:.L.str.81
	movw	r2, :lower16:.L.str.82
	movt	r2, :upper16:.L.str.82
	movs	r3, #0
	bl	StringChangeLine
	.loc	1 843 63 is_stmt 1              @ ../Core/Src/uiPro.c:843:63
	movw	r0, :lower16:SetStateStr
	movt	r0, :upper16:SetStateStr
	ldrb	r2, [r0]
	.loc	1 843 60 is_stmt 0              @ ../Core/Src/uiPro.c:843:60
	movw	r1, :lower16:comVariableBlock
	movt	r1, :upper16:comVariableBlock
	ldrb	r0, [r1, #7]
	orrs	r0, r2
	strb	r0, [r1, #7]
.Ltmp250:
	.loc	1 845 25 is_stmt 1              @ ../Core/Src/uiPro.c:845:25
	ldr	r0, [sp, #196]
	.loc	1 845 24 is_stmt 0              @ ../Core/Src/uiPro.c:845:24
	ldrb	r0, [r0]
.Ltmp251:
	.loc	1 845 24                        @ ../Core/Src/uiPro.c:845:24
	cmp	r0, #2
	bne	.LBB3_103
	b	.LBB3_100
.LBB3_100:
	.loc	1 0 24                          @ ../Core/Src/uiPro.c:0:24
	add.w	r0, sp, #146
	movs	r1, #1
	movs	r2, #0
	mov.w	r3, #1000
.Ltmp252:
	.loc	1 847 11 is_stmt 1              @ ../Core/Src/uiPro.c:847:11
	bl	OutWindowsTxt2
	.loc	1 847 10 is_stmt 0              @ ../Core/Src/uiPro.c:847:10
	ldrb	r0, [r0]
.Ltmp253:
	.loc	1 847 10                        @ ../Core/Src/uiPro.c:847:10
	cbz	r0, .LBB3_102
	b	.LBB3_101
.LBB3_101:
	.loc	1 0 10                          @ ../Core/Src/uiPro.c:0:10
	movs	r0, #3
	mov.w	r1, #1000
.Ltmp254:
	.loc	1 849 8 is_stmt 1               @ ../Core/Src/uiPro.c:849:8
	bl	MeasurResultTransmit
	.loc	1 850 9                         @ ../Core/Src/uiPro.c:850:9
	ldr	r1, [sp, #196]
	movs	r0, #0
	.loc	1 850 25 is_stmt 0              @ ../Core/Src/uiPro.c:850:25
	strb	r0, [r1]
	.loc	1 851 18 is_stmt 1              @ ../Core/Src/uiPro.c:851:18
	movw	r0, :lower16:PageKeyVoltage_T.Result
	movt	r0, :upper16:PageKeyVoltage_T.Result
	movs	r1, #1
	strb	r1, [r0, #1]
	.loc	1 852 18                        @ ../Core/Src/uiPro.c:852:18
	strb	r1, [r0]
	.loc	1 853 8                         @ ../Core/Src/uiPro.c:853:8
	str	r0, [sp, #204]
	b.w	.LBB3_217
.Ltmp255:
.LBB3_102:
	.loc	1 855 6                         @ ../Core/Src/uiPro.c:855:6
	b	.LBB3_103
.Ltmp256:
.LBB3_103:
	.loc	1 856 17                        @ ../Core/Src/uiPro.c:856:17
	b	.LBB3_107
.Ltmp257:
.LBB3_104:
	.loc	1 860 23                        @ ../Core/Src/uiPro.c:860:23
	ldr	r2, [sp, #200]
	movw	r3, #11376
	.loc	1 860 86 is_stmt 0              @ ../Core/Src/uiPro.c:860:86
	ldrb	r1, [r2, r3]
	movs	r0, #200
	.loc	1 860 39                        @ ../Core/Src/uiPro.c:860:39
	smlabb	r0, r1, r0, r2
	.loc	1 860 86                        @ ../Core/Src/uiPro.c:860:86
	adds	r1, #1
	strb	r1, [r2, r3]
	.loc	1 860 23                        @ ../Core/Src/uiPro.c:860:23
	add.w	r0, r0, #1376
	.loc	1 860 6                         @ ../Core/Src/uiPro.c:860:6
	movw	r1, :lower16:.L.str.81
	movt	r1, :upper16:.L.str.81
	movw	r2, :lower16:.L.str.33
	movt	r2, :upper16:.L.str.33
	movs	r3, #0
	bl	StringChangeLine
	.loc	1 861 63 is_stmt 1              @ ../Core/Src/uiPro.c:861:63
	movw	r0, :lower16:ResetStateStr
	movt	r0, :upper16:ResetStateStr
	ldrb	r2, [r0]
	.loc	1 861 60 is_stmt 0              @ ../Core/Src/uiPro.c:861:60
	movw	r1, :lower16:comVariableBlock
	movt	r1, :upper16:comVariableBlock
	ldrb	r0, [r1, #7]
	ands	r0, r2
	strb	r0, [r1, #7]
.Ltmp258:
	.loc	1 863 25 is_stmt 1              @ ../Core/Src/uiPro.c:863:25
	ldr	r0, [sp, #196]
	.loc	1 863 24 is_stmt 0              @ ../Core/Src/uiPro.c:863:24
	ldrb	r0, [r0]
.Ltmp259:
	.loc	1 863 24                        @ ../Core/Src/uiPro.c:863:24
	cmp	r0, #2
	bne	.LBB3_106
	b	.LBB3_105
.LBB3_105:
	.loc	1 0 24                          @ ../Core/Src/uiPro.c:0:24
	add.w	r0, sp, #146
	movs	r2, #0
	str	r2, [sp, #104]                  @ 4-byte Spill
	mov.w	r3, #1000
.Ltmp260:
	.loc	1 865 7 is_stmt 1               @ ../Core/Src/uiPro.c:865:7
	str	r3, [sp, #100]                  @ 4-byte Spill
	mov	r1, r2
	bl	OutWindowsTxt2
	ldr	r1, [sp, #100]                  @ 4-byte Reload
                                        @ kill: def $r2 killed $r0
	.loc	1 866 26                        @ ../Core/Src/uiPro.c:866:26
	ldr	r0, [sp, #104]                  @ 4-byte Reload
	ldr	r2, [sp, #196]
	.loc	1 866 42 is_stmt 0              @ ../Core/Src/uiPro.c:866:42
	strb	r0, [r2]
	movs	r0, #2
	.loc	1 867 25 is_stmt 1              @ ../Core/Src/uiPro.c:867:25
	bl	MeasurResultTransmit
	.loc	1 868 35                        @ ../Core/Src/uiPro.c:868:35
	movw	r0, :lower16:PageKeyVoltage_T.Result
	movt	r0, :upper16:PageKeyVoltage_T.Result
	movs	r1, #1
	strb	r1, [r0, #1]
	.loc	1 869 35                        @ ../Core/Src/uiPro.c:869:35
	strb	r1, [r0]
	.loc	1 870 25                        @ ../Core/Src/uiPro.c:870:25
	str	r0, [sp, #204]
	b.w	.LBB3_217
.Ltmp261:
.LBB3_106:
	.loc	1 0 25 is_stmt 0                @ ../Core/Src/uiPro.c:0:25
	b	.LBB3_107
.LBB3_107:
	.loc	1 875 13 is_stmt 1              @ ../Core/Src/uiPro.c:875:13
	b.w	.LBB3_214
.Ltmp262:
.LBB3_108:
	.loc	1 876 21                        @ ../Core/Src/uiPro.c:876:21
	movw	r0, :lower16:PageKeyVoltage_T.SmallStep
	movt	r0, :upper16:PageKeyVoltage_T.SmallStep
	ldrb	r0, [r0]
.Ltmp263:
	.loc	1 876 21 is_stmt 0              @ ../Core/Src/uiPro.c:876:21
	cmp	r0, #3
	bne.w	.LBB3_120
	b	.LBB3_109
.LBB3_109:
.Ltmp264:
	.loc	1 878 29 is_stmt 1              @ ../Core/Src/uiPro.c:878:29
	movw	r0, :lower16:PageKeyVoltage_T.SequenceStrBuf
	movt	r0, :upper16:PageKeyVoltage_T.SequenceStrBuf
	ldr	r0, [r0]
	ldrb	r0, [r0, #2]
	.loc	1 878 27 is_stmt 0              @ ../Core/Src/uiPro.c:878:27
	movw	r1, :lower16:PageKeyVoltage_T.SmallStep
	movt	r1, :upper16:PageKeyVoltage_T.SmallStep
	strb	r0, [r1]
	movw	r1, #3096
	movt	r1, #16386
	mov.w	r0, #134217728
	.loc	1 879 17 is_stmt 1              @ ../Core/Src/uiPro.c:879:17
	str	r0, [r1]
	movw	r1, #6168
	movt	r1, #16386
	movs	r0, #8
	.loc	1 880 17                        @ ../Core/Src/uiPro.c:880:17
	str	r0, [r1]
	mov.w	r0, #4194304
	.loc	1 881 17                        @ ../Core/Src/uiPro.c:881:17
	str	r0, [r1]
	mov.w	r0, #2097152
	.loc	1 882 17                        @ ../Core/Src/uiPro.c:882:17
	str	r0, [r1]
	mov.w	r0, #1048576
	.loc	1 883 17                        @ ../Core/Src/uiPro.c:883:17
	str	r0, [r1]
	mov.w	r0, #8388608
	.loc	1 884 17                        @ ../Core/Src/uiPro.c:884:17
	str	r0, [r1]
	mov.w	r0, #16777216
	.loc	1 885 17                        @ ../Core/Src/uiPro.c:885:17
	str	r0, [r1]
	mov.w	r0, #33554432
	.loc	1 886 17                        @ ../Core/Src/uiPro.c:886:17
	str	r0, [r1]
	movs	r0, #80
	.loc	1 887 17                        @ ../Core/Src/uiPro.c:887:17
	bl	My_Delay
	movs	r0, #1
	mov.w	r1, #2000
	.loc	1 888 17                        @ ../Core/Src/uiPro.c:888:17
	bl	GetMultimeter
	.loc	1 889 50                        @ ../Core/Src/uiPro.c:889:50
	ldr	r1, [sp, #200]
	mov.w	r0, #17408
	ldr	r0, [r1, r0]
	.loc	1 889 48 is_stmt 0              @ ../Core/Src/uiPro.c:889:48
	str	r0, [r1, #20]
	.loc	1 890 56 is_stmt 1              @ ../Core/Src/uiPro.c:890:56
	ldr	r0, [sp, #200]
	ldr	r0, [r0, #20]
	bl	__aeabi_f2d
	vmov	d0, r0, r1
	.loc	1 890 17 is_stmt 0              @ ../Core/Src/uiPro.c:890:17
	movw	r0, :lower16:.L.str.80
	movt	r0, :upper16:.L.str.80
	mov	r1, sp
	str	r0, [r1]
	vmov	r2, r3, d0
	movw	r1, :lower16:.L.str.27
	movt	r1, :upper16:.L.str.27
	add.w	r0, sp, #146
	bl	sprintf
.Ltmp265:
	.loc	1 892 21 is_stmt 1              @ ../Core/Src/uiPro.c:892:21
	ldr	r0, [sp, #200]
	.loc	1 892 37 is_stmt 0              @ ../Core/Src/uiPro.c:892:37
	vldr	s0, [r0, #20]
	.loc	1 892 71                        @ ../Core/Src/uiPro.c:892:71
	vldr	s2, [r0, #52]
	.loc	1 893 25 is_stmt 1              @ ../Core/Src/uiPro.c:893:25
	vcmp.f32	s0, s2
	vmrs	APSR_nzcv, fpscr
	blt	.LBB3_116
	b	.LBB3_110
.LBB3_110:
	.loc	1 893 28 is_stmt 0              @ ../Core/Src/uiPro.c:893:28
	ldr	r0, [sp, #200]
	.loc	1 893 44                        @ ../Core/Src/uiPro.c:893:44
	vldr	s0, [r0, #20]
	.loc	1 893 78                        @ ../Core/Src/uiPro.c:893:78
	vldr	s2, [r0, #84]
.Ltmp266:
	.loc	1 892 21 is_stmt 1              @ ../Core/Src/uiPro.c:892:21
	vcmp.f32	s0, s2
	vmrs	APSR_nzcv, fpscr
	bgt	.LBB3_116
	b	.LBB3_111
.LBB3_111:
.Ltmp267:
	.loc	1 895 23                        @ ../Core/Src/uiPro.c:895:23
	ldr	r2, [sp, #200]
	movw	r3, #11376
	.loc	1 895 86 is_stmt 0              @ ../Core/Src/uiPro.c:895:86
	ldrb	r1, [r2, r3]
	movs	r0, #200
	.loc	1 895 39                        @ ../Core/Src/uiPro.c:895:39
	smlabb	r0, r1, r0, r2
	.loc	1 895 86                        @ ../Core/Src/uiPro.c:895:86
	adds	r1, #1
	strb	r1, [r2, r3]
	.loc	1 895 23                        @ ../Core/Src/uiPro.c:895:23
	add.w	r0, r0, #1376
	.loc	1 895 6                         @ ../Core/Src/uiPro.c:895:6
	movw	r1, :lower16:.L.str.83
	movt	r1, :upper16:.L.str.83
	movw	r2, :lower16:.L.str.82
	movt	r2, :upper16:.L.str.82
	movs	r3, #0
	bl	StringChangeLine
	.loc	1 896 63 is_stmt 1              @ ../Core/Src/uiPro.c:896:63
	movw	r0, :lower16:SetStateStr
	movt	r0, :upper16:SetStateStr
	ldrb	r2, [r0, #1]
	.loc	1 896 60 is_stmt 0              @ ../Core/Src/uiPro.c:896:60
	movw	r1, :lower16:comVariableBlock
	movt	r1, :upper16:comVariableBlock
	ldrb	r0, [r1, #7]
	orrs	r0, r2
	strb	r0, [r1, #7]
.Ltmp268:
	.loc	1 898 11 is_stmt 1              @ ../Core/Src/uiPro.c:898:11
	ldr	r0, [sp, #196]
	.loc	1 898 10 is_stmt 0              @ ../Core/Src/uiPro.c:898:10
	ldrb	r0, [r0]
.Ltmp269:
	.loc	1 898 10                        @ ../Core/Src/uiPro.c:898:10
	cmp	r0, #2
	bne	.LBB3_115
	b	.LBB3_112
.LBB3_112:
	.loc	1 0 10                          @ ../Core/Src/uiPro.c:0:10
	add.w	r0, sp, #146
	movs	r1, #1
	movs	r2, #0
	mov.w	r3, #1000
.Ltmp270:
	.loc	1 900 11 is_stmt 1              @ ../Core/Src/uiPro.c:900:11
	bl	OutWindowsTxt2
	.loc	1 900 10 is_stmt 0              @ ../Core/Src/uiPro.c:900:10
	ldrb	r0, [r0]
.Ltmp271:
	.loc	1 900 10                        @ ../Core/Src/uiPro.c:900:10
	cbz	r0, .LBB3_114
	b	.LBB3_113
.LBB3_113:
	.loc	1 0 10                          @ ../Core/Src/uiPro.c:0:10
	movs	r0, #3
	mov.w	r1, #1000
.Ltmp272:
	.loc	1 902 8 is_stmt 1               @ ../Core/Src/uiPro.c:902:8
	bl	MeasurResultTransmit
	.loc	1 903 9                         @ ../Core/Src/uiPro.c:903:9
	ldr	r1, [sp, #196]
	movs	r0, #0
	.loc	1 903 25 is_stmt 0              @ ../Core/Src/uiPro.c:903:25
	strb	r0, [r1]
	.loc	1 904 18 is_stmt 1              @ ../Core/Src/uiPro.c:904:18
	movw	r0, :lower16:PageKeyVoltage_T.Result
	movt	r0, :upper16:PageKeyVoltage_T.Result
	movs	r1, #1
	strb	r1, [r0, #1]
	.loc	1 905 18                        @ ../Core/Src/uiPro.c:905:18
	strb	r1, [r0]
	.loc	1 906 8                         @ ../Core/Src/uiPro.c:906:8
	str	r0, [sp, #204]
	b.w	.LBB3_217
.Ltmp273:
.LBB3_114:
	.loc	1 908 6                         @ ../Core/Src/uiPro.c:908:6
	b	.LBB3_115
.Ltmp274:
.LBB3_115:
	.loc	1 909 17                        @ ../Core/Src/uiPro.c:909:17
	b	.LBB3_119
.Ltmp275:
.LBB3_116:
	.loc	1 914 23                        @ ../Core/Src/uiPro.c:914:23
	ldr	r2, [sp, #200]
	movw	r3, #11376
	.loc	1 914 86 is_stmt 0              @ ../Core/Src/uiPro.c:914:86
	ldrb	r1, [r2, r3]
	movs	r0, #200
	.loc	1 914 39                        @ ../Core/Src/uiPro.c:914:39
	smlabb	r0, r1, r0, r2
	.loc	1 914 86                        @ ../Core/Src/uiPro.c:914:86
	adds	r1, #1
	strb	r1, [r2, r3]
	.loc	1 914 23                        @ ../Core/Src/uiPro.c:914:23
	add.w	r0, r0, #1376
	.loc	1 914 6                         @ ../Core/Src/uiPro.c:914:6
	movw	r1, :lower16:.L.str.83
	movt	r1, :upper16:.L.str.83
	movw	r2, :lower16:.L.str.33
	movt	r2, :upper16:.L.str.33
	movs	r3, #0
	bl	StringChangeLine
	.loc	1 915 63 is_stmt 1              @ ../Core/Src/uiPro.c:915:63
	movw	r0, :lower16:ResetStateStr
	movt	r0, :upper16:ResetStateStr
	ldrb	r2, [r0, #1]
	.loc	1 915 60 is_stmt 0              @ ../Core/Src/uiPro.c:915:60
	movw	r1, :lower16:comVariableBlock
	movt	r1, :upper16:comVariableBlock
	ldrb	r0, [r1, #7]
	ands	r0, r2
	strb	r0, [r1, #7]
.Ltmp276:
	.loc	1 917 25 is_stmt 1              @ ../Core/Src/uiPro.c:917:25
	ldr	r0, [sp, #196]
	.loc	1 917 24 is_stmt 0              @ ../Core/Src/uiPro.c:917:24
	ldrb	r0, [r0]
.Ltmp277:
	.loc	1 917 24                        @ ../Core/Src/uiPro.c:917:24
	cmp	r0, #2
	bne	.LBB3_118
	b	.LBB3_117
.LBB3_117:
	.loc	1 0 24                          @ ../Core/Src/uiPro.c:0:24
	add.w	r0, sp, #146
	movs	r2, #0
	str	r2, [sp, #96]                   @ 4-byte Spill
	mov.w	r3, #1000
.Ltmp278:
	.loc	1 919 7 is_stmt 1               @ ../Core/Src/uiPro.c:919:7
	str	r3, [sp, #92]                   @ 4-byte Spill
	mov	r1, r2
	bl	OutWindowsTxt2
	ldr	r1, [sp, #92]                   @ 4-byte Reload
                                        @ kill: def $r2 killed $r0
	.loc	1 920 26                        @ ../Core/Src/uiPro.c:920:26
	ldr	r0, [sp, #96]                   @ 4-byte Reload
	ldr	r2, [sp, #196]
	.loc	1 920 42 is_stmt 0              @ ../Core/Src/uiPro.c:920:42
	strb	r0, [r2]
	movs	r0, #2
	.loc	1 921 25 is_stmt 1              @ ../Core/Src/uiPro.c:921:25
	bl	MeasurResultTransmit
	.loc	1 922 35                        @ ../Core/Src/uiPro.c:922:35
	movw	r0, :lower16:PageKeyVoltage_T.Result
	movt	r0, :upper16:PageKeyVoltage_T.Result
	movs	r1, #1
	strb	r1, [r0, #1]
	.loc	1 923 35                        @ ../Core/Src/uiPro.c:923:35
	strb	r1, [r0]
	.loc	1 924 25                        @ ../Core/Src/uiPro.c:924:25
	str	r0, [sp, #204]
	b.w	.LBB3_217
.Ltmp279:
.LBB3_118:
	.loc	1 0 25 is_stmt 0                @ ../Core/Src/uiPro.c:0:25
	b	.LBB3_119
.LBB3_119:
	.loc	1 931 13 is_stmt 1              @ ../Core/Src/uiPro.c:931:13
	b.w	.LBB3_213
.Ltmp280:
.LBB3_120:
	.loc	1 932 21                        @ ../Core/Src/uiPro.c:932:21
	movw	r0, :lower16:PageKeyVoltage_T.SmallStep
	movt	r0, :upper16:PageKeyVoltage_T.SmallStep
	ldrb	r0, [r0]
.Ltmp281:
	.loc	1 932 21 is_stmt 0              @ ../Core/Src/uiPro.c:932:21
	cmp	r0, #4
	bne.w	.LBB3_132
	b	.LBB3_121
.LBB3_121:
.Ltmp282:
	.loc	1 934 29 is_stmt 1              @ ../Core/Src/uiPro.c:934:29
	movw	r0, :lower16:PageKeyVoltage_T.SequenceStrBuf
	movt	r0, :upper16:PageKeyVoltage_T.SequenceStrBuf
	ldr	r0, [r0]
	ldrb	r0, [r0, #3]
	.loc	1 934 27 is_stmt 0              @ ../Core/Src/uiPro.c:934:27
	movw	r1, :lower16:PageKeyVoltage_T.SmallStep
	movt	r1, :upper16:PageKeyVoltage_T.SmallStep
	strb	r0, [r1]
	movw	r1, #3096
	movt	r1, #16386
	mov.w	r0, #134217728
	.loc	1 935 17 is_stmt 1              @ ../Core/Src/uiPro.c:935:17
	str	r0, [r1]
	movw	r1, #6168
	movt	r1, #16386
	mov.w	r0, #524288
	.loc	1 936 17                        @ ../Core/Src/uiPro.c:936:17
	str	r0, [r1]
	movs	r0, #64
	.loc	1 937 17                        @ ../Core/Src/uiPro.c:937:17
	str	r0, [r1]
	mov.w	r0, #2097152
	.loc	1 938 17                        @ ../Core/Src/uiPro.c:938:17
	str	r0, [r1]
	mov.w	r0, #1048576
	.loc	1 939 17                        @ ../Core/Src/uiPro.c:939:17
	str	r0, [r1]
	mov.w	r0, #8388608
	.loc	1 940 17                        @ ../Core/Src/uiPro.c:940:17
	str	r0, [r1]
	mov.w	r0, #16777216
	.loc	1 941 17                        @ ../Core/Src/uiPro.c:941:17
	str	r0, [r1]
	mov.w	r0, #33554432
	.loc	1 942 17                        @ ../Core/Src/uiPro.c:942:17
	str	r0, [r1]
	movs	r0, #80
	.loc	1 943 17                        @ ../Core/Src/uiPro.c:943:17
	bl	My_Delay
	movs	r0, #1
	mov.w	r1, #2000
	.loc	1 944 17                        @ ../Core/Src/uiPro.c:944:17
	bl	GetMultimeter
	.loc	1 945 50                        @ ../Core/Src/uiPro.c:945:50
	ldr	r1, [sp, #200]
	mov.w	r0, #17408
	ldr	r0, [r1, r0]
	.loc	1 945 48 is_stmt 0              @ ../Core/Src/uiPro.c:945:48
	str	r0, [r1, #24]
	.loc	1 946 56 is_stmt 1              @ ../Core/Src/uiPro.c:946:56
	ldr	r0, [sp, #200]
	ldr	r0, [r0, #24]
	bl	__aeabi_f2d
	vmov	d0, r0, r1
	.loc	1 946 17 is_stmt 0              @ ../Core/Src/uiPro.c:946:17
	movw	r0, :lower16:.L.str.80
	movt	r0, :upper16:.L.str.80
	mov	r1, sp
	str	r0, [r1]
	vmov	r2, r3, d0
	movw	r1, :lower16:.L.str.27
	movt	r1, :upper16:.L.str.27
	add.w	r0, sp, #146
	bl	sprintf
.Ltmp283:
	.loc	1 948 21 is_stmt 1              @ ../Core/Src/uiPro.c:948:21
	ldr	r0, [sp, #200]
	.loc	1 948 37 is_stmt 0              @ ../Core/Src/uiPro.c:948:37
	vldr	s0, [r0, #24]
	.loc	1 948 71                        @ ../Core/Src/uiPro.c:948:71
	vldr	s2, [r0, #56]
	.loc	1 949 25 is_stmt 1              @ ../Core/Src/uiPro.c:949:25
	vcmp.f32	s0, s2
	vmrs	APSR_nzcv, fpscr
	blt	.LBB3_128
	b	.LBB3_122
.LBB3_122:
	.loc	1 949 28 is_stmt 0              @ ../Core/Src/uiPro.c:949:28
	ldr	r0, [sp, #200]
	.loc	1 949 44                        @ ../Core/Src/uiPro.c:949:44
	vldr	s0, [r0, #24]
	.loc	1 949 78                        @ ../Core/Src/uiPro.c:949:78
	vldr	s2, [r0, #88]
.Ltmp284:
	.loc	1 948 21 is_stmt 1              @ ../Core/Src/uiPro.c:948:21
	vcmp.f32	s0, s2
	vmrs	APSR_nzcv, fpscr
	bgt	.LBB3_128
	b	.LBB3_123
.LBB3_123:
.Ltmp285:
	.loc	1 951 23                        @ ../Core/Src/uiPro.c:951:23
	ldr	r2, [sp, #200]
	movw	r3, #11376
	.loc	1 951 86 is_stmt 0              @ ../Core/Src/uiPro.c:951:86
	ldrb	r1, [r2, r3]
	movs	r0, #200
	.loc	1 951 39                        @ ../Core/Src/uiPro.c:951:39
	smlabb	r0, r1, r0, r2
	.loc	1 951 86                        @ ../Core/Src/uiPro.c:951:86
	adds	r1, #1
	strb	r1, [r2, r3]
	.loc	1 951 23                        @ ../Core/Src/uiPro.c:951:23
	add.w	r0, r0, #1376
	.loc	1 951 6                         @ ../Core/Src/uiPro.c:951:6
	movw	r1, :lower16:.L.str.84
	movt	r1, :upper16:.L.str.84
	movw	r2, :lower16:.L.str.82
	movt	r2, :upper16:.L.str.82
	movs	r3, #0
	bl	StringChangeLine
	.loc	1 952 63 is_stmt 1              @ ../Core/Src/uiPro.c:952:63
	movw	r0, :lower16:SetStateStr
	movt	r0, :upper16:SetStateStr
	ldrb	r2, [r0, #2]
	.loc	1 952 60 is_stmt 0              @ ../Core/Src/uiPro.c:952:60
	movw	r1, :lower16:comVariableBlock
	movt	r1, :upper16:comVariableBlock
	ldrb	r0, [r1, #7]
	orrs	r0, r2
	strb	r0, [r1, #7]
.Ltmp286:
	.loc	1 953 10 is_stmt 1              @ ../Core/Src/uiPro.c:953:10
	ldr	r0, [sp, #196]
	.loc	1 953 9 is_stmt 0               @ ../Core/Src/uiPro.c:953:9
	ldrb	r0, [r0]
.Ltmp287:
	.loc	1 953 9                         @ ../Core/Src/uiPro.c:953:9
	cmp	r0, #2
	bne	.LBB3_127
	b	.LBB3_124
.LBB3_124:
	.loc	1 0 9                           @ ../Core/Src/uiPro.c:0:9
	add.w	r0, sp, #146
	movs	r1, #1
	movs	r2, #0
	mov.w	r3, #1000
.Ltmp288:
	.loc	1 955 11 is_stmt 1              @ ../Core/Src/uiPro.c:955:11
	bl	OutWindowsTxt2
	.loc	1 955 10 is_stmt 0              @ ../Core/Src/uiPro.c:955:10
	ldrb	r0, [r0]
.Ltmp289:
	.loc	1 955 10                        @ ../Core/Src/uiPro.c:955:10
	cbz	r0, .LBB3_126
	b	.LBB3_125
.LBB3_125:
	.loc	1 0 10                          @ ../Core/Src/uiPro.c:0:10
	movs	r0, #3
	mov.w	r1, #1000
.Ltmp290:
	.loc	1 957 8 is_stmt 1               @ ../Core/Src/uiPro.c:957:8
	bl	MeasurResultTransmit
	.loc	1 958 9                         @ ../Core/Src/uiPro.c:958:9
	ldr	r1, [sp, #196]
	movs	r0, #0
	.loc	1 958 25 is_stmt 0              @ ../Core/Src/uiPro.c:958:25
	strb	r0, [r1]
	.loc	1 959 18 is_stmt 1              @ ../Core/Src/uiPro.c:959:18
	movw	r0, :lower16:PageKeyVoltage_T.Result
	movt	r0, :upper16:PageKeyVoltage_T.Result
	movs	r1, #1
	strb	r1, [r0, #1]
	.loc	1 960 18                        @ ../Core/Src/uiPro.c:960:18
	strb	r1, [r0]
	.loc	1 961 8                         @ ../Core/Src/uiPro.c:961:8
	str	r0, [sp, #204]
	b.w	.LBB3_217
.Ltmp291:
.LBB3_126:
	.loc	1 963 6                         @ ../Core/Src/uiPro.c:963:6
	b	.LBB3_127
.Ltmp292:
.LBB3_127:
	.loc	1 964 17                        @ ../Core/Src/uiPro.c:964:17
	b	.LBB3_131
.Ltmp293:
.LBB3_128:
	.loc	1 967 23                        @ ../Core/Src/uiPro.c:967:23
	ldr	r2, [sp, #200]
	movw	r3, #11376
	.loc	1 967 86 is_stmt 0              @ ../Core/Src/uiPro.c:967:86
	ldrb	r1, [r2, r3]
	movs	r0, #200
	.loc	1 967 39                        @ ../Core/Src/uiPro.c:967:39
	smlabb	r0, r1, r0, r2
	.loc	1 967 86                        @ ../Core/Src/uiPro.c:967:86
	adds	r1, #1
	strb	r1, [r2, r3]
	.loc	1 967 23                        @ ../Core/Src/uiPro.c:967:23
	add.w	r0, r0, #1376
	.loc	1 967 6                         @ ../Core/Src/uiPro.c:967:6
	movw	r1, :lower16:.L.str.84
	movt	r1, :upper16:.L.str.84
	movw	r2, :lower16:.L.str.33
	movt	r2, :upper16:.L.str.33
	movs	r3, #0
	bl	StringChangeLine
	.loc	1 968 63 is_stmt 1              @ ../Core/Src/uiPro.c:968:63
	movw	r0, :lower16:ResetStateStr
	movt	r0, :upper16:ResetStateStr
	ldrb	r2, [r0, #2]
	.loc	1 968 60 is_stmt 0              @ ../Core/Src/uiPro.c:968:60
	movw	r1, :lower16:comVariableBlock
	movt	r1, :upper16:comVariableBlock
	ldrb	r0, [r1, #7]
	ands	r0, r2
	strb	r0, [r1, #7]
.Ltmp294:
	.loc	1 969 25 is_stmt 1              @ ../Core/Src/uiPro.c:969:25
	ldr	r0, [sp, #196]
	.loc	1 969 24 is_stmt 0              @ ../Core/Src/uiPro.c:969:24
	ldrb	r0, [r0]
.Ltmp295:
	.loc	1 969 24                        @ ../Core/Src/uiPro.c:969:24
	cmp	r0, #2
	bne	.LBB3_130
	b	.LBB3_129
.LBB3_129:
	.loc	1 0 24                          @ ../Core/Src/uiPro.c:0:24
	add.w	r0, sp, #146
	movs	r2, #0
	str	r2, [sp, #88]                   @ 4-byte Spill
	mov.w	r3, #1000
.Ltmp296:
	.loc	1 971 7 is_stmt 1               @ ../Core/Src/uiPro.c:971:7
	str	r3, [sp, #84]                   @ 4-byte Spill
	mov	r1, r2
	bl	OutWindowsTxt2
	ldr	r1, [sp, #84]                   @ 4-byte Reload
                                        @ kill: def $r2 killed $r0
	.loc	1 972 26                        @ ../Core/Src/uiPro.c:972:26
	ldr	r0, [sp, #88]                   @ 4-byte Reload
	ldr	r2, [sp, #196]
	.loc	1 972 42 is_stmt 0              @ ../Core/Src/uiPro.c:972:42
	strb	r0, [r2]
	movs	r0, #2
	.loc	1 973 25 is_stmt 1              @ ../Core/Src/uiPro.c:973:25
	bl	MeasurResultTransmit
	.loc	1 974 35                        @ ../Core/Src/uiPro.c:974:35
	movw	r0, :lower16:PageKeyVoltage_T.Result
	movt	r0, :upper16:PageKeyVoltage_T.Result
	movs	r1, #1
	strb	r1, [r0, #1]
	.loc	1 975 35                        @ ../Core/Src/uiPro.c:975:35
	strb	r1, [r0]
	.loc	1 976 25                        @ ../Core/Src/uiPro.c:976:25
	str	r0, [sp, #204]
	b.w	.LBB3_217
.Ltmp297:
.LBB3_130:
	.loc	1 0 25 is_stmt 0                @ ../Core/Src/uiPro.c:0:25
	b	.LBB3_131
.LBB3_131:
	.loc	1 980 13 is_stmt 1              @ ../Core/Src/uiPro.c:980:13
	b.w	.LBB3_212
.Ltmp298:
.LBB3_132:
	.loc	1 981 21                        @ ../Core/Src/uiPro.c:981:21
	movw	r0, :lower16:PageKeyVoltage_T.SmallStep
	movt	r0, :upper16:PageKeyVoltage_T.SmallStep
	ldrb	r0, [r0]
.Ltmp299:
	.loc	1 981 21 is_stmt 0              @ ../Core/Src/uiPro.c:981:21
	cmp	r0, #5
	bne.w	.LBB3_144
	b	.LBB3_133
.LBB3_133:
.Ltmp300:
	.loc	1 984 29 is_stmt 1              @ ../Core/Src/uiPro.c:984:29
	movw	r0, :lower16:PageKeyVoltage_T.SequenceStrBuf
	movt	r0, :upper16:PageKeyVoltage_T.SequenceStrBuf
	ldr	r0, [r0]
	ldrb	r0, [r0, #4]
	.loc	1 984 27 is_stmt 0              @ ../Core/Src/uiPro.c:984:27
	movw	r1, :lower16:PageKeyVoltage_T.SmallStep
	movt	r1, :upper16:PageKeyVoltage_T.SmallStep
	strb	r0, [r1]
	movw	r1, #3096
	movt	r1, #16386
	mov.w	r0, #134217728
	.loc	1 985 17 is_stmt 1              @ ../Core/Src/uiPro.c:985:17
	str	r0, [r1]
	movw	r1, #6168
	movt	r1, #16386
	mov.w	r0, #524288
	.loc	1 986 17                        @ ../Core/Src/uiPro.c:986:17
	str	r0, [r1]
	mov.w	r0, #4194304
	.loc	1 987 17                        @ ../Core/Src/uiPro.c:987:17
	str	r0, [r1]
	movs	r0, #32
	.loc	1 988 17                        @ ../Core/Src/uiPro.c:988:17
	str	r0, [r1]
	mov.w	r0, #1048576
	.loc	1 989 17                        @ ../Core/Src/uiPro.c:989:17
	str	r0, [r1]
	mov.w	r0, #8388608
	.loc	1 990 17                        @ ../Core/Src/uiPro.c:990:17
	str	r0, [r1]
	mov.w	r0, #16777216
	.loc	1 991 17                        @ ../Core/Src/uiPro.c:991:17
	str	r0, [r1]
	mov.w	r0, #33554432
	.loc	1 992 17                        @ ../Core/Src/uiPro.c:992:17
	str	r0, [r1]
	movs	r0, #80
	.loc	1 993 17                        @ ../Core/Src/uiPro.c:993:17
	bl	My_Delay
	movs	r0, #1
	mov.w	r1, #2000
	.loc	1 994 17                        @ ../Core/Src/uiPro.c:994:17
	bl	GetMultimeter
	.loc	1 995 50                        @ ../Core/Src/uiPro.c:995:50
	ldr	r1, [sp, #200]
	mov.w	r0, #17408
	ldr	r0, [r1, r0]
	.loc	1 995 48 is_stmt 0              @ ../Core/Src/uiPro.c:995:48
	str	r0, [r1, #28]
	.loc	1 996 56 is_stmt 1              @ ../Core/Src/uiPro.c:996:56
	ldr	r0, [sp, #200]
	ldr	r0, [r0, #28]
	bl	__aeabi_f2d
	vmov	d0, r0, r1
	.loc	1 996 17 is_stmt 0              @ ../Core/Src/uiPro.c:996:17
	movw	r0, :lower16:.L.str.80
	movt	r0, :upper16:.L.str.80
	mov	r1, sp
	str	r0, [r1]
	vmov	r2, r3, d0
	movw	r1, :lower16:.L.str.27
	movt	r1, :upper16:.L.str.27
	add.w	r0, sp, #146
	bl	sprintf
.Ltmp301:
	.loc	1 998 21 is_stmt 1              @ ../Core/Src/uiPro.c:998:21
	ldr	r0, [sp, #200]
	.loc	1 998 37 is_stmt 0              @ ../Core/Src/uiPro.c:998:37
	vldr	s0, [r0, #28]
	.loc	1 998 71                        @ ../Core/Src/uiPro.c:998:71
	vldr	s2, [r0, #60]
	.loc	1 999 25 is_stmt 1              @ ../Core/Src/uiPro.c:999:25
	vcmp.f32	s0, s2
	vmrs	APSR_nzcv, fpscr
	blt	.LBB3_140
	b	.LBB3_134
.LBB3_134:
	.loc	1 999 28 is_stmt 0              @ ../Core/Src/uiPro.c:999:28
	ldr	r0, [sp, #200]
	.loc	1 999 44                        @ ../Core/Src/uiPro.c:999:44
	vldr	s0, [r0, #28]
	.loc	1 999 78                        @ ../Core/Src/uiPro.c:999:78
	vldr	s2, [r0, #92]
.Ltmp302:
	.loc	1 998 21 is_stmt 1              @ ../Core/Src/uiPro.c:998:21
	vcmp.f32	s0, s2
	vmrs	APSR_nzcv, fpscr
	bgt	.LBB3_140
	b	.LBB3_135
.LBB3_135:
.Ltmp303:
	.loc	1 1001 23                       @ ../Core/Src/uiPro.c:1001:23
	ldr	r2, [sp, #200]
	movw	r3, #11376
	.loc	1 1001 86 is_stmt 0             @ ../Core/Src/uiPro.c:1001:86
	ldrb	r1, [r2, r3]
	movs	r0, #200
	.loc	1 1001 39                       @ ../Core/Src/uiPro.c:1001:39
	smlabb	r0, r1, r0, r2
	.loc	1 1001 86                       @ ../Core/Src/uiPro.c:1001:86
	adds	r1, #1
	strb	r1, [r2, r3]
	.loc	1 1001 23                       @ ../Core/Src/uiPro.c:1001:23
	add.w	r0, r0, #1376
	.loc	1 1001 6                        @ ../Core/Src/uiPro.c:1001:6
	movw	r1, :lower16:.L.str.85
	movt	r1, :upper16:.L.str.85
	movw	r2, :lower16:.L.str.82
	movt	r2, :upper16:.L.str.82
	movs	r3, #0
	bl	StringChangeLine
	.loc	1 1002 63 is_stmt 1             @ ../Core/Src/uiPro.c:1002:63
	movw	r0, :lower16:SetStateStr
	movt	r0, :upper16:SetStateStr
	ldrb	r2, [r0, #3]
	.loc	1 1002 60 is_stmt 0             @ ../Core/Src/uiPro.c:1002:60
	movw	r1, :lower16:comVariableBlock
	movt	r1, :upper16:comVariableBlock
	ldrb	r0, [r1, #7]
	orrs	r0, r2
	strb	r0, [r1, #7]
.Ltmp304:
	.loc	1 1003 10 is_stmt 1             @ ../Core/Src/uiPro.c:1003:10
	ldr	r0, [sp, #196]
	.loc	1 1003 9 is_stmt 0              @ ../Core/Src/uiPro.c:1003:9
	ldrb	r0, [r0]
.Ltmp305:
	.loc	1 1003 9                        @ ../Core/Src/uiPro.c:1003:9
	cmp	r0, #2
	bne	.LBB3_139
	b	.LBB3_136
.LBB3_136:
	.loc	1 0 9                           @ ../Core/Src/uiPro.c:0:9
	add.w	r0, sp, #146
	movs	r1, #1
	movs	r2, #0
	mov.w	r3, #1000
.Ltmp306:
	.loc	1 1005 11 is_stmt 1             @ ../Core/Src/uiPro.c:1005:11
	bl	OutWindowsTxt2
	.loc	1 1005 10 is_stmt 0             @ ../Core/Src/uiPro.c:1005:10
	ldrb	r0, [r0]
.Ltmp307:
	.loc	1 1005 10                       @ ../Core/Src/uiPro.c:1005:10
	cbz	r0, .LBB3_138
	b	.LBB3_137
.LBB3_137:
	.loc	1 0 10                          @ ../Core/Src/uiPro.c:0:10
	movs	r0, #3
	mov.w	r1, #1000
.Ltmp308:
	.loc	1 1007 8 is_stmt 1              @ ../Core/Src/uiPro.c:1007:8
	bl	MeasurResultTransmit
	.loc	1 1008 9                        @ ../Core/Src/uiPro.c:1008:9
	ldr	r1, [sp, #196]
	movs	r0, #0
	.loc	1 1008 25 is_stmt 0             @ ../Core/Src/uiPro.c:1008:25
	strb	r0, [r1]
	.loc	1 1009 18 is_stmt 1             @ ../Core/Src/uiPro.c:1009:18
	movw	r0, :lower16:PageKeyVoltage_T.Result
	movt	r0, :upper16:PageKeyVoltage_T.Result
	movs	r1, #1
	strb	r1, [r0, #1]
	.loc	1 1010 18                       @ ../Core/Src/uiPro.c:1010:18
	strb	r1, [r0]
	.loc	1 1011 8                        @ ../Core/Src/uiPro.c:1011:8
	str	r0, [sp, #204]
	b.w	.LBB3_217
.Ltmp309:
.LBB3_138:
	.loc	1 1013 6                        @ ../Core/Src/uiPro.c:1013:6
	b	.LBB3_139
.Ltmp310:
.LBB3_139:
	.loc	1 1014 17                       @ ../Core/Src/uiPro.c:1014:17
	b	.LBB3_143
.Ltmp311:
.LBB3_140:
	.loc	1 1017 23                       @ ../Core/Src/uiPro.c:1017:23
	ldr	r2, [sp, #200]
	movw	r3, #11376
	.loc	1 1017 86 is_stmt 0             @ ../Core/Src/uiPro.c:1017:86
	ldrb	r1, [r2, r3]
	movs	r0, #200
	.loc	1 1017 39                       @ ../Core/Src/uiPro.c:1017:39
	smlabb	r0, r1, r0, r2
	.loc	1 1017 86                       @ ../Core/Src/uiPro.c:1017:86
	adds	r1, #1
	strb	r1, [r2, r3]
	.loc	1 1017 23                       @ ../Core/Src/uiPro.c:1017:23
	add.w	r0, r0, #1376
	.loc	1 1017 6                        @ ../Core/Src/uiPro.c:1017:6
	movw	r1, :lower16:.L.str.85
	movt	r1, :upper16:.L.str.85
	movw	r2, :lower16:.L.str.33
	movt	r2, :upper16:.L.str.33
	movs	r3, #0
	bl	StringChangeLine
	.loc	1 1018 63 is_stmt 1             @ ../Core/Src/uiPro.c:1018:63
	movw	r0, :lower16:ResetStateStr
	movt	r0, :upper16:ResetStateStr
	ldrb	r2, [r0, #3]
	.loc	1 1018 60 is_stmt 0             @ ../Core/Src/uiPro.c:1018:60
	movw	r1, :lower16:comVariableBlock
	movt	r1, :upper16:comVariableBlock
	ldrb	r0, [r1, #7]
	ands	r0, r2
	strb	r0, [r1, #7]
.Ltmp312:
	.loc	1 1019 25 is_stmt 1             @ ../Core/Src/uiPro.c:1019:25
	ldr	r0, [sp, #196]
	.loc	1 1019 24 is_stmt 0             @ ../Core/Src/uiPro.c:1019:24
	ldrb	r0, [r0]
.Ltmp313:
	.loc	1 1019 24                       @ ../Core/Src/uiPro.c:1019:24
	cmp	r0, #2
	bne	.LBB3_142
	b	.LBB3_141
.LBB3_141:
	.loc	1 0 24                          @ ../Core/Src/uiPro.c:0:24
	add.w	r0, sp, #146
	movs	r2, #0
	str	r2, [sp, #80]                   @ 4-byte Spill
	mov.w	r3, #1000
.Ltmp314:
	.loc	1 1021 7 is_stmt 1              @ ../Core/Src/uiPro.c:1021:7
	str	r3, [sp, #76]                   @ 4-byte Spill
	mov	r1, r2
	bl	OutWindowsTxt2
	ldr	r1, [sp, #76]                   @ 4-byte Reload
                                        @ kill: def $r2 killed $r0
	.loc	1 1022 26                       @ ../Core/Src/uiPro.c:1022:26
	ldr	r0, [sp, #80]                   @ 4-byte Reload
	ldr	r2, [sp, #196]
	.loc	1 1022 42 is_stmt 0             @ ../Core/Src/uiPro.c:1022:42
	strb	r0, [r2]
	movs	r0, #2
	.loc	1 1023 25 is_stmt 1             @ ../Core/Src/uiPro.c:1023:25
	bl	MeasurResultTransmit
	.loc	1 1024 35                       @ ../Core/Src/uiPro.c:1024:35
	movw	r0, :lower16:PageKeyVoltage_T.Result
	movt	r0, :upper16:PageKeyVoltage_T.Result
	movs	r1, #1
	strb	r1, [r0, #1]
	.loc	1 1025 35                       @ ../Core/Src/uiPro.c:1025:35
	strb	r1, [r0]
	.loc	1 1026 25                       @ ../Core/Src/uiPro.c:1026:25
	str	r0, [sp, #204]
	b.w	.LBB3_217
.Ltmp315:
.LBB3_142:
	.loc	1 0 25 is_stmt 0                @ ../Core/Src/uiPro.c:0:25
	b	.LBB3_143
.LBB3_143:
	.loc	1 1030 13 is_stmt 1             @ ../Core/Src/uiPro.c:1030:13
	b.w	.LBB3_211
.Ltmp316:
.LBB3_144:
	.loc	1 1031 21                       @ ../Core/Src/uiPro.c:1031:21
	movw	r0, :lower16:PageKeyVoltage_T.SmallStep
	movt	r0, :upper16:PageKeyVoltage_T.SmallStep
	ldrb	r0, [r0]
.Ltmp317:
	.loc	1 1031 21 is_stmt 0             @ ../Core/Src/uiPro.c:1031:21
	cmp	r0, #6
	bne.w	.LBB3_156
	b	.LBB3_145
.LBB3_145:
.Ltmp318:
	.loc	1 1034 29 is_stmt 1             @ ../Core/Src/uiPro.c:1034:29
	movw	r0, :lower16:PageKeyVoltage_T.SequenceStrBuf
	movt	r0, :upper16:PageKeyVoltage_T.SequenceStrBuf
	ldr	r0, [r0]
	ldrb	r0, [r0, #5]
	.loc	1 1034 27 is_stmt 0             @ ../Core/Src/uiPro.c:1034:27
	movw	r1, :lower16:PageKeyVoltage_T.SmallStep
	movt	r1, :upper16:PageKeyVoltage_T.SmallStep
	strb	r0, [r1]
	movw	r1, #3096
	movt	r1, #16386
	mov.w	r0, #134217728
	.loc	1 1035 17 is_stmt 1             @ ../Core/Src/uiPro.c:1035:17
	str	r0, [r1]
	movw	r1, #6168
	movt	r1, #16386
	mov.w	r0, #524288
	.loc	1 1036 17                       @ ../Core/Src/uiPro.c:1036:17
	str	r0, [r1]
	mov.w	r0, #4194304
	.loc	1 1037 17                       @ ../Core/Src/uiPro.c:1037:17
	str	r0, [r1]
	mov.w	r0, #2097152
	.loc	1 1038 17                       @ ../Core/Src/uiPro.c:1038:17
	str	r0, [r1]
	movs	r0, #16
	.loc	1 1039 17                       @ ../Core/Src/uiPro.c:1039:17
	str	r0, [r1]
	mov.w	r0, #8388608
	.loc	1 1040 17                       @ ../Core/Src/uiPro.c:1040:17
	str	r0, [r1]
	mov.w	r0, #16777216
	.loc	1 1041 17                       @ ../Core/Src/uiPro.c:1041:17
	str	r0, [r1]
	mov.w	r0, #33554432
	.loc	1 1042 17                       @ ../Core/Src/uiPro.c:1042:17
	str	r0, [r1]
	movs	r0, #80
	.loc	1 1043 17                       @ ../Core/Src/uiPro.c:1043:17
	bl	My_Delay
	movs	r0, #1
	mov.w	r1, #2000
	.loc	1 1044 17                       @ ../Core/Src/uiPro.c:1044:17
	bl	GetMultimeter
	.loc	1 1045 50                       @ ../Core/Src/uiPro.c:1045:50
	ldr	r1, [sp, #200]
	mov.w	r0, #17408
	ldr	r0, [r1, r0]
	.loc	1 1045 48 is_stmt 0             @ ../Core/Src/uiPro.c:1045:48
	str	r0, [r1, #32]
	.loc	1 1047 56 is_stmt 1             @ ../Core/Src/uiPro.c:1047:56
	ldr	r0, [sp, #200]
	ldr	r0, [r0, #32]
	bl	__aeabi_f2d
	vmov	d0, r0, r1
	.loc	1 1047 17 is_stmt 0             @ ../Core/Src/uiPro.c:1047:17
	movw	r0, :lower16:.L.str.80
	movt	r0, :upper16:.L.str.80
	mov	r1, sp
	str	r0, [r1]
	vmov	r2, r3, d0
	movw	r1, :lower16:.L.str.27
	movt	r1, :upper16:.L.str.27
	add.w	r0, sp, #146
	bl	sprintf
.Ltmp319:
	.loc	1 1049 21 is_stmt 1             @ ../Core/Src/uiPro.c:1049:21
	ldr	r0, [sp, #200]
	.loc	1 1049 37 is_stmt 0             @ ../Core/Src/uiPro.c:1049:37
	vldr	s0, [r0, #32]
	.loc	1 1049 71                       @ ../Core/Src/uiPro.c:1049:71
	vldr	s2, [r0, #64]
	.loc	1 1050 25 is_stmt 1             @ ../Core/Src/uiPro.c:1050:25
	vcmp.f32	s0, s2
	vmrs	APSR_nzcv, fpscr
	blt	.LBB3_152
	b	.LBB3_146
.LBB3_146:
	.loc	1 1050 28 is_stmt 0             @ ../Core/Src/uiPro.c:1050:28
	ldr	r0, [sp, #200]
	.loc	1 1050 44                       @ ../Core/Src/uiPro.c:1050:44
	vldr	s0, [r0, #32]
	.loc	1 1050 78                       @ ../Core/Src/uiPro.c:1050:78
	vldr	s2, [r0, #96]
.Ltmp320:
	.loc	1 1049 21 is_stmt 1             @ ../Core/Src/uiPro.c:1049:21
	vcmp.f32	s0, s2
	vmrs	APSR_nzcv, fpscr
	bgt	.LBB3_152
	b	.LBB3_147
.LBB3_147:
.Ltmp321:
	.loc	1 1052 23                       @ ../Core/Src/uiPro.c:1052:23
	ldr	r2, [sp, #200]
	movw	r3, #11376
	.loc	1 1052 86 is_stmt 0             @ ../Core/Src/uiPro.c:1052:86
	ldrb	r1, [r2, r3]
	movs	r0, #200
	.loc	1 1052 39                       @ ../Core/Src/uiPro.c:1052:39
	smlabb	r0, r1, r0, r2
	.loc	1 1052 86                       @ ../Core/Src/uiPro.c:1052:86
	adds	r1, #1
	strb	r1, [r2, r3]
	.loc	1 1052 23                       @ ../Core/Src/uiPro.c:1052:23
	add.w	r0, r0, #1376
	.loc	1 1052 6                        @ ../Core/Src/uiPro.c:1052:6
	movw	r1, :lower16:.L.str.86
	movt	r1, :upper16:.L.str.86
	movw	r2, :lower16:.L.str.82
	movt	r2, :upper16:.L.str.82
	movs	r3, #0
	bl	StringChangeLine
	.loc	1 1053 63 is_stmt 1             @ ../Core/Src/uiPro.c:1053:63
	movw	r0, :lower16:SetStateStr
	movt	r0, :upper16:SetStateStr
	ldrb	r2, [r0, #4]
	.loc	1 1053 60 is_stmt 0             @ ../Core/Src/uiPro.c:1053:60
	movw	r1, :lower16:comVariableBlock
	movt	r1, :upper16:comVariableBlock
	ldrb	r0, [r1, #7]
	orrs	r0, r2
	strb	r0, [r1, #7]
.Ltmp322:
	.loc	1 1054 10 is_stmt 1             @ ../Core/Src/uiPro.c:1054:10
	ldr	r0, [sp, #196]
	.loc	1 1054 9 is_stmt 0              @ ../Core/Src/uiPro.c:1054:9
	ldrb	r0, [r0]
.Ltmp323:
	.loc	1 1054 9                        @ ../Core/Src/uiPro.c:1054:9
	cmp	r0, #2
	bne	.LBB3_151
	b	.LBB3_148
.LBB3_148:
	.loc	1 0 9                           @ ../Core/Src/uiPro.c:0:9
	add.w	r0, sp, #146
	movs	r1, #2
	movs	r2, #0
	mov.w	r3, #1000
.Ltmp324:
	.loc	1 1056 11 is_stmt 1             @ ../Core/Src/uiPro.c:1056:11
	bl	OutWindowsTxt2
	.loc	1 1056 10 is_stmt 0             @ ../Core/Src/uiPro.c:1056:10
	ldrb	r0, [r0]
.Ltmp325:
	.loc	1 1056 10                       @ ../Core/Src/uiPro.c:1056:10
	cbz	r0, .LBB3_150
	b	.LBB3_149
.LBB3_149:
	.loc	1 0 10                          @ ../Core/Src/uiPro.c:0:10
	movs	r0, #3
	mov.w	r1, #1000
.Ltmp326:
	.loc	1 1058 8 is_stmt 1              @ ../Core/Src/uiPro.c:1058:8
	bl	MeasurResultTransmit
	.loc	1 1059 9                        @ ../Core/Src/uiPro.c:1059:9
	ldr	r1, [sp, #196]
	movs	r0, #0
	.loc	1 1059 25 is_stmt 0             @ ../Core/Src/uiPro.c:1059:25
	strb	r0, [r1]
	.loc	1 1060 18 is_stmt 1             @ ../Core/Src/uiPro.c:1060:18
	movw	r0, :lower16:PageKeyVoltage_T.Result
	movt	r0, :upper16:PageKeyVoltage_T.Result
	movs	r1, #1
	strb	r1, [r0, #1]
	.loc	1 1061 18                       @ ../Core/Src/uiPro.c:1061:18
	strb	r1, [r0]
	.loc	1 1062 8                        @ ../Core/Src/uiPro.c:1062:8
	str	r0, [sp, #204]
	b.w	.LBB3_217
.Ltmp327:
.LBB3_150:
	.loc	1 1064 6                        @ ../Core/Src/uiPro.c:1064:6
	b	.LBB3_151
.Ltmp328:
.LBB3_151:
	.loc	1 1065 17                       @ ../Core/Src/uiPro.c:1065:17
	b	.LBB3_155
.Ltmp329:
.LBB3_152:
	.loc	1 1068 23                       @ ../Core/Src/uiPro.c:1068:23
	ldr	r2, [sp, #200]
	movw	r3, #11376
	.loc	1 1068 86 is_stmt 0             @ ../Core/Src/uiPro.c:1068:86
	ldrb	r1, [r2, r3]
	movs	r0, #200
	.loc	1 1068 39                       @ ../Core/Src/uiPro.c:1068:39
	smlabb	r0, r1, r0, r2
	.loc	1 1068 86                       @ ../Core/Src/uiPro.c:1068:86
	adds	r1, #1
	strb	r1, [r2, r3]
	.loc	1 1068 23                       @ ../Core/Src/uiPro.c:1068:23
	add.w	r0, r0, #1376
	.loc	1 1068 6                        @ ../Core/Src/uiPro.c:1068:6
	movw	r1, :lower16:.L.str.86
	movt	r1, :upper16:.L.str.86
	movw	r2, :lower16:.L.str.33
	movt	r2, :upper16:.L.str.33
	movs	r3, #0
	bl	StringChangeLine
	.loc	1 1069 63 is_stmt 1             @ ../Core/Src/uiPro.c:1069:63
	movw	r0, :lower16:ResetStateStr
	movt	r0, :upper16:ResetStateStr
	ldrb	r2, [r0, #4]
	.loc	1 1069 60 is_stmt 0             @ ../Core/Src/uiPro.c:1069:60
	movw	r1, :lower16:comVariableBlock
	movt	r1, :upper16:comVariableBlock
	ldrb	r0, [r1, #7]
	ands	r0, r2
	strb	r0, [r1, #7]
.Ltmp330:
	.loc	1 1070 25 is_stmt 1             @ ../Core/Src/uiPro.c:1070:25
	ldr	r0, [sp, #196]
	.loc	1 1070 24 is_stmt 0             @ ../Core/Src/uiPro.c:1070:24
	ldrb	r0, [r0]
.Ltmp331:
	.loc	1 1070 24                       @ ../Core/Src/uiPro.c:1070:24
	cmp	r0, #2
	bne	.LBB3_154
	b	.LBB3_153
.LBB3_153:
	.loc	1 0 24                          @ ../Core/Src/uiPro.c:0:24
	add.w	r0, sp, #146
	movs	r1, #2
	str	r1, [sp, #72]                   @ 4-byte Spill
	movs	r2, #0
	str	r2, [sp, #64]                   @ 4-byte Spill
	mov.w	r3, #1000
.Ltmp332:
	.loc	1 1072 7 is_stmt 1              @ ../Core/Src/uiPro.c:1072:7
	str	r3, [sp, #68]                   @ 4-byte Spill
	bl	OutWindowsTxt2
	ldr	r2, [sp, #64]                   @ 4-byte Reload
	ldr	r1, [sp, #68]                   @ 4-byte Reload
                                        @ kill: def $r3 killed $r0
	.loc	1 1073 26                       @ ../Core/Src/uiPro.c:1073:26
	ldr	r0, [sp, #72]                   @ 4-byte Reload
	ldr	r3, [sp, #196]
	.loc	1 1073 42 is_stmt 0             @ ../Core/Src/uiPro.c:1073:42
	strb	r2, [r3]
	.loc	1 1074 25 is_stmt 1             @ ../Core/Src/uiPro.c:1074:25
	bl	MeasurResultTransmit
	.loc	1 1075 35                       @ ../Core/Src/uiPro.c:1075:35
	movw	r0, :lower16:PageKeyVoltage_T.Result
	movt	r0, :upper16:PageKeyVoltage_T.Result
	movs	r1, #1
	strb	r1, [r0, #1]
	.loc	1 1076 35                       @ ../Core/Src/uiPro.c:1076:35
	strb	r1, [r0]
	.loc	1 1077 25                       @ ../Core/Src/uiPro.c:1077:25
	str	r0, [sp, #204]
	b.w	.LBB3_217
.Ltmp333:
.LBB3_154:
	.loc	1 0 25 is_stmt 0                @ ../Core/Src/uiPro.c:0:25
	b	.LBB3_155
.LBB3_155:
	.loc	1 1081 13 is_stmt 1             @ ../Core/Src/uiPro.c:1081:13
	b.w	.LBB3_210
.Ltmp334:
.LBB3_156:
	.loc	1 1082 21                       @ ../Core/Src/uiPro.c:1082:21
	movw	r0, :lower16:PageKeyVoltage_T.SmallStep
	movt	r0, :upper16:PageKeyVoltage_T.SmallStep
	ldrb	r0, [r0]
.Ltmp335:
	.loc	1 1082 21 is_stmt 0             @ ../Core/Src/uiPro.c:1082:21
	cmp	r0, #7
	bne.w	.LBB3_168
	b	.LBB3_157
.LBB3_157:
.Ltmp336:
	.loc	1 1084 29 is_stmt 1             @ ../Core/Src/uiPro.c:1084:29
	movw	r0, :lower16:PageKeyVoltage_T.SequenceStrBuf
	movt	r0, :upper16:PageKeyVoltage_T.SequenceStrBuf
	ldr	r0, [r0]
	ldrb	r0, [r0, #6]
	.loc	1 1084 27 is_stmt 0             @ ../Core/Src/uiPro.c:1084:27
	movw	r1, :lower16:PageKeyVoltage_T.SmallStep
	movt	r1, :upper16:PageKeyVoltage_T.SmallStep
	strb	r0, [r1]
	movw	r1, #3096
	movt	r1, #16386
	mov.w	r0, #134217728
	.loc	1 1085 17 is_stmt 1             @ ../Core/Src/uiPro.c:1085:17
	str	r0, [r1]
	movw	r1, #6168
	movt	r1, #16386
	mov.w	r0, #524288
	.loc	1 1086 17                       @ ../Core/Src/uiPro.c:1086:17
	str	r0, [r1]
	mov.w	r0, #4194304
	.loc	1 1087 17                       @ ../Core/Src/uiPro.c:1087:17
	str	r0, [r1]
	mov.w	r0, #2097152
	.loc	1 1088 17                       @ ../Core/Src/uiPro.c:1088:17
	str	r0, [r1]
	mov.w	r0, #1048576
	.loc	1 1089 17                       @ ../Core/Src/uiPro.c:1089:17
	str	r0, [r1]
	mov.w	r0, #16777216
	.loc	1 1091 17                       @ ../Core/Src/uiPro.c:1091:17
	str	r0, [r1]
	mov.w	r0, #33554432
	.loc	1 1092 17                       @ ../Core/Src/uiPro.c:1092:17
	str	r0, [r1]
	movs	r0, #80
	.loc	1 1093 17                       @ ../Core/Src/uiPro.c:1093:17
	bl	My_Delay
	movs	r0, #1
	mov.w	r1, #2000
	.loc	1 1094 17                       @ ../Core/Src/uiPro.c:1094:17
	bl	GetMultimeter
	.loc	1 1095 50                       @ ../Core/Src/uiPro.c:1095:50
	ldr	r1, [sp, #200]
	mov.w	r0, #17408
	ldr	r0, [r1, r0]
	.loc	1 1095 48 is_stmt 0             @ ../Core/Src/uiPro.c:1095:48
	str	r0, [r1, #36]
	.loc	1 1096 56 is_stmt 1             @ ../Core/Src/uiPro.c:1096:56
	ldr	r0, [sp, #200]
	ldr	r0, [r0, #36]
	bl	__aeabi_f2d
	vmov	d0, r0, r1
	.loc	1 1096 17 is_stmt 0             @ ../Core/Src/uiPro.c:1096:17
	movw	r0, :lower16:.L.str.80
	movt	r0, :upper16:.L.str.80
	mov	r1, sp
	str	r0, [r1]
	vmov	r2, r3, d0
	movw	r1, :lower16:.L.str.27
	movt	r1, :upper16:.L.str.27
	add.w	r0, sp, #146
	bl	sprintf
.Ltmp337:
	.loc	1 1098 21 is_stmt 1             @ ../Core/Src/uiPro.c:1098:21
	ldr	r0, [sp, #200]
	.loc	1 1098 37 is_stmt 0             @ ../Core/Src/uiPro.c:1098:37
	vldr	s0, [r0, #36]
	.loc	1 1098 71                       @ ../Core/Src/uiPro.c:1098:71
	vldr	s2, [r0, #68]
	.loc	1 1099 25 is_stmt 1             @ ../Core/Src/uiPro.c:1099:25
	vcmp.f32	s0, s2
	vmrs	APSR_nzcv, fpscr
	blt	.LBB3_164
	b	.LBB3_158
.LBB3_158:
	.loc	1 1099 28 is_stmt 0             @ ../Core/Src/uiPro.c:1099:28
	ldr	r0, [sp, #200]
	.loc	1 1099 44                       @ ../Core/Src/uiPro.c:1099:44
	vldr	s0, [r0, #36]
	.loc	1 1099 78                       @ ../Core/Src/uiPro.c:1099:78
	vldr	s2, [r0, #100]
.Ltmp338:
	.loc	1 1098 21 is_stmt 1             @ ../Core/Src/uiPro.c:1098:21
	vcmp.f32	s0, s2
	vmrs	APSR_nzcv, fpscr
	bgt	.LBB3_164
	b	.LBB3_159
.LBB3_159:
.Ltmp339:
	.loc	1 1101 23                       @ ../Core/Src/uiPro.c:1101:23
	ldr	r2, [sp, #200]
	movw	r3, #11376
	.loc	1 1101 86 is_stmt 0             @ ../Core/Src/uiPro.c:1101:86
	ldrb	r1, [r2, r3]
	movs	r0, #200
	.loc	1 1101 39                       @ ../Core/Src/uiPro.c:1101:39
	smlabb	r0, r1, r0, r2
	.loc	1 1101 86                       @ ../Core/Src/uiPro.c:1101:86
	adds	r1, #1
	strb	r1, [r2, r3]
	.loc	1 1101 23                       @ ../Core/Src/uiPro.c:1101:23
	add.w	r0, r0, #1376
	.loc	1 1101 6                        @ ../Core/Src/uiPro.c:1101:6
	movw	r1, :lower16:.L.str.87
	movt	r1, :upper16:.L.str.87
	movw	r2, :lower16:.L.str.82
	movt	r2, :upper16:.L.str.82
	movs	r3, #0
	bl	StringChangeLine
	.loc	1 1102 63 is_stmt 1             @ ../Core/Src/uiPro.c:1102:63
	movw	r0, :lower16:SetStateStr
	movt	r0, :upper16:SetStateStr
	ldrb	r2, [r0, #5]
	.loc	1 1102 60 is_stmt 0             @ ../Core/Src/uiPro.c:1102:60
	movw	r1, :lower16:comVariableBlock
	movt	r1, :upper16:comVariableBlock
	ldrb	r0, [r1, #7]
	orrs	r0, r2
	strb	r0, [r1, #7]
.Ltmp340:
	.loc	1 1103 10 is_stmt 1             @ ../Core/Src/uiPro.c:1103:10
	ldr	r0, [sp, #196]
	.loc	1 1103 9 is_stmt 0              @ ../Core/Src/uiPro.c:1103:9
	ldrb	r0, [r0]
.Ltmp341:
	.loc	1 1103 9                        @ ../Core/Src/uiPro.c:1103:9
	cmp	r0, #2
	bne	.LBB3_163
	b	.LBB3_160
.LBB3_160:
	.loc	1 0 9                           @ ../Core/Src/uiPro.c:0:9
	add.w	r0, sp, #146
	movs	r1, #2
	movs	r2, #0
	mov.w	r3, #1000
.Ltmp342:
	.loc	1 1105 11 is_stmt 1             @ ../Core/Src/uiPro.c:1105:11
	bl	OutWindowsTxt2
	.loc	1 1105 10 is_stmt 0             @ ../Core/Src/uiPro.c:1105:10
	ldrb	r0, [r0]
.Ltmp343:
	.loc	1 1105 10                       @ ../Core/Src/uiPro.c:1105:10
	cbz	r0, .LBB3_162
	b	.LBB3_161
.LBB3_161:
	.loc	1 0 10                          @ ../Core/Src/uiPro.c:0:10
	movs	r0, #3
	mov.w	r1, #1000
.Ltmp344:
	.loc	1 1107 8 is_stmt 1              @ ../Core/Src/uiPro.c:1107:8
	bl	MeasurResultTransmit
	.loc	1 1108 9                        @ ../Core/Src/uiPro.c:1108:9
	ldr	r1, [sp, #196]
	movs	r0, #0
	.loc	1 1108 25 is_stmt 0             @ ../Core/Src/uiPro.c:1108:25
	strb	r0, [r1]
	.loc	1 1109 18 is_stmt 1             @ ../Core/Src/uiPro.c:1109:18
	movw	r0, :lower16:PageKeyVoltage_T.Result
	movt	r0, :upper16:PageKeyVoltage_T.Result
	movs	r1, #1
	strb	r1, [r0, #1]
	.loc	1 1110 18                       @ ../Core/Src/uiPro.c:1110:18
	strb	r1, [r0]
	.loc	1 1111 8                        @ ../Core/Src/uiPro.c:1111:8
	str	r0, [sp, #204]
	b.w	.LBB3_217
.Ltmp345:
.LBB3_162:
	.loc	1 1113 6                        @ ../Core/Src/uiPro.c:1113:6
	b	.LBB3_163
.Ltmp346:
.LBB3_163:
	.loc	1 1114 17                       @ ../Core/Src/uiPro.c:1114:17
	b	.LBB3_167
.Ltmp347:
.LBB3_164:
	.loc	1 1117 23                       @ ../Core/Src/uiPro.c:1117:23
	ldr	r2, [sp, #200]
	movw	r3, #11376
	.loc	1 1117 86 is_stmt 0             @ ../Core/Src/uiPro.c:1117:86
	ldrb	r1, [r2, r3]
	movs	r0, #200
	.loc	1 1117 39                       @ ../Core/Src/uiPro.c:1117:39
	smlabb	r0, r1, r0, r2
	.loc	1 1117 86                       @ ../Core/Src/uiPro.c:1117:86
	adds	r1, #1
	strb	r1, [r2, r3]
	.loc	1 1117 23                       @ ../Core/Src/uiPro.c:1117:23
	add.w	r0, r0, #1376
	.loc	1 1117 6                        @ ../Core/Src/uiPro.c:1117:6
	movw	r1, :lower16:.L.str.87
	movt	r1, :upper16:.L.str.87
	movw	r2, :lower16:.L.str.33
	movt	r2, :upper16:.L.str.33
	movs	r3, #0
	bl	StringChangeLine
	.loc	1 1118 63 is_stmt 1             @ ../Core/Src/uiPro.c:1118:63
	movw	r0, :lower16:ResetStateStr
	movt	r0, :upper16:ResetStateStr
	ldrb	r2, [r0, #5]
	.loc	1 1118 60 is_stmt 0             @ ../Core/Src/uiPro.c:1118:60
	movw	r1, :lower16:comVariableBlock
	movt	r1, :upper16:comVariableBlock
	ldrb	r0, [r1, #7]
	ands	r0, r2
	strb	r0, [r1, #7]
.Ltmp348:
	.loc	1 1119 25 is_stmt 1             @ ../Core/Src/uiPro.c:1119:25
	ldr	r0, [sp, #196]
	.loc	1 1119 24 is_stmt 0             @ ../Core/Src/uiPro.c:1119:24
	ldrb	r0, [r0]
.Ltmp349:
	.loc	1 1119 24                       @ ../Core/Src/uiPro.c:1119:24
	cmp	r0, #2
	bne	.LBB3_166
	b	.LBB3_165
.LBB3_165:
	.loc	1 0 24                          @ ../Core/Src/uiPro.c:0:24
	add.w	r0, sp, #146
	movs	r1, #2
	str	r1, [sp, #60]                   @ 4-byte Spill
	movs	r2, #0
	str	r2, [sp, #52]                   @ 4-byte Spill
	mov.w	r3, #1000
.Ltmp350:
	.loc	1 1121 7 is_stmt 1              @ ../Core/Src/uiPro.c:1121:7
	str	r3, [sp, #56]                   @ 4-byte Spill
	bl	OutWindowsTxt2
	ldr	r2, [sp, #52]                   @ 4-byte Reload
	ldr	r1, [sp, #56]                   @ 4-byte Reload
                                        @ kill: def $r3 killed $r0
	.loc	1 1122 26                       @ ../Core/Src/uiPro.c:1122:26
	ldr	r0, [sp, #60]                   @ 4-byte Reload
	ldr	r3, [sp, #196]
	.loc	1 1122 42 is_stmt 0             @ ../Core/Src/uiPro.c:1122:42
	strb	r2, [r3]
	.loc	1 1123 25 is_stmt 1             @ ../Core/Src/uiPro.c:1123:25
	bl	MeasurResultTransmit
	.loc	1 1124 35                       @ ../Core/Src/uiPro.c:1124:35
	movw	r0, :lower16:PageKeyVoltage_T.Result
	movt	r0, :upper16:PageKeyVoltage_T.Result
	movs	r1, #1
	strb	r1, [r0, #1]
	.loc	1 1125 35                       @ ../Core/Src/uiPro.c:1125:35
	strb	r1, [r0]
	.loc	1 1126 25                       @ ../Core/Src/uiPro.c:1126:25
	str	r0, [sp, #204]
	b.w	.LBB3_217
.Ltmp351:
.LBB3_166:
	.loc	1 0 25 is_stmt 0                @ ../Core/Src/uiPro.c:0:25
	b	.LBB3_167
.LBB3_167:
	.loc	1 1129 13 is_stmt 1             @ ../Core/Src/uiPro.c:1129:13
	b	.LBB3_209
.Ltmp352:
.LBB3_168:
	.loc	1 1130 21                       @ ../Core/Src/uiPro.c:1130:21
	movw	r0, :lower16:PageKeyVoltage_T.SmallStep
	movt	r0, :upper16:PageKeyVoltage_T.SmallStep
	ldrb	r0, [r0]
.Ltmp353:
	.loc	1 1130 21 is_stmt 0             @ ../Core/Src/uiPro.c:1130:21
	cmp	r0, #8
	bne.w	.LBB3_180
	b	.LBB3_169
.LBB3_169:
.Ltmp354:
	.loc	1 1132 29 is_stmt 1             @ ../Core/Src/uiPro.c:1132:29
	movw	r0, :lower16:PageKeyVoltage_T.SequenceStrBuf
	movt	r0, :upper16:PageKeyVoltage_T.SequenceStrBuf
	ldr	r0, [r0]
	ldrb	r0, [r0, #7]
	.loc	1 1132 27 is_stmt 0             @ ../Core/Src/uiPro.c:1132:27
	movw	r1, :lower16:PageKeyVoltage_T.SmallStep
	movt	r1, :upper16:PageKeyVoltage_T.SmallStep
	strb	r0, [r1]
	movw	r1, #3096
	movt	r1, #16386
	mov.w	r0, #134217728
	.loc	1 1133 17 is_stmt 1             @ ../Core/Src/uiPro.c:1133:17
	str	r0, [r1]
	movw	r1, #6168
	movt	r1, #16386
	mov.w	r0, #524288
	.loc	1 1134 17                       @ ../Core/Src/uiPro.c:1134:17
	str	r0, [r1]
	mov.w	r0, #4194304
	.loc	1 1135 17                       @ ../Core/Src/uiPro.c:1135:17
	str	r0, [r1]
	mov.w	r0, #2097152
	.loc	1 1136 17                       @ ../Core/Src/uiPro.c:1136:17
	str	r0, [r1]
	mov.w	r0, #1048576
	.loc	1 1137 17                       @ ../Core/Src/uiPro.c:1137:17
	str	r0, [r1]
	mov.w	r0, #8388608
	.loc	1 1138 17                       @ ../Core/Src/uiPro.c:1138:17
	str	r0, [r1]
	mov.w	r0, #256
	.loc	1 1139 17                       @ ../Core/Src/uiPro.c:1139:17
	str	r0, [r1]
	mov.w	r0, #33554432
	.loc	1 1140 17                       @ ../Core/Src/uiPro.c:1140:17
	str	r0, [r1]
	movs	r0, #80
	.loc	1 1142 17                       @ ../Core/Src/uiPro.c:1142:17
	bl	My_Delay
	movs	r0, #1
	mov.w	r1, #2000
	.loc	1 1143 17                       @ ../Core/Src/uiPro.c:1143:17
	bl	GetMultimeter
	.loc	1 1144 50                       @ ../Core/Src/uiPro.c:1144:50
	ldr	r1, [sp, #200]
	mov.w	r0, #17408
	ldr	r0, [r1, r0]
	.loc	1 1144 48 is_stmt 0             @ ../Core/Src/uiPro.c:1144:48
	str	r0, [r1, #40]
	.loc	1 1145 56 is_stmt 1             @ ../Core/Src/uiPro.c:1145:56
	ldr	r0, [sp, #200]
	ldr	r0, [r0, #40]
	bl	__aeabi_f2d
	vmov	d0, r0, r1
	.loc	1 1145 17 is_stmt 0             @ ../Core/Src/uiPro.c:1145:17
	movw	r0, :lower16:.L.str.80
	movt	r0, :upper16:.L.str.80
	mov	r1, sp
	str	r0, [r1]
	vmov	r2, r3, d0
	movw	r1, :lower16:.L.str.27
	movt	r1, :upper16:.L.str.27
	add.w	r0, sp, #146
	bl	sprintf
.Ltmp355:
	.loc	1 1147 21 is_stmt 1             @ ../Core/Src/uiPro.c:1147:21
	ldr	r0, [sp, #200]
	.loc	1 1147 37 is_stmt 0             @ ../Core/Src/uiPro.c:1147:37
	vldr	s0, [r0, #40]
	.loc	1 1147 71                       @ ../Core/Src/uiPro.c:1147:71
	vldr	s2, [r0, #72]
	.loc	1 1148 25 is_stmt 1             @ ../Core/Src/uiPro.c:1148:25
	vcmp.f32	s0, s2
	vmrs	APSR_nzcv, fpscr
	blt	.LBB3_176
	b	.LBB3_170
.LBB3_170:
	.loc	1 1148 28 is_stmt 0             @ ../Core/Src/uiPro.c:1148:28
	ldr	r0, [sp, #200]
	.loc	1 1148 44                       @ ../Core/Src/uiPro.c:1148:44
	vldr	s0, [r0, #40]
	.loc	1 1148 78                       @ ../Core/Src/uiPro.c:1148:78
	vldr	s2, [r0, #104]
.Ltmp356:
	.loc	1 1147 21 is_stmt 1             @ ../Core/Src/uiPro.c:1147:21
	vcmp.f32	s0, s2
	vmrs	APSR_nzcv, fpscr
	bgt	.LBB3_176
	b	.LBB3_171
.LBB3_171:
.Ltmp357:
	.loc	1 1150 23                       @ ../Core/Src/uiPro.c:1150:23
	ldr	r2, [sp, #200]
	movw	r3, #11376
	.loc	1 1150 86 is_stmt 0             @ ../Core/Src/uiPro.c:1150:86
	ldrb	r1, [r2, r3]
	movs	r0, #200
	.loc	1 1150 39                       @ ../Core/Src/uiPro.c:1150:39
	smlabb	r0, r1, r0, r2
	.loc	1 1150 86                       @ ../Core/Src/uiPro.c:1150:86
	adds	r1, #1
	strb	r1, [r2, r3]
	.loc	1 1150 23                       @ ../Core/Src/uiPro.c:1150:23
	add.w	r0, r0, #1376
	.loc	1 1150 6                        @ ../Core/Src/uiPro.c:1150:6
	movw	r1, :lower16:.L.str.88
	movt	r1, :upper16:.L.str.88
	movw	r2, :lower16:.L.str.82
	movt	r2, :upper16:.L.str.82
	movs	r3, #0
	bl	StringChangeLine
	.loc	1 1151 63 is_stmt 1             @ ../Core/Src/uiPro.c:1151:63
	movw	r0, :lower16:SetStateStr
	movt	r0, :upper16:SetStateStr
	ldrb	r2, [r0, #6]
	.loc	1 1151 60 is_stmt 0             @ ../Core/Src/uiPro.c:1151:60
	movw	r1, :lower16:comVariableBlock
	movt	r1, :upper16:comVariableBlock
	ldrb	r0, [r1, #7]
	orrs	r0, r2
	strb	r0, [r1, #7]
.Ltmp358:
	.loc	1 1152 10 is_stmt 1             @ ../Core/Src/uiPro.c:1152:10
	ldr	r0, [sp, #196]
	.loc	1 1152 9 is_stmt 0              @ ../Core/Src/uiPro.c:1152:9
	ldrb	r0, [r0]
.Ltmp359:
	.loc	1 1152 9                        @ ../Core/Src/uiPro.c:1152:9
	cmp	r0, #2
	bne	.LBB3_175
	b	.LBB3_172
.LBB3_172:
	.loc	1 0 9                           @ ../Core/Src/uiPro.c:0:9
	add.w	r0, sp, #146
	movs	r2, #1
	mov.w	r3, #1000
.Ltmp360:
	.loc	1 1154 11 is_stmt 1             @ ../Core/Src/uiPro.c:1154:11
	mov	r1, r2
	bl	OutWindowsTxt2
	.loc	1 1154 10 is_stmt 0             @ ../Core/Src/uiPro.c:1154:10
	ldrb	r0, [r0]
.Ltmp361:
	.loc	1 1154 10                       @ ../Core/Src/uiPro.c:1154:10
	cbz	r0, .LBB3_174
	b	.LBB3_173
.LBB3_173:
	.loc	1 0 10                          @ ../Core/Src/uiPro.c:0:10
	movs	r0, #3
	mov.w	r1, #1000
.Ltmp362:
	.loc	1 1156 8 is_stmt 1              @ ../Core/Src/uiPro.c:1156:8
	bl	MeasurResultTransmit
	.loc	1 1157 9                        @ ../Core/Src/uiPro.c:1157:9
	ldr	r1, [sp, #196]
	movs	r0, #0
	.loc	1 1157 25 is_stmt 0             @ ../Core/Src/uiPro.c:1157:25
	strb	r0, [r1]
	.loc	1 1158 18 is_stmt 1             @ ../Core/Src/uiPro.c:1158:18
	movw	r0, :lower16:PageKeyVoltage_T.Result
	movt	r0, :upper16:PageKeyVoltage_T.Result
	movs	r1, #1
	strb	r1, [r0, #1]
	.loc	1 1159 18                       @ ../Core/Src/uiPro.c:1159:18
	strb	r1, [r0]
	.loc	1 1160 8                        @ ../Core/Src/uiPro.c:1160:8
	str	r0, [sp, #204]
	b	.LBB3_217
.Ltmp363:
.LBB3_174:
	.loc	1 1162 6                        @ ../Core/Src/uiPro.c:1162:6
	b	.LBB3_175
.Ltmp364:
.LBB3_175:
	.loc	1 1163 17                       @ ../Core/Src/uiPro.c:1163:17
	b	.LBB3_179
.Ltmp365:
.LBB3_176:
	.loc	1 1166 23                       @ ../Core/Src/uiPro.c:1166:23
	ldr	r2, [sp, #200]
	movw	r3, #11376
	.loc	1 1166 86 is_stmt 0             @ ../Core/Src/uiPro.c:1166:86
	ldrb	r1, [r2, r3]
	movs	r0, #200
	.loc	1 1166 39                       @ ../Core/Src/uiPro.c:1166:39
	smlabb	r0, r1, r0, r2
	.loc	1 1166 86                       @ ../Core/Src/uiPro.c:1166:86
	adds	r1, #1
	strb	r1, [r2, r3]
	.loc	1 1166 23                       @ ../Core/Src/uiPro.c:1166:23
	add.w	r0, r0, #1376
	.loc	1 1166 6                        @ ../Core/Src/uiPro.c:1166:6
	movw	r1, :lower16:.L.str.88
	movt	r1, :upper16:.L.str.88
	movw	r2, :lower16:.L.str.33
	movt	r2, :upper16:.L.str.33
	movs	r3, #0
	bl	StringChangeLine
	.loc	1 1167 63 is_stmt 1             @ ../Core/Src/uiPro.c:1167:63
	movw	r0, :lower16:ResetStateStr
	movt	r0, :upper16:ResetStateStr
	ldrb	r2, [r0, #6]
	.loc	1 1167 60 is_stmt 0             @ ../Core/Src/uiPro.c:1167:60
	movw	r1, :lower16:comVariableBlock
	movt	r1, :upper16:comVariableBlock
	ldrb	r0, [r1, #7]
	ands	r0, r2
	strb	r0, [r1, #7]
.Ltmp366:
	.loc	1 1168 25 is_stmt 1             @ ../Core/Src/uiPro.c:1168:25
	ldr	r0, [sp, #196]
	.loc	1 1168 24 is_stmt 0             @ ../Core/Src/uiPro.c:1168:24
	ldrb	r0, [r0]
.Ltmp367:
	.loc	1 1168 24                       @ ../Core/Src/uiPro.c:1168:24
	cmp	r0, #2
	bne	.LBB3_178
	b	.LBB3_177
.LBB3_177:
	.loc	1 0 24                          @ ../Core/Src/uiPro.c:0:24
	add.w	r0, sp, #146
	movs	r1, #0
	str	r1, [sp, #44]                   @ 4-byte Spill
	movs	r2, #1
	str	r2, [sp, #48]                   @ 4-byte Spill
	mov.w	r3, #1000
.Ltmp368:
	.loc	1 1170 7 is_stmt 1              @ ../Core/Src/uiPro.c:1170:7
	str	r3, [sp, #40]                   @ 4-byte Spill
	bl	OutWindowsTxt2
	ldr	r1, [sp, #40]                   @ 4-byte Reload
                                        @ kill: def $r2 killed $r0
	.loc	1 1171 26                       @ ../Core/Src/uiPro.c:1171:26
	ldr	r0, [sp, #44]                   @ 4-byte Reload
	ldr	r2, [sp, #196]
	.loc	1 1171 42 is_stmt 0             @ ../Core/Src/uiPro.c:1171:42
	strb	r0, [r2]
	movs	r0, #2
	.loc	1 1172 25 is_stmt 1             @ ../Core/Src/uiPro.c:1172:25
	bl	MeasurResultTransmit
	ldr	r1, [sp, #48]                   @ 4-byte Reload
	.loc	1 1173 35                       @ ../Core/Src/uiPro.c:1173:35
	movw	r0, :lower16:PageKeyVoltage_T.Result
	movt	r0, :upper16:PageKeyVoltage_T.Result
	strb	r1, [r0, #1]
	.loc	1 1174 35                       @ ../Core/Src/uiPro.c:1174:35
	strb	r1, [r0]
	.loc	1 1175 25                       @ ../Core/Src/uiPro.c:1175:25
	str	r0, [sp, #204]
	b	.LBB3_217
.Ltmp369:
.LBB3_178:
	.loc	1 0 25 is_stmt 0                @ ../Core/Src/uiPro.c:0:25
	b	.LBB3_179
.LBB3_179:
	.loc	1 1178 13 is_stmt 1             @ ../Core/Src/uiPro.c:1178:13
	b	.LBB3_208
.Ltmp370:
.LBB3_180:
	.loc	1 1179 21                       @ ../Core/Src/uiPro.c:1179:21
	movw	r0, :lower16:PageKeyVoltage_T.SmallStep
	movt	r0, :upper16:PageKeyVoltage_T.SmallStep
	ldrb	r0, [r0]
.Ltmp371:
	.loc	1 1179 21 is_stmt 0             @ ../Core/Src/uiPro.c:1179:21
	cmp	r0, #9
	bne.w	.LBB3_192
	b	.LBB3_181
.LBB3_181:
.Ltmp372:
	.loc	1 1181 29 is_stmt 1             @ ../Core/Src/uiPro.c:1181:29
	movw	r0, :lower16:PageKeyVoltage_T.SequenceStrBuf
	movt	r0, :upper16:PageKeyVoltage_T.SequenceStrBuf
	ldr	r0, [r0]
	ldrb	r0, [r0, #8]
	.loc	1 1181 27 is_stmt 0             @ ../Core/Src/uiPro.c:1181:27
	movw	r1, :lower16:PageKeyVoltage_T.SmallStep
	movt	r1, :upper16:PageKeyVoltage_T.SmallStep
	strb	r0, [r1]
	movw	r1, #3096
	movt	r1, #16386
	mov.w	r0, #134217728
	.loc	1 1182 17 is_stmt 1             @ ../Core/Src/uiPro.c:1182:17
	str	r0, [r1]
	movw	r1, #6168
	movt	r1, #16386
	mov.w	r0, #524288
	.loc	1 1183 17                       @ ../Core/Src/uiPro.c:1183:17
	str	r0, [r1]
	mov.w	r0, #4194304
	.loc	1 1184 17                       @ ../Core/Src/uiPro.c:1184:17
	str	r0, [r1]
	mov.w	r0, #2097152
	.loc	1 1185 17                       @ ../Core/Src/uiPro.c:1185:17
	str	r0, [r1]
	mov.w	r0, #1048576
	.loc	1 1186 17                       @ ../Core/Src/uiPro.c:1186:17
	str	r0, [r1]
	mov.w	r0, #8388608
	.loc	1 1187 17                       @ ../Core/Src/uiPro.c:1187:17
	str	r0, [r1]
	mov.w	r0, #16777216
	.loc	1 1188 17                       @ ../Core/Src/uiPro.c:1188:17
	str	r0, [r1]
	mov.w	r0, #512
	.loc	1 1189 17                       @ ../Core/Src/uiPro.c:1189:17
	str	r0, [r1]
	movs	r0, #80
	.loc	1 1190 17                       @ ../Core/Src/uiPro.c:1190:17
	bl	My_Delay
	movs	r0, #1
	mov.w	r1, #2000
	.loc	1 1191 17                       @ ../Core/Src/uiPro.c:1191:17
	bl	GetMultimeter
	.loc	1 1192 50                       @ ../Core/Src/uiPro.c:1192:50
	ldr	r1, [sp, #200]
	mov.w	r0, #17408
	ldr	r0, [r1, r0]
	.loc	1 1192 48 is_stmt 0             @ ../Core/Src/uiPro.c:1192:48
	str	r0, [r1, #44]
	.loc	1 1193 56 is_stmt 1             @ ../Core/Src/uiPro.c:1193:56
	ldr	r0, [sp, #200]
	ldr	r0, [r0, #44]
	bl	__aeabi_f2d
	vmov	d0, r0, r1
	.loc	1 1193 17 is_stmt 0             @ ../Core/Src/uiPro.c:1193:17
	movw	r0, :lower16:.L.str.80
	movt	r0, :upper16:.L.str.80
	mov	r1, sp
	str	r0, [r1]
	vmov	r2, r3, d0
	movw	r1, :lower16:.L.str.27
	movt	r1, :upper16:.L.str.27
	add.w	r0, sp, #146
	bl	sprintf
.Ltmp373:
	.loc	1 1195 21 is_stmt 1             @ ../Core/Src/uiPro.c:1195:21
	ldr	r0, [sp, #200]
	.loc	1 1195 37 is_stmt 0             @ ../Core/Src/uiPro.c:1195:37
	vldr	s0, [r0, #44]
	.loc	1 1195 71                       @ ../Core/Src/uiPro.c:1195:71
	vldr	s2, [r0, #76]
	.loc	1 1196 25 is_stmt 1             @ ../Core/Src/uiPro.c:1196:25
	vcmp.f32	s0, s2
	vmrs	APSR_nzcv, fpscr
	blt	.LBB3_188
	b	.LBB3_182
.LBB3_182:
	.loc	1 1196 28 is_stmt 0             @ ../Core/Src/uiPro.c:1196:28
	ldr	r0, [sp, #200]
	.loc	1 1196 44                       @ ../Core/Src/uiPro.c:1196:44
	vldr	s0, [r0, #44]
	.loc	1 1196 78                       @ ../Core/Src/uiPro.c:1196:78
	vldr	s2, [r0, #108]
.Ltmp374:
	.loc	1 1195 21 is_stmt 1             @ ../Core/Src/uiPro.c:1195:21
	vcmp.f32	s0, s2
	vmrs	APSR_nzcv, fpscr
	bgt	.LBB3_188
	b	.LBB3_183
.LBB3_183:
.Ltmp375:
	.loc	1 1198 23                       @ ../Core/Src/uiPro.c:1198:23
	ldr	r2, [sp, #200]
	movw	r3, #11376
	.loc	1 1198 86 is_stmt 0             @ ../Core/Src/uiPro.c:1198:86
	ldrb	r1, [r2, r3]
	movs	r0, #200
	.loc	1 1198 39                       @ ../Core/Src/uiPro.c:1198:39
	smlabb	r0, r1, r0, r2
	.loc	1 1198 86                       @ ../Core/Src/uiPro.c:1198:86
	adds	r1, #1
	strb	r1, [r2, r3]
	.loc	1 1198 23                       @ ../Core/Src/uiPro.c:1198:23
	add.w	r0, r0, #1376
	.loc	1 1198 6                        @ ../Core/Src/uiPro.c:1198:6
	movw	r1, :lower16:.L.str.89
	movt	r1, :upper16:.L.str.89
	movw	r2, :lower16:.L.str.82
	movt	r2, :upper16:.L.str.82
	movs	r3, #0
	bl	StringChangeLine
	.loc	1 1199 63 is_stmt 1             @ ../Core/Src/uiPro.c:1199:63
	movw	r0, :lower16:SetStateStr
	movt	r0, :upper16:SetStateStr
	ldrb	r2, [r0, #7]
	.loc	1 1199 60 is_stmt 0             @ ../Core/Src/uiPro.c:1199:60
	movw	r1, :lower16:comVariableBlock
	movt	r1, :upper16:comVariableBlock
	ldrb	r0, [r1, #7]
	orrs	r0, r2
	strb	r0, [r1, #7]
.Ltmp376:
	.loc	1 1200 10 is_stmt 1             @ ../Core/Src/uiPro.c:1200:10
	ldr	r0, [sp, #196]
	.loc	1 1200 9 is_stmt 0              @ ../Core/Src/uiPro.c:1200:9
	ldrb	r0, [r0]
.Ltmp377:
	.loc	1 1200 9                        @ ../Core/Src/uiPro.c:1200:9
	cmp	r0, #2
	bne	.LBB3_187
	b	.LBB3_184
.LBB3_184:
	.loc	1 0 9                           @ ../Core/Src/uiPro.c:0:9
	add.w	r0, sp, #146
	movs	r1, #2
	movs	r2, #0
	mov.w	r3, #1000
.Ltmp378:
	.loc	1 1202 11 is_stmt 1             @ ../Core/Src/uiPro.c:1202:11
	bl	OutWindowsTxt2
	.loc	1 1202 10 is_stmt 0             @ ../Core/Src/uiPro.c:1202:10
	ldrb	r0, [r0]
.Ltmp379:
	.loc	1 1202 10                       @ ../Core/Src/uiPro.c:1202:10
	cbz	r0, .LBB3_186
	b	.LBB3_185
.LBB3_185:
	.loc	1 0 10                          @ ../Core/Src/uiPro.c:0:10
	movs	r0, #3
	mov.w	r1, #1000
.Ltmp380:
	.loc	1 1204 8 is_stmt 1              @ ../Core/Src/uiPro.c:1204:8
	bl	MeasurResultTransmit
	.loc	1 1205 9                        @ ../Core/Src/uiPro.c:1205:9
	ldr	r1, [sp, #196]
	movs	r0, #0
	.loc	1 1205 25 is_stmt 0             @ ../Core/Src/uiPro.c:1205:25
	strb	r0, [r1]
	.loc	1 1206 18 is_stmt 1             @ ../Core/Src/uiPro.c:1206:18
	movw	r0, :lower16:PageKeyVoltage_T.Result
	movt	r0, :upper16:PageKeyVoltage_T.Result
	movs	r1, #1
	strb	r1, [r0, #1]
	.loc	1 1207 18                       @ ../Core/Src/uiPro.c:1207:18
	strb	r1, [r0]
	.loc	1 1208 8                        @ ../Core/Src/uiPro.c:1208:8
	str	r0, [sp, #204]
	b	.LBB3_217
.Ltmp381:
.LBB3_186:
	.loc	1 1210 6                        @ ../Core/Src/uiPro.c:1210:6
	b	.LBB3_187
.Ltmp382:
.LBB3_187:
	.loc	1 1211 17                       @ ../Core/Src/uiPro.c:1211:17
	b	.LBB3_191
.Ltmp383:
.LBB3_188:
	.loc	1 1214 23                       @ ../Core/Src/uiPro.c:1214:23
	ldr	r2, [sp, #200]
	movw	r3, #11376
	.loc	1 1214 86 is_stmt 0             @ ../Core/Src/uiPro.c:1214:86
	ldrb	r1, [r2, r3]
	movs	r0, #200
	.loc	1 1214 39                       @ ../Core/Src/uiPro.c:1214:39
	smlabb	r0, r1, r0, r2
	.loc	1 1214 86                       @ ../Core/Src/uiPro.c:1214:86
	adds	r1, #1
	strb	r1, [r2, r3]
	.loc	1 1214 23                       @ ../Core/Src/uiPro.c:1214:23
	add.w	r0, r0, #1376
	.loc	1 1214 6                        @ ../Core/Src/uiPro.c:1214:6
	movw	r1, :lower16:.L.str.89
	movt	r1, :upper16:.L.str.89
	movw	r2, :lower16:.L.str.33
	movt	r2, :upper16:.L.str.33
	movs	r3, #0
	bl	StringChangeLine
	.loc	1 1215 63 is_stmt 1             @ ../Core/Src/uiPro.c:1215:63
	movw	r0, :lower16:ResetStateStr
	movt	r0, :upper16:ResetStateStr
	ldrb	r2, [r0, #7]
	.loc	1 1215 60 is_stmt 0             @ ../Core/Src/uiPro.c:1215:60
	movw	r1, :lower16:comVariableBlock
	movt	r1, :upper16:comVariableBlock
	ldrb	r0, [r1, #7]
	ands	r0, r2
	strb	r0, [r1, #7]
.Ltmp384:
	.loc	1 1216 25 is_stmt 1             @ ../Core/Src/uiPro.c:1216:25
	ldr	r0, [sp, #196]
	.loc	1 1216 24 is_stmt 0             @ ../Core/Src/uiPro.c:1216:24
	ldrb	r0, [r0]
.Ltmp385:
	.loc	1 1216 24                       @ ../Core/Src/uiPro.c:1216:24
	cmp	r0, #2
	bne	.LBB3_190
	b	.LBB3_189
.LBB3_189:
	.loc	1 0 24                          @ ../Core/Src/uiPro.c:0:24
	add.w	r0, sp, #146
	movs	r1, #2
	str	r1, [sp, #36]                   @ 4-byte Spill
	movs	r2, #0
	str	r2, [sp, #28]                   @ 4-byte Spill
	mov.w	r3, #1000
.Ltmp386:
	.loc	1 1218 7 is_stmt 1              @ ../Core/Src/uiPro.c:1218:7
	str	r3, [sp, #32]                   @ 4-byte Spill
	bl	OutWindowsTxt2
	ldr	r2, [sp, #28]                   @ 4-byte Reload
	ldr	r1, [sp, #32]                   @ 4-byte Reload
                                        @ kill: def $r3 killed $r0
	.loc	1 1219 26                       @ ../Core/Src/uiPro.c:1219:26
	ldr	r0, [sp, #36]                   @ 4-byte Reload
	ldr	r3, [sp, #196]
	.loc	1 1219 42 is_stmt 0             @ ../Core/Src/uiPro.c:1219:42
	strb	r2, [r3]
	.loc	1 1220 25 is_stmt 1             @ ../Core/Src/uiPro.c:1220:25
	bl	MeasurResultTransmit
	.loc	1 1221 35                       @ ../Core/Src/uiPro.c:1221:35
	movw	r0, :lower16:PageKeyVoltage_T.Result
	movt	r0, :upper16:PageKeyVoltage_T.Result
	movs	r1, #1
	strb	r1, [r0, #1]
	.loc	1 1222 35                       @ ../Core/Src/uiPro.c:1222:35
	strb	r1, [r0]
	.loc	1 1223 25                       @ ../Core/Src/uiPro.c:1223:25
	str	r0, [sp, #204]
	b	.LBB3_217
.Ltmp387:
.LBB3_190:
	.loc	1 0 25 is_stmt 0                @ ../Core/Src/uiPro.c:0:25
	b	.LBB3_191
.LBB3_191:
	.loc	1 1228 13 is_stmt 1             @ ../Core/Src/uiPro.c:1228:13
	b	.LBB3_207
.Ltmp388:
.LBB3_192:
	.loc	1 1229 21                       @ ../Core/Src/uiPro.c:1229:21
	movw	r0, :lower16:PageKeyVoltage_T.SmallStep
	movt	r0, :upper16:PageKeyVoltage_T.SmallStep
	ldrb	r0, [r0]
.Ltmp389:
	.loc	1 1229 21 is_stmt 0             @ ../Core/Src/uiPro.c:1229:21
	cmp	r0, #10
	bne	.LBB3_197
	b	.LBB3_193
.LBB3_193:
	.loc	1 0 21                          @ ../Core/Src/uiPro.c:0:21
	movw	r1, #6168
	movt	r1, #16386
	str	r1, [sp, #24]                   @ 4-byte Spill
	mov.w	r0, #134217728
.Ltmp390:
	.loc	1 1231 17 is_stmt 1             @ ../Core/Src/uiPro.c:1231:17
	str	r0, [r1]
	movw	r2, #3096
	movt	r2, #16386
	.loc	1 1232 17                       @ ../Core/Src/uiPro.c:1232:17
	str	r0, [r2]
	mov.w	r0, #524288
	.loc	1 1233 17                       @ ../Core/Src/uiPro.c:1233:17
	str	r0, [r1]
	mov.w	r0, #4194304
	.loc	1 1234 17                       @ ../Core/Src/uiPro.c:1234:17
	str	r0, [r1]
	mov.w	r0, #2097152
	.loc	1 1235 17                       @ ../Core/Src/uiPro.c:1235:17
	str	r0, [r1]
	mov.w	r0, #1048576
	.loc	1 1236 17                       @ ../Core/Src/uiPro.c:1236:17
	str	r0, [r1]
	mov.w	r0, #8388608
	.loc	1 1237 17                       @ ../Core/Src/uiPro.c:1237:17
	str	r0, [r1]
	mov.w	r0, #16777216
	.loc	1 1238 17                       @ ../Core/Src/uiPro.c:1238:17
	str	r0, [r1]
	mov.w	r0, #33554432
	.loc	1 1239 17                       @ ../Core/Src/uiPro.c:1239:17
	str	r0, [r1]
.Ltmp391:
	.loc	1 1242 21                       @ ../Core/Src/uiPro.c:1242:21
	ldr	r0, [sp, #196]
	.loc	1 1242 20 is_stmt 0             @ ../Core/Src/uiPro.c:1242:20
	ldrb	r0, [r0]
.Ltmp392:
	.loc	1 1242 20                       @ ../Core/Src/uiPro.c:1242:20
	cmp	r0, #2
	bne	.LBB3_195
	b	.LBB3_194
.LBB3_194:
.Ltmp393:
	.loc	1 1244 22 is_stmt 1             @ ../Core/Src/uiPro.c:1244:22
	ldr	r1, [sp, #196]
	movs	r0, #0
	.loc	1 1244 38 is_stmt 0             @ ../Core/Src/uiPro.c:1244:38
	strb	r0, [r1]
	.loc	1 1245 31 is_stmt 1             @ ../Core/Src/uiPro.c:1245:31
	movw	r1, :lower16:PageKeyVoltage_T.SmallStep
	movt	r1, :upper16:PageKeyVoltage_T.SmallStep
	movs	r0, #12
	strb	r0, [r1]
	.loc	1 1246 17                       @ ../Core/Src/uiPro.c:1246:17
	b	.LBB3_196
.Ltmp394:
.LBB3_195:
	.loc	1 1249 31                       @ ../Core/Src/uiPro.c:1249:31
	movw	r1, :lower16:PageKeyVoltage_T.SmallStep
	movt	r1, :upper16:PageKeyVoltage_T.SmallStep
	movs	r0, #11
	strb	r0, [r1]
	b	.LBB3_196
.Ltmp395:
.LBB3_196:
	.loc	1 1253 13                       @ ../Core/Src/uiPro.c:1253:13
	b	.LBB3_206
.Ltmp396:
.LBB3_197:
	.loc	1 1254 21                       @ ../Core/Src/uiPro.c:1254:21
	movw	r0, :lower16:PageKeyVoltage_T.SmallStep
	movt	r0, :upper16:PageKeyVoltage_T.SmallStep
	ldrb	r0, [r0]
.Ltmp397:
	.loc	1 1254 21 is_stmt 0             @ ../Core/Src/uiPro.c:1254:21
	cmp	r0, #11
	bne.w	.LBB3_202
	b	.LBB3_198
.LBB3_198:
.Ltmp398:
	.loc	1 1258 27 is_stmt 1             @ ../Core/Src/uiPro.c:1258:27
	movw	r1, :lower16:PageKeyVoltage_T.SmallStep
	movt	r1, :upper16:PageKeyVoltage_T.SmallStep
	movs	r0, #12
	strb	r0, [r1]
	.loc	1 1261 43                       @ ../Core/Src/uiPro.c:1261:43
	ldr	r0, [sp, #200]
	ldr	r0, [r0, #16]
	bl	__aeabi_f2d
	vmov	d0, r0, r1
	.loc	1 1261 17 is_stmt 0             @ ../Core/Src/uiPro.c:1261:17
	vmov	r2, r3, d0
	movw	r0, :lower16:PageKeyVoltage_T.StrTemp
	movt	r0, :upper16:PageKeyVoltage_T.StrTemp
	str	r0, [sp, #8]                    @ 4-byte Spill
	movw	r1, :lower16:.L.str.9
	movt	r1, :upper16:.L.str.9
	str	r1, [sp, #4]                    @ 4-byte Spill
	bl	sprintf
	ldr	r2, [sp, #8]                    @ 4-byte Reload
	.loc	1 1262 34 is_stmt 1             @ ../Core/Src/uiPro.c:1262:34
	ldr	r3, [sp, #200]
	movw	r12, #11376
	.loc	1 1262 97 is_stmt 0             @ ../Core/Src/uiPro.c:1262:97
	str.w	r12, [sp, #20]                  @ 4-byte Spill
	ldrb.w	r1, [r3, r12]
	movs	r0, #200
	.loc	1 1262 50                       @ ../Core/Src/uiPro.c:1262:50
	str	r0, [sp, #16]                   @ 4-byte Spill
	smlabb	r0, r1, r0, r3
	.loc	1 1262 97                       @ ../Core/Src/uiPro.c:1262:97
	adds	r1, #1
	strb.w	r1, [r3, r12]
	.loc	1 1262 34                       @ ../Core/Src/uiPro.c:1262:34
	add.w	r0, r0, #1376
	.loc	1 1262 17                       @ ../Core/Src/uiPro.c:1262:17
	movw	r1, :lower16:.L.str.90
	movt	r1, :upper16:.L.str.90
	movs	r3, #1
	str	r3, [sp, #12]                   @ 4-byte Spill
	bl	StringChangeLine
	.loc	1 1263 43 is_stmt 1             @ ../Core/Src/uiPro.c:1263:43
	ldr	r0, [sp, #200]
	ldr	r0, [r0, #20]
	bl	__aeabi_f2d
	mov	r2, r0
	ldr	r0, [sp, #8]                    @ 4-byte Reload
	mov	r3, r1
	ldr	r1, [sp, #4]                    @ 4-byte Reload
	vmov	d0, r2, r3
	.loc	1 1263 17 is_stmt 0             @ ../Core/Src/uiPro.c:1263:17
	vmov	r2, r3, d0
	bl	sprintf
	ldr	r2, [sp, #8]                    @ 4-byte Reload
	ldr	r3, [sp, #12]                   @ 4-byte Reload
	ldr.w	lr, [sp, #20]                   @ 4-byte Reload
                                        @ kill: def $r1 killed $r0
	.loc	1 1264 34 is_stmt 1             @ ../Core/Src/uiPro.c:1264:34
	ldr	r0, [sp, #16]                   @ 4-byte Reload
	ldr.w	r12, [sp, #200]
	.loc	1 1264 97 is_stmt 0             @ ../Core/Src/uiPro.c:1264:97
	ldrb.w	r1, [r12, lr]
	.loc	1 1264 50                       @ ../Core/Src/uiPro.c:1264:50
	smlabb	r0, r1, r0, r12
	.loc	1 1264 97                       @ ../Core/Src/uiPro.c:1264:97
	adds	r1, #1
	strb.w	r1, [r12, lr]
	.loc	1 1264 34                       @ ../Core/Src/uiPro.c:1264:34
	add.w	r0, r0, #1376
	.loc	1 1264 17                       @ ../Core/Src/uiPro.c:1264:17
	movw	r1, :lower16:.L.str.91
	movt	r1, :upper16:.L.str.91
	bl	StringChangeLine
	.loc	1 1265 43 is_stmt 1             @ ../Core/Src/uiPro.c:1265:43
	ldr	r0, [sp, #200]
	ldr	r0, [r0, #24]
	bl	__aeabi_f2d
	mov	r2, r0
	ldr	r0, [sp, #8]                    @ 4-byte Reload
	mov	r3, r1
	ldr	r1, [sp, #4]                    @ 4-byte Reload
	vmov	d0, r2, r3
	.loc	1 1265 17 is_stmt 0             @ ../Core/Src/uiPro.c:1265:17
	vmov	r2, r3, d0
	bl	sprintf
	ldr	r2, [sp, #8]                    @ 4-byte Reload
	ldr	r3, [sp, #12]                   @ 4-byte Reload
	ldr.w	lr, [sp, #20]                   @ 4-byte Reload
                                        @ kill: def $r1 killed $r0
	.loc	1 1266 34 is_stmt 1             @ ../Core/Src/uiPro.c:1266:34
	ldr	r0, [sp, #16]                   @ 4-byte Reload
	ldr.w	r12, [sp, #200]
	.loc	1 1266 97 is_stmt 0             @ ../Core/Src/uiPro.c:1266:97
	ldrb.w	r1, [r12, lr]
	.loc	1 1266 50                       @ ../Core/Src/uiPro.c:1266:50
	smlabb	r0, r1, r0, r12
	.loc	1 1266 97                       @ ../Core/Src/uiPro.c:1266:97
	adds	r1, #1
	strb.w	r1, [r12, lr]
	.loc	1 1266 34                       @ ../Core/Src/uiPro.c:1266:34
	add.w	r0, r0, #1376
	.loc	1 1266 17                       @ ../Core/Src/uiPro.c:1266:17
	movw	r1, :lower16:.L.str.92
	movt	r1, :upper16:.L.str.92
	bl	StringChangeLine
	.loc	1 1267 43 is_stmt 1             @ ../Core/Src/uiPro.c:1267:43
	ldr	r0, [sp, #200]
	ldr	r0, [r0, #28]
	bl	__aeabi_f2d
	mov	r2, r0
	ldr	r0, [sp, #8]                    @ 4-byte Reload
	mov	r3, r1
	ldr	r1, [sp, #4]                    @ 4-byte Reload
	vmov	d0, r2, r3
	.loc	1 1267 17 is_stmt 0             @ ../Core/Src/uiPro.c:1267:17
	vmov	r2, r3, d0
	bl	sprintf
	ldr	r2, [sp, #8]                    @ 4-byte Reload
	ldr	r3, [sp, #12]                   @ 4-byte Reload
	ldr.w	lr, [sp, #20]                   @ 4-byte Reload
                                        @ kill: def $r1 killed $r0
	.loc	1 1268 34 is_stmt 1             @ ../Core/Src/uiPro.c:1268:34
	ldr	r0, [sp, #16]                   @ 4-byte Reload
	ldr.w	r12, [sp, #200]
	.loc	1 1268 97 is_stmt 0             @ ../Core/Src/uiPro.c:1268:97
	ldrb.w	r1, [r12, lr]
	.loc	1 1268 50                       @ ../Core/Src/uiPro.c:1268:50
	smlabb	r0, r1, r0, r12
	.loc	1 1268 97                       @ ../Core/Src/uiPro.c:1268:97
	adds	r1, #1
	strb.w	r1, [r12, lr]
	.loc	1 1268 34                       @ ../Core/Src/uiPro.c:1268:34
	add.w	r0, r0, #1376
	.loc	1 1268 17                       @ ../Core/Src/uiPro.c:1268:17
	movw	r1, :lower16:.L.str.93
	movt	r1, :upper16:.L.str.93
	bl	StringChangeLine
	.loc	1 1269 43 is_stmt 1             @ ../Core/Src/uiPro.c:1269:43
	ldr	r0, [sp, #200]
	ldr	r0, [r0, #32]
	bl	__aeabi_f2d
	mov	r2, r0
	ldr	r0, [sp, #8]                    @ 4-byte Reload
	mov	r3, r1
	ldr	r1, [sp, #4]                    @ 4-byte Reload
	vmov	d0, r2, r3
	.loc	1 1269 17 is_stmt 0             @ ../Core/Src/uiPro.c:1269:17
	vmov	r2, r3, d0
	bl	sprintf
	ldr	r2, [sp, #8]                    @ 4-byte Reload
	ldr	r3, [sp, #12]                   @ 4-byte Reload
	ldr.w	lr, [sp, #20]                   @ 4-byte Reload
                                        @ kill: def $r1 killed $r0
	.loc	1 1270 34 is_stmt 1             @ ../Core/Src/uiPro.c:1270:34
	ldr	r0, [sp, #16]                   @ 4-byte Reload
	ldr.w	r12, [sp, #200]
	.loc	1 1270 97 is_stmt 0             @ ../Core/Src/uiPro.c:1270:97
	ldrb.w	r1, [r12, lr]
	.loc	1 1270 50                       @ ../Core/Src/uiPro.c:1270:50
	smlabb	r0, r1, r0, r12
	.loc	1 1270 97                       @ ../Core/Src/uiPro.c:1270:97
	adds	r1, #1
	strb.w	r1, [r12, lr]
	.loc	1 1270 34                       @ ../Core/Src/uiPro.c:1270:34
	add.w	r0, r0, #1376
	.loc	1 1270 17                       @ ../Core/Src/uiPro.c:1270:17
	movw	r1, :lower16:.L.str.94
	movt	r1, :upper16:.L.str.94
	bl	StringChangeLine
	.loc	1 1271 43 is_stmt 1             @ ../Core/Src/uiPro.c:1271:43
	ldr	r0, [sp, #200]
	ldr	r0, [r0, #36]
	bl	__aeabi_f2d
	mov	r2, r0
	ldr	r0, [sp, #8]                    @ 4-byte Reload
	mov	r3, r1
	ldr	r1, [sp, #4]                    @ 4-byte Reload
	vmov	d0, r2, r3
	.loc	1 1271 17 is_stmt 0             @ ../Core/Src/uiPro.c:1271:17
	vmov	r2, r3, d0
	bl	sprintf
	ldr	r2, [sp, #8]                    @ 4-byte Reload
	ldr	r3, [sp, #12]                   @ 4-byte Reload
	ldr.w	lr, [sp, #20]                   @ 4-byte Reload
                                        @ kill: def $r1 killed $r0
	.loc	1 1272 34 is_stmt 1             @ ../Core/Src/uiPro.c:1272:34
	ldr	r0, [sp, #16]                   @ 4-byte Reload
	ldr.w	r12, [sp, #200]
	.loc	1 1272 97 is_stmt 0             @ ../Core/Src/uiPro.c:1272:97
	ldrb.w	r1, [r12, lr]
	.loc	1 1272 50                       @ ../Core/Src/uiPro.c:1272:50
	smlabb	r0, r1, r0, r12
	.loc	1 1272 97                       @ ../Core/Src/uiPro.c:1272:97
	adds	r1, #1
	strb.w	r1, [r12, lr]
	.loc	1 1272 34                       @ ../Core/Src/uiPro.c:1272:34
	add.w	r0, r0, #1376
	.loc	1 1272 17                       @ ../Core/Src/uiPro.c:1272:17
	movw	r1, :lower16:.L.str.95
	movt	r1, :upper16:.L.str.95
	bl	StringChangeLine
	.loc	1 1273 43 is_stmt 1             @ ../Core/Src/uiPro.c:1273:43
	ldr	r0, [sp, #200]
	ldr	r0, [r0, #40]
	bl	__aeabi_f2d
	mov	r2, r0
	ldr	r0, [sp, #8]                    @ 4-byte Reload
	mov	r3, r1
	ldr	r1, [sp, #4]                    @ 4-byte Reload
	vmov	d0, r2, r3
	.loc	1 1273 17 is_stmt 0             @ ../Core/Src/uiPro.c:1273:17
	vmov	r2, r3, d0
	bl	sprintf
	ldr	r2, [sp, #8]                    @ 4-byte Reload
	ldr	r3, [sp, #12]                   @ 4-byte Reload
	ldr.w	lr, [sp, #20]                   @ 4-byte Reload
                                        @ kill: def $r1 killed $r0
	.loc	1 1274 34 is_stmt 1             @ ../Core/Src/uiPro.c:1274:34
	ldr	r0, [sp, #16]                   @ 4-byte Reload
	ldr.w	r12, [sp, #200]
	.loc	1 1274 97 is_stmt 0             @ ../Core/Src/uiPro.c:1274:97
	ldrb.w	r1, [r12, lr]
	.loc	1 1274 50                       @ ../Core/Src/uiPro.c:1274:50
	smlabb	r0, r1, r0, r12
	.loc	1 1274 97                       @ ../Core/Src/uiPro.c:1274:97
	adds	r1, #1
	strb.w	r1, [r12, lr]
	.loc	1 1274 34                       @ ../Core/Src/uiPro.c:1274:34
	add.w	r0, r0, #1376
	.loc	1 1274 17                       @ ../Core/Src/uiPro.c:1274:17
	movw	r1, :lower16:.L.str.96
	movt	r1, :upper16:.L.str.96
	bl	StringChangeLine
	.loc	1 1275 43 is_stmt 1             @ ../Core/Src/uiPro.c:1275:43
	ldr	r0, [sp, #200]
	ldr	r0, [r0, #44]
	bl	__aeabi_f2d
	mov	r2, r0
	ldr	r0, [sp, #8]                    @ 4-byte Reload
	mov	r3, r1
	ldr	r1, [sp, #4]                    @ 4-byte Reload
	vmov	d0, r2, r3
	.loc	1 1275 17 is_stmt 0             @ ../Core/Src/uiPro.c:1275:17
	vmov	r2, r3, d0
	bl	sprintf
	ldr	r2, [sp, #8]                    @ 4-byte Reload
	ldr	r3, [sp, #12]                   @ 4-byte Reload
	ldr.w	lr, [sp, #20]                   @ 4-byte Reload
                                        @ kill: def $r1 killed $r0
	.loc	1 1276 34 is_stmt 1             @ ../Core/Src/uiPro.c:1276:34
	ldr	r0, [sp, #16]                   @ 4-byte Reload
	ldr.w	r12, [sp, #200]
	.loc	1 1276 97 is_stmt 0             @ ../Core/Src/uiPro.c:1276:97
	ldrb.w	r1, [r12, lr]
	.loc	1 1276 50                       @ ../Core/Src/uiPro.c:1276:50
	smlabb	r0, r1, r0, r12
	.loc	1 1276 97                       @ ../Core/Src/uiPro.c:1276:97
	adds	r1, #1
	strb.w	r1, [r12, lr]
	.loc	1 1276 34                       @ ../Core/Src/uiPro.c:1276:34
	add.w	r0, r0, #1376
	.loc	1 1276 17                       @ ../Core/Src/uiPro.c:1276:17
	movw	r1, :lower16:.L.str.97
	movt	r1, :upper16:.L.str.97
	bl	StringChangeLine
	ldr	r3, [sp, #12]                   @ 4-byte Reload
	ldr	r0, [sp, #16]                   @ 4-byte Reload
	ldr.w	r12, [sp, #20]                  @ 4-byte Reload
	.loc	1 1280 34 is_stmt 1             @ ../Core/Src/uiPro.c:1280:34
	ldr	r2, [sp, #200]
	.loc	1 1280 97 is_stmt 0             @ ../Core/Src/uiPro.c:1280:97
	ldrb.w	r1, [r2, r12]
	.loc	1 1280 50                       @ ../Core/Src/uiPro.c:1280:50
	smlabb	r0, r1, r0, r2
	.loc	1 1280 97                       @ ../Core/Src/uiPro.c:1280:97
	adds	r1, #1
	strb.w	r1, [r2, r12]
	.loc	1 1280 34                       @ ../Core/Src/uiPro.c:1280:34
	add.w	r0, r0, #1376
	.loc	1 1280 17                       @ ../Core/Src/uiPro.c:1280:17
	movw	r1, :lower16:.L.str.23
	movt	r1, :upper16:.L.str.23
	movw	r2, :lower16:.L.str.24
	movt	r2, :upper16:.L.str.24
	bl	StringChangeLine
	ldr	r0, [sp, #16]                   @ 4-byte Reload
	ldr	r3, [sp, #20]                   @ 4-byte Reload
	.loc	1 1281 34 is_stmt 1             @ ../Core/Src/uiPro.c:1281:34
	ldr	r2, [sp, #200]
	.loc	1 1281 97 is_stmt 0             @ ../Core/Src/uiPro.c:1281:97
	ldrb	r1, [r2, r3]
	.loc	1 1281 50                       @ ../Core/Src/uiPro.c:1281:50
	smlabb	r0, r1, r0, r2
	.loc	1 1281 97                       @ ../Core/Src/uiPro.c:1281:97
	adds	r1, #1
	strb	r1, [r2, r3]
	.loc	1 1281 34                       @ ../Core/Src/uiPro.c:1281:34
	add.w	r0, r0, #1376
	.loc	1 1281 17                       @ ../Core/Src/uiPro.c:1281:17
	movw	r1, :lower16:.L.str.25
	movt	r1, :upper16:.L.str.25
	movw	r2, :lower16:.L.str.98
	movt	r2, :upper16:.L.str.98
	movs	r3, #0
	bl	StringChangeLine
.Ltmp399:
	.loc	1 1285 38 is_stmt 1             @ ../Core/Src/uiPro.c:1285:38
	movw	r0, :lower16:comVariableBlock
	movt	r0, :upper16:comVariableBlock
	.loc	1 1285 21 is_stmt 0             @ ../Core/Src/uiPro.c:1285:21
	ldrb	r0, [r0, #7]
	.loc	1 1285 59                       @ ../Core/Src/uiPro.c:1285:59
	and	r0, r0, #77
.Ltmp400:
	.loc	1 1285 20                       @ ../Core/Src/uiPro.c:1285:20
	cmp	r0, #77
	bne	.LBB3_200
	b	.LBB3_199
.LBB3_199:
.Ltmp401:
	.loc	1 1287 38 is_stmt 1             @ ../Core/Src/uiPro.c:1287:38
	ldr	r2, [sp, #200]
	movw	r3, #11376
	.loc	1 1287 101 is_stmt 0            @ ../Core/Src/uiPro.c:1287:101
	ldrb	r1, [r2, r3]
	movs	r0, #200
	.loc	1 1287 54                       @ ../Core/Src/uiPro.c:1287:54
	smlabb	r0, r1, r0, r2
	.loc	1 1287 101                      @ ../Core/Src/uiPro.c:1287:101
	adds	r1, #1
	strb	r1, [r2, r3]
	.loc	1 1287 38                       @ ../Core/Src/uiPro.c:1287:38
	add.w	r0, r0, #1376
	.loc	1 1287 21                       @ ../Core/Src/uiPro.c:1287:21
	movw	r1, :lower16:.L.str.31
	movt	r1, :upper16:.L.str.31
	movw	r2, :lower16:.L.str.32
	movt	r2, :upper16:.L.str.32
	movs	r3, #1
	bl	StringChangeLine
	.loc	1 1289 17 is_stmt 1             @ ../Core/Src/uiPro.c:1289:17
	b	.LBB3_201
.Ltmp402:
.LBB3_200:
	.loc	1 1292 38                       @ ../Core/Src/uiPro.c:1292:38
	ldr	r2, [sp, #200]
	movw	r3, #11376
	.loc	1 1292 101 is_stmt 0            @ ../Core/Src/uiPro.c:1292:101
	ldrb	r1, [r2, r3]
	movs	r0, #200
	.loc	1 1292 54                       @ ../Core/Src/uiPro.c:1292:54
	smlabb	r0, r1, r0, r2
	.loc	1 1292 101                      @ ../Core/Src/uiPro.c:1292:101
	adds	r1, #1
	strb	r1, [r2, r3]
	.loc	1 1292 38                       @ ../Core/Src/uiPro.c:1292:38
	add.w	r0, r0, #1376
	.loc	1 1292 21                       @ ../Core/Src/uiPro.c:1292:21
	movw	r1, :lower16:.L.str.31
	movt	r1, :upper16:.L.str.31
	movw	r2, :lower16:.L.str.34
	movt	r2, :upper16:.L.str.34
	movs	r3, #1
	bl	StringChangeLine
	b	.LBB3_201
.Ltmp403:
.LBB3_201:
	.loc	1 1295 45 is_stmt 1             @ ../Core/Src/uiPro.c:1295:45
	ldr	r0, [sp, #200]
	.loc	1 1295 61 is_stmt 0             @ ../Core/Src/uiPro.c:1295:61
	add.w	r1, r0, #1376
	movw	r2, #11376
	.loc	1 1295 94                       @ ../Core/Src/uiPro.c:1295:94
	ldrb	r2, [r0, r2]
	.loc	1 1295 17                       @ ../Core/Src/uiPro.c:1295:17
	movw	r0, :lower16:USART_Data
	movt	r0, :upper16:USART_Data
	mov.w	r3, #1000
	bl	ScreenTransmit
	.loc	1 1298 13 is_stmt 1             @ ../Core/Src/uiPro.c:1298:13
	b	.LBB3_205
.Ltmp404:
.LBB3_202:
	.loc	1 1299 21                       @ ../Core/Src/uiPro.c:1299:21
	movw	r0, :lower16:PageKeyVoltage_T.SmallStep
	movt	r0, :upper16:PageKeyVoltage_T.SmallStep
	ldrb	r0, [r0]
.Ltmp405:
	.loc	1 1299 21 is_stmt 0             @ ../Core/Src/uiPro.c:1299:21
	cmp	r0, #12
	bne	.LBB3_204
	b	.LBB3_203
.LBB3_203:
.Ltmp406:
	.loc	1 1301 22 is_stmt 1             @ ../Core/Src/uiPro.c:1301:22
	movw	r1, :lower16:PageKeyVoltage_T.Step
	movt	r1, :upper16:PageKeyVoltage_T.Step
	movs	r0, #0
	strb	r0, [r1]
	.loc	1 1302 27                       @ ../Core/Src/uiPro.c:1302:27
	movw	r2, :lower16:PageKeyVoltage_T.SmallStep
	movt	r2, :upper16:PageKeyVoltage_T.SmallStep
	movs	r1, #1
	strb	r1, [r2]
	.loc	1 1303 18                       @ ../Core/Src/uiPro.c:1303:18
	ldr	r2, [sp, #196]
	.loc	1 1303 34 is_stmt 0             @ ../Core/Src/uiPro.c:1303:34
	strb	r0, [r2]
	.loc	1 1304 27 is_stmt 1             @ ../Core/Src/uiPro.c:1304:27
	movw	r0, :lower16:PageKeyVoltage_T.Result
	movt	r0, :upper16:PageKeyVoltage_T.Result
	strb	r1, [r0]
	.loc	1 1305 17                       @ ../Core/Src/uiPro.c:1305:17
	str	r0, [sp, #204]
	b	.LBB3_217
.Ltmp407:
.LBB3_204:
	.loc	1 0 17 is_stmt 0                @ ../Core/Src/uiPro.c:0:17
	b	.LBB3_205
.LBB3_205:
	b	.LBB3_206
.LBB3_206:
	b	.LBB3_207
.LBB3_207:
	b	.LBB3_208
.LBB3_208:
	b	.LBB3_209
.LBB3_209:
	b	.LBB3_210
.LBB3_210:
	b	.LBB3_211
.LBB3_211:
	b	.LBB3_212
.LBB3_212:
	b	.LBB3_213
.LBB3_213:
	b	.LBB3_214
.LBB3_214:
	b	.LBB3_215
.LBB3_215:
	.loc	1 1309 9 is_stmt 1              @ ../Core/Src/uiPro.c:1309:9
	b	.LBB3_216
.Ltmp408:
.LBB3_216:
	.loc	1 1312 15                       @ ../Core/Src/uiPro.c:1312:15
	movw	r0, :lower16:PageKeyVoltage_T.Result
	movt	r0, :upper16:PageKeyVoltage_T.Result
	movs	r1, #0
	strb	r1, [r0]
	.loc	1 1313 5                        @ ../Core/Src/uiPro.c:1313:5
	str	r0, [sp, #204]
	b	.LBB3_217
.LBB3_217:
	.loc	1 1315 1                        @ ../Core/Src/uiPro.c:1315:1
	ldr	r0, [sp, #204]
	add	sp, #208
	pop	{r7, pc}
.Ltmp409:
.Lfunc_end3:
	.size	PageKeyVoltage_T, .Lfunc_end3-PageKeyVoltage_T
	.cfi_endproc
	.cantunwind
	.fnend
                                        @ -- End function
	.section	.text.NixieTube,"ax",%progbits
	.hidden	NixieTube                       @ -- Begin function NixieTube
	.globl	NixieTube
	.p2align	2
	.type	NixieTube,%function
	.code	16                              @ @NixieTube
	.thumb_func
NixieTube:
.Lfunc_begin4:
	.loc	1 1320 0                        @ ../Core/Src/uiPro.c:1320:0
	.fnstart
	.cfi_startproc
@ %bb.0:
	.save	{r7, lr}
	push	{r7, lr}
	.cfi_def_cfa_offset 8
	.cfi_offset lr, -4
	.cfi_offset r7, -8
	.pad	#16
	sub	sp, #16
	.cfi_def_cfa_offset 24
	str	r0, [sp, #8]
	movs	r0, #0
.Ltmp410:
	.loc	1 1323 10 prologue_end          @ ../Core/Src/uiPro.c:1323:10
	strb.w	r0, [sp, #7]
	.loc	1 1325 12                       @ ../Core/Src/uiPro.c:1325:12
	movw	r0, :lower16:NixieTube.Step
	movt	r0, :upper16:NixieTube.Step
	ldrb	r0, [r0]
	.loc	1 1325 5 is_stmt 0              @ ../Core/Src/uiPro.c:1325:5
	mov	r1, r0
	str	r1, [sp]                        @ 4-byte Spill
	cbz	r0, .LBB4_2
	b	.LBB4_1
.LBB4_1:
	ldr	r0, [sp]                        @ 4-byte Reload
	cmp	r0, #1
	beq	.LBB4_3
	b	.LBB4_18
.LBB4_2:
.Ltmp411:
	.loc	1 1329 46 is_stmt 1             @ ../Core/Src/uiPro.c:1329:46
	movw	r1, :lower16:comVariableBlock
	movt	r1, :upper16:comVariableBlock
	movs	r0, #0
	strb	r0, [r1, #9]
	.loc	1 1330 18                       @ ../Core/Src/uiPro.c:1330:18
	movw	r1, :lower16:NixieTube.Step
	movt	r1, :upper16:NixieTube.Step
	movs	r0, #1
	strb	r0, [r1]
.Ltmp412:
	.loc	1 1332 9                        @ ../Core/Src/uiPro.c:1332:9
	b	.LBB4_18
.LBB4_3:
	.loc	1 0 9 is_stmt 0                 @ ../Core/Src/uiPro.c:0:9
	movs	r0, #0
.Ltmp413:
	.loc	1 1336 19 is_stmt 1             @ ../Core/Src/uiPro.c:1336:19
	strb.w	r0, [sp, #7]
	.loc	1 1336 17 is_stmt 0             @ ../Core/Src/uiPro.c:1336:17
	b	.LBB4_4
.LBB4_4:                                @ =>This Inner Loop Header: Depth=1
.Ltmp414:
	.loc	1 1336 24                       @ ../Core/Src/uiPro.c:1336:24
	ldrb.w	r0, [sp, #7]
.Ltmp415:
	.loc	1 1336 13                       @ ../Core/Src/uiPro.c:1336:13
	cmp	r0, #7
	bgt.w	.LBB4_15
	b	.LBB4_5
.LBB4_5:                                @   in Loop: Header=BB4_4 Depth=1
.Ltmp416:
	.loc	1 1338 35 is_stmt 1             @ ../Core/Src/uiPro.c:1338:35
	ldrb.w	r0, [sp, #7]
	movs	r1, #0
	mov.w	r2, #1000
	.loc	1 1338 17 is_stmt 0             @ ../Core/Src/uiPro.c:1338:17
	bl	NixieTubeTransmit
	movs	r0, #30
	.loc	1 1339 17 is_stmt 1             @ ../Core/Src/uiPro.c:1339:17
	bl	My_Delay
.Ltmp417:
	.loc	1 1341 37                       @ ../Core/Src/uiPro.c:1341:37
	ldrb.w	r1, [sp, #7]
	.loc	1 1341 21 is_stmt 0             @ ../Core/Src/uiPro.c:1341:21
	movw	r0, :lower16:IO_IN_GPIO_Port
	movt	r0, :upper16:IO_IN_GPIO_Port
	ldr.w	r0, [r0, r1, lsl #2]
	.loc	1 1341 41                       @ ../Core/Src/uiPro.c:1341:41
	ldr	r0, [r0, #16]
	.loc	1 1341 57                       @ ../Core/Src/uiPro.c:1341:57
	ldrb.w	r2, [sp, #7]
	.loc	1 1341 47                       @ ../Core/Src/uiPro.c:1341:47
	movw	r1, :lower16:IO_IN_Pin
	movt	r1, :upper16:IO_IN_Pin
	ldrh.w	r1, [r1, r2, lsl #1]
.Ltmp418:
	.loc	1 1341 20                       @ ../Core/Src/uiPro.c:1341:20
	tst	r0, r1
	bne	.LBB4_9
	b	.LBB4_6
.LBB4_6:                                @   in Loop: Header=BB4_4 Depth=1
.Ltmp419:
	.loc	1 1343 69 is_stmt 1             @ ../Core/Src/uiPro.c:1343:69
	ldrb.w	r1, [sp, #7]
	.loc	1 1343 57 is_stmt 0             @ ../Core/Src/uiPro.c:1343:57
	movw	r0, :lower16:SetStateStr
	movt	r0, :upper16:SetStateStr
	ldrb	r2, [r0, r1]
	.loc	1 1343 54                       @ ../Core/Src/uiPro.c:1343:54
	movw	r1, :lower16:comVariableBlock
	movt	r1, :upper16:comVariableBlock
	ldrb	r0, [r1, #9]
	orrs	r0, r2
	strb	r0, [r1, #9]
.Ltmp420:
	.loc	1 1345 25 is_stmt 1             @ ../Core/Src/uiPro.c:1345:25
	movw	r0, :lower16:.L.str.36
	movt	r0, :upper16:.L.str.36
	movs	r1, #1
	movs	r2, #0
	mov.w	r3, #1000
	bl	OutWindowsTxt2
	.loc	1 1345 24 is_stmt 0             @ ../Core/Src/uiPro.c:1345:24
	ldrb	r0, [r0]
.Ltmp421:
	.loc	1 1345 24                       @ ../Core/Src/uiPro.c:1345:24
	cbz	r0, .LBB4_8
	b	.LBB4_7
.LBB4_7:
	.loc	1 0 24                          @ ../Core/Src/uiPro.c:0:24
	movs	r0, #3
	mov.w	r1, #1000
.Ltmp422:
	.loc	1 1347 10 is_stmt 1             @ ../Core/Src/uiPro.c:1347:10
	bl	MeasurResultTransmit
	.loc	1 1348 17                       @ ../Core/Src/uiPro.c:1348:17
	movw	r0, :lower16:NixieTube.Result
	movt	r0, :upper16:NixieTube.Result
	movs	r1, #1
	strb	r1, [r0, #1]
	.loc	1 1349 35                       @ ../Core/Src/uiPro.c:1349:35
	strb	r1, [r0]
	.loc	1 1350 25                       @ ../Core/Src/uiPro.c:1350:25
	str	r0, [sp, #12]
	b	.LBB4_19
.Ltmp423:
.LBB4_8:                                @   in Loop: Header=BB4_4 Depth=1
	.loc	1 1353 17                       @ ../Core/Src/uiPro.c:1353:17
	b	.LBB4_13
.Ltmp424:
.LBB4_9:
	.loc	1 1356 25                       @ ../Core/Src/uiPro.c:1356:25
	movw	r0, :lower16:.L.str.36
	movt	r0, :upper16:.L.str.36
	movs	r2, #0
	mov.w	r3, #1000
	mov	r1, r2
	bl	OutWindowsTxt2
	.loc	1 1356 24 is_stmt 0             @ ../Core/Src/uiPro.c:1356:24
	ldrb	r0, [r0]
.Ltmp425:
	.loc	1 1356 24                       @ ../Core/Src/uiPro.c:1356:24
	cbz	r0, .LBB4_11
	b	.LBB4_10
.LBB4_10:
	.loc	1 0 24                          @ ../Core/Src/uiPro.c:0:24
	movs	r0, #3
	mov.w	r1, #1000
.Ltmp426:
	.loc	1 1358 7 is_stmt 1              @ ../Core/Src/uiPro.c:1358:7
	bl	MeasurResultTransmit
	.loc	1 1359 6                        @ ../Core/Src/uiPro.c:1359:6
	b	.LBB4_12
.Ltmp427:
.LBB4_11:
	.loc	1 0 6 is_stmt 0                 @ ../Core/Src/uiPro.c:0:6
	movs	r0, #2
	mov.w	r1, #1000
.Ltmp428:
	.loc	1 1361 7 is_stmt 1              @ ../Core/Src/uiPro.c:1361:7
	bl	MeasurResultTransmit
	b	.LBB4_12
.Ltmp429:
.LBB4_12:
	.loc	1 1363 71                       @ ../Core/Src/uiPro.c:1363:71
	ldrb.w	r1, [sp, #7]
	.loc	1 1363 57 is_stmt 0             @ ../Core/Src/uiPro.c:1363:57
	movw	r0, :lower16:ResetStateStr
	movt	r0, :upper16:ResetStateStr
	ldrb	r2, [r0, r1]
	.loc	1 1363 54                       @ ../Core/Src/uiPro.c:1363:54
	movw	r1, :lower16:comVariableBlock
	movt	r1, :upper16:comVariableBlock
	ldrb	r0, [r1, #9]
	ands	r0, r2
	strb	r0, [r1, #9]
	.loc	1 1364 31 is_stmt 1             @ ../Core/Src/uiPro.c:1364:31
	movw	r0, :lower16:NixieTube.Result
	movt	r0, :upper16:NixieTube.Result
	movs	r1, #1
	strb	r1, [r0, #1]
	.loc	1 1365 31                       @ ../Core/Src/uiPro.c:1365:31
	strb	r1, [r0]
	.loc	1 1366 21                       @ ../Core/Src/uiPro.c:1366:21
	str	r0, [sp, #12]
	b	.LBB4_19
.Ltmp430:
.LBB4_13:                               @   in Loop: Header=BB4_4 Depth=1
	.loc	1 1369 35                       @ ../Core/Src/uiPro.c:1369:35
	ldrb.w	r0, [sp, #7]
	movs	r1, #1
	mov.w	r2, #1000
	.loc	1 1369 17 is_stmt 0             @ ../Core/Src/uiPro.c:1369:17
	bl	NixieTubeTransmit
	movs	r0, #10
	.loc	1 1370 17 is_stmt 1             @ ../Core/Src/uiPro.c:1370:17
	bl	My_Delay
	.loc	1 1371 13                       @ ../Core/Src/uiPro.c:1371:13
	b	.LBB4_14
.Ltmp431:
.LBB4_14:                               @   in Loop: Header=BB4_4 Depth=1
	.loc	1 1336 32                       @ ../Core/Src/uiPro.c:1336:32
	ldrb.w	r0, [sp, #7]
	adds	r0, #1
	strb.w	r0, [sp, #7]
	.loc	1 1336 13 is_stmt 0             @ ../Core/Src/uiPro.c:1336:13
	b	.LBB4_4
.Ltmp432:
.LBB4_15:
	.loc	1 1373 16 is_stmt 1             @ ../Core/Src/uiPro.c:1373:16
	ldrb.w	r0, [sp, #7]
.Ltmp433:
	.loc	1 1373 16 is_stmt 0             @ ../Core/Src/uiPro.c:1373:16
	cmp	r0, #8
	bne	.LBB4_17
	b	.LBB4_16
.LBB4_16:
.Ltmp434:
	.loc	1 1375 22 is_stmt 1             @ ../Core/Src/uiPro.c:1375:22
	movw	r0, :lower16:NixieTube.Step
	movt	r0, :upper16:NixieTube.Step
	movs	r1, #0
	strb	r1, [r0]
	.loc	1 1376 27                       @ ../Core/Src/uiPro.c:1376:27
	movw	r0, :lower16:NixieTube.Result
	movt	r0, :upper16:NixieTube.Result
	strb	r1, [r0, #1]
	movs	r1, #1
	.loc	1 1377 27                       @ ../Core/Src/uiPro.c:1377:27
	strb	r1, [r0]
	.loc	1 1378 17                       @ ../Core/Src/uiPro.c:1378:17
	str	r0, [sp, #12]
	b	.LBB4_19
.Ltmp435:
.LBB4_17:
	.loc	1 1382 9                        @ ../Core/Src/uiPro.c:1382:9
	b	.LBB4_18
.Ltmp436:
.LBB4_18:
	.loc	1 1385 15                       @ ../Core/Src/uiPro.c:1385:15
	movw	r0, :lower16:NixieTube.Result
	movt	r0, :upper16:NixieTube.Result
	movs	r1, #0
	strb	r1, [r0]
	.loc	1 1386 5                        @ ../Core/Src/uiPro.c:1386:5
	str	r0, [sp, #12]
	b	.LBB4_19
.LBB4_19:
	.loc	1 1387 1                        @ ../Core/Src/uiPro.c:1387:1
	ldr	r0, [sp, #12]
	add	sp, #16
	pop	{r7, pc}
.Ltmp437:
.Lfunc_end4:
	.size	NixieTube, .Lfunc_end4-NixieTube
	.cfi_endproc
	.cantunwind
	.fnend
                                        @ -- End function
	.section	.text.ExternalInputLine,"ax",%progbits
	.hidden	ExternalInputLine               @ -- Begin function ExternalInputLine
	.globl	ExternalInputLine
	.p2align	2
	.type	ExternalInputLine,%function
	.code	16                              @ @ExternalInputLine
	.thumb_func
ExternalInputLine:
.Lfunc_begin5:
	.loc	1 1391 0                        @ ../Core/Src/uiPro.c:1391:0
	.fnstart
	.cfi_startproc
@ %bb.0:
	.save	{r7, lr}
	push	{r7, lr}
	.cfi_def_cfa_offset 8
	.cfi_offset lr, -4
	.cfi_offset r7, -8
	.pad	#8
	sub	sp, #8
	.cfi_def_cfa_offset 16
	movw	r1, #6168
	movt	r1, #16386
	mov.w	r0, #67108864
.Ltmp438:
	.loc	1 1393 5 prologue_end           @ ../Core/Src/uiPro.c:1393:5
	str	r0, [r1]
	.loc	1 1394 5                        @ ../Core/Src/uiPro.c:1394:5
	movw	r0, :lower16:.L.str.99
	movt	r0, :upper16:.L.str.99
	mov.w	r1, #1000
	bl	SensorInstructionTransmit
.Ltmp439:
	.loc	1 1396 8                        @ ../Core/Src/uiPro.c:1396:8
	movw	r0, :lower16:USART_Data
	movt	r0, :upper16:USART_Data
	movw	r1, #14886
	ldrb	r0, [r0, r1]
.Ltmp440:
	.loc	1 1396 8 is_stmt 0              @ ../Core/Src/uiPro.c:1396:8
	cmp	r0, #48
	bne	.LBB5_2
	b	.LBB5_1
.LBB5_1:
.Ltmp441:
	.loc	1 1398 50 is_stmt 1             @ ../Core/Src/uiPro.c:1398:50
	movw	r1, :lower16:comVariableBlock
	movt	r1, :upper16:comVariableBlock
	movs	r0, #1
	strb	r0, [r1, #10]
	.loc	1 1399 5                        @ ../Core/Src/uiPro.c:1399:5
	b	.LBB5_3
.Ltmp442:
.LBB5_2:
	.loc	1 1402 50                       @ ../Core/Src/uiPro.c:1402:50
	movw	r1, :lower16:comVariableBlock
	movt	r1, :upper16:comVariableBlock
	movs	r0, #0
	strb	r0, [r1, #10]
	b	.LBB5_3
.Ltmp443:
.LBB5_3:
	.loc	1 0 50 is_stmt 0                @ ../Core/Src/uiPro.c:0:50
	movw	r1, #6168
	movt	r1, #16386
	mov.w	r0, #1024
	.loc	1 1405 5 is_stmt 1              @ ../Core/Src/uiPro.c:1405:5
	str	r0, [r1]
	.loc	1 1406 5                        @ ../Core/Src/uiPro.c:1406:5
	movw	r0, :lower16:.L.str.99
	movt	r0, :upper16:.L.str.99
	mov.w	r1, #1000
	bl	SensorInstructionTransmit
.Ltmp444:
	.loc	1 1408 8                        @ ../Core/Src/uiPro.c:1408:8
	movw	r0, :lower16:USART_Data
	movt	r0, :upper16:USART_Data
	movw	r1, #14886
	ldrb	r0, [r0, r1]
.Ltmp445:
	.loc	1 1408 8 is_stmt 0              @ ../Core/Src/uiPro.c:1408:8
	cmp	r0, #49
	bne	.LBB5_5
	b	.LBB5_4
.LBB5_4:
.Ltmp446:
	.loc	1 1410 50 is_stmt 1             @ ../Core/Src/uiPro.c:1410:50
	movw	r1, :lower16:comVariableBlock
	movt	r1, :upper16:comVariableBlock
	movs	r0, #1
	strb	r0, [r1, #10]
	.loc	1 1411 5                        @ ../Core/Src/uiPro.c:1411:5
	b	.LBB5_6
.Ltmp447:
.LBB5_5:
	.loc	1 1414 50                       @ ../Core/Src/uiPro.c:1414:50
	movw	r1, :lower16:comVariableBlock
	movt	r1, :upper16:comVariableBlock
	movs	r0, #0
	strb	r0, [r1, #10]
	b	.LBB5_6
.Ltmp448:
.LBB5_6:
	.loc	1 1417 25                       @ ../Core/Src/uiPro.c:1417:25
	movw	r0, :lower16:comVariableBlock
	movt	r0, :upper16:comVariableBlock
	ldrb	r0, [r0, #10]
.Ltmp449:
	.loc	1 1417 8 is_stmt 0              @ ../Core/Src/uiPro.c:1417:8
	cbz	r0, .LBB5_10
	b	.LBB5_7
.LBB5_7:
.Ltmp450:
	.loc	1 1419 13 is_stmt 1             @ ../Core/Src/uiPro.c:1419:13
	movw	r0, :lower16:.L.str.36
	movt	r0, :upper16:.L.str.36
	movs	r1, #1
	movs	r2, #0
	mov.w	r3, #1000
	bl	OutWindowsTxt2
	.loc	1 1419 12 is_stmt 0             @ ../Core/Src/uiPro.c:1419:12
	ldrb	r0, [r0]
.Ltmp451:
	.loc	1 1419 12                       @ ../Core/Src/uiPro.c:1419:12
	cbz	r0, .LBB5_9
	b	.LBB5_8
.LBB5_8:
	.loc	1 0 12                          @ ../Core/Src/uiPro.c:0:12
	movs	r0, #3
	mov.w	r1, #1000
.Ltmp452:
	.loc	1 1421 4 is_stmt 1              @ ../Core/Src/uiPro.c:1421:4
	bl	MeasurResultTransmit
	.loc	1 1422 14                       @ ../Core/Src/uiPro.c:1422:14
	movw	r0, :lower16:ExternalInputLine.Result
	movt	r0, :upper16:ExternalInputLine.Result
	movs	r1, #1
	strb	r1, [r0, #1]
	.loc	1 1423 14                       @ ../Core/Src/uiPro.c:1423:14
	strb	r1, [r0]
	.loc	1 1424 4                        @ ../Core/Src/uiPro.c:1424:4
	str	r0, [sp, #4]
	b	.LBB5_15
.Ltmp453:
.LBB5_9:
	.loc	1 1426 5                        @ ../Core/Src/uiPro.c:1426:5
	b	.LBB5_14
.Ltmp454:
.LBB5_10:
	.loc	1 1429 13                       @ ../Core/Src/uiPro.c:1429:13
	movw	r0, :lower16:.L.str.36
	movt	r0, :upper16:.L.str.36
	movs	r2, #0
	mov.w	r3, #1000
	mov	r1, r2
	bl	OutWindowsTxt2
	.loc	1 1429 12 is_stmt 0             @ ../Core/Src/uiPro.c:1429:12
	ldrb	r0, [r0]
.Ltmp455:
	.loc	1 1429 12                       @ ../Core/Src/uiPro.c:1429:12
	cbz	r0, .LBB5_12
	b	.LBB5_11
.LBB5_11:
	.loc	1 0 12                          @ ../Core/Src/uiPro.c:0:12
	movs	r0, #3
	mov.w	r1, #1000
.Ltmp456:
	.loc	1 1431 4 is_stmt 1              @ ../Core/Src/uiPro.c:1431:4
	bl	MeasurResultTransmit
	.loc	1 1432 3                        @ ../Core/Src/uiPro.c:1432:3
	b	.LBB5_13
.Ltmp457:
.LBB5_12:
	.loc	1 0 3 is_stmt 0                 @ ../Core/Src/uiPro.c:0:3
	movs	r0, #2
	mov.w	r1, #1000
.Ltmp458:
	.loc	1 1434 4 is_stmt 1              @ ../Core/Src/uiPro.c:1434:4
	bl	MeasurResultTransmit
	b	.LBB5_13
.Ltmp459:
.LBB5_13:
	.loc	1 1436 19                       @ ../Core/Src/uiPro.c:1436:19
	movw	r0, :lower16:ExternalInputLine.Result
	movt	r0, :upper16:ExternalInputLine.Result
	movs	r1, #1
	strb	r1, [r0, #1]
	.loc	1 1437 19                       @ ../Core/Src/uiPro.c:1437:19
	strb	r1, [r0]
	.loc	1 1438 9                        @ ../Core/Src/uiPro.c:1438:9
	str	r0, [sp, #4]
	b	.LBB5_15
.Ltmp460:
.LBB5_14:
	.loc	1 1441 15                       @ ../Core/Src/uiPro.c:1441:15
	movw	r0, :lower16:ExternalInputLine.Result
	movt	r0, :upper16:ExternalInputLine.Result
	movs	r1, #0
	strb	r1, [r0, #1]
	movs	r1, #1
	.loc	1 1442 15                       @ ../Core/Src/uiPro.c:1442:15
	strb	r1, [r0]
	.loc	1 1443 5                        @ ../Core/Src/uiPro.c:1443:5
	str	r0, [sp, #4]
	b	.LBB5_15
.LBB5_15:
	.loc	1 1444 1                        @ ../Core/Src/uiPro.c:1444:1
	ldr	r0, [sp, #4]
	add	sp, #8
	pop	{r7, pc}
.Ltmp461:
.Lfunc_end5:
	.size	ExternalInputLine, .Lfunc_end5-ExternalInputLine
	.cfi_endproc
	.cantunwind
	.fnend
                                        @ -- End function
	.section	.text.HighLowLoad,"ax",%progbits
	.hidden	HighLowLoad                     @ -- Begin function HighLowLoad
	.globl	HighLowLoad
	.p2align	2
	.type	HighLowLoad,%function
	.code	16                              @ @HighLowLoad
	.thumb_func
HighLowLoad:
.Lfunc_begin6:
	.loc	1 1448 0                        @ ../Core/Src/uiPro.c:1448:0
	.fnstart
	.cfi_startproc
@ %bb.0:
	.save	{r7, lr}
	push	{r7, lr}
	.cfi_def_cfa_offset 8
	.cfi_offset lr, -4
	.cfi_offset r7, -8
	.pad	#256
	sub	sp, #256
	.cfi_def_cfa_offset 264
	str	r0, [sp, #248]
	str	r1, [sp, #244]
.Ltmp462:
	.loc	1 1456 31 prologue_end          @ ../Core/Src/uiPro.c:1456:31
	movw	r1, :lower16:USART_Data
	movt	r1, :upper16:USART_Data
	ldrb	r0, [r1]
	.loc	1 1456 65 is_stmt 0             @ ../Core/Src/uiPro.c:1456:65
	ldrb	r1, [r1, #1]
.Ltmp463:
	.loc	1 1456 8                        @ ../Core/Src/uiPro.c:1456:8
	cmp	r0, r1
	beq	.LBB6_2
	b	.LBB6_1
.LBB6_1:
.Ltmp464:
	.loc	1 1458 14 is_stmt 1             @ ../Core/Src/uiPro.c:1458:14
	movw	r1, :lower16:HighLowLoad.Step
	movt	r1, :upper16:HighLowLoad.Step
	movs	r0, #0
	strb	r0, [r1]
	.loc	1 1459 71                       @ ../Core/Src/uiPro.c:1459:71
	movw	r1, :lower16:USART_Data
	movt	r1, :upper16:USART_Data
	ldrb	r0, [r1]
	.loc	1 1459 46 is_stmt 0             @ ../Core/Src/uiPro.c:1459:46
	strb	r0, [r1, #1]
	.loc	1 1460 5 is_stmt 1              @ ../Core/Src/uiPro.c:1460:5
	b	.LBB6_2
.Ltmp465:
.LBB6_2:
	.loc	1 1462 9                        @ ../Core/Src/uiPro.c:1462:9
	ldr	r0, [sp, #244]
	.loc	1 1462 8 is_stmt 0              @ ../Core/Src/uiPro.c:1462:8
	ldrb	r0, [r0]
.Ltmp466:
	.loc	1 1462 8                        @ ../Core/Src/uiPro.c:1462:8
	cmp	r0, #1
	bne	.LBB6_4
	b	.LBB6_3
.LBB6_3:
.Ltmp467:
	.loc	1 1464 10 is_stmt 1             @ ../Core/Src/uiPro.c:1464:10
	ldr	r1, [sp, #244]
	movs	r0, #2
	.loc	1 1464 26 is_stmt 0             @ ../Core/Src/uiPro.c:1464:26
	strb	r0, [r1]
	.loc	1 1465 14 is_stmt 1             @ ../Core/Src/uiPro.c:1465:14
	movw	r1, :lower16:HighLowLoad.Step
	movt	r1, :upper16:HighLowLoad.Step
	strb	r0, [r1]
	.loc	1 1466 19                       @ ../Core/Src/uiPro.c:1466:19
	movw	r1, :lower16:HighLowLoad.SmallStep
	movt	r1, :upper16:HighLowLoad.SmallStep
	movs	r0, #1
	strb	r0, [r1]
	.loc	1 1467 5                        @ ../Core/Src/uiPro.c:1467:5
	b	.LBB6_4
.Ltmp468:
.LBB6_4:
	.loc	1 1470 12                       @ ../Core/Src/uiPro.c:1470:12
	movw	r0, :lower16:HighLowLoad.Step
	movt	r0, :upper16:HighLowLoad.Step
	ldrb	r0, [r0]
	.loc	1 1470 5 is_stmt 0              @ ../Core/Src/uiPro.c:1470:5
	mov	r1, r0
	str	r1, [sp, #228]                  @ 4-byte Spill
	cbz	r0, .LBB6_7
	b	.LBB6_5
.LBB6_5:
	ldr	r0, [sp, #228]                  @ 4-byte Reload
	cmp	r0, #1
	beq.w	.LBB6_32
	b	.LBB6_6
.LBB6_6:
	ldr	r0, [sp, #228]                  @ 4-byte Reload
	cmp	r0, #2
	beq.w	.LBB6_85
	b.w	.LBB6_355
.LBB6_7:
.Ltmp469:
	.loc	1 1475 18 is_stmt 1             @ ../Core/Src/uiPro.c:1475:18
	movw	r1, :lower16:HighLowLoad.Step
	movt	r1, :upper16:HighLowLoad.Step
	movs	r0, #1
	strb	r0, [r1]
	.loc	1 1476 13                       @ ../Core/Src/uiPro.c:1476:13
	ldr	r1, [sp, #248]
	movw	r2, #11376
	movs	r0, #0
	.loc	1 1476 45 is_stmt 0             @ ../Core/Src/uiPro.c:1476:45
	strb	r0, [r1, r2]
	movw	r0, #4096
	movt	r0, #16386
	movs	r1, #32
.Ltmp470:
	.loc	1 1479 16 is_stmt 1             @ ../Core/Src/uiPro.c:1479:16
	bl	HAL_GPIO_ReadPin
.Ltmp471:
	.loc	1 1479 16 is_stmt 0             @ ../Core/Src/uiPro.c:1479:16
	cmp	r0, #1
	bne	.LBB6_9
	b	.LBB6_8
.LBB6_8:
.Ltmp472:
	.loc	1 1481 34 is_stmt 1             @ ../Core/Src/uiPro.c:1481:34
	ldr	r2, [sp, #248]
	movw	r3, #11376
	.loc	1 1481 97 is_stmt 0             @ ../Core/Src/uiPro.c:1481:97
	ldrb	r1, [r2, r3]
	movs	r0, #200
	.loc	1 1481 50                       @ ../Core/Src/uiPro.c:1481:50
	smlabb	r0, r1, r0, r2
	.loc	1 1481 97                       @ ../Core/Src/uiPro.c:1481:97
	adds	r1, #1
	strb	r1, [r2, r3]
	.loc	1 1481 34                       @ ../Core/Src/uiPro.c:1481:34
	add.w	r0, r0, #1376
	.loc	1 1481 17                       @ ../Core/Src/uiPro.c:1481:17
	movw	r1, :lower16:.L.str.100
	movt	r1, :upper16:.L.str.100
	movw	r2, :lower16:.L.str.4
	movt	r2, :upper16:.L.str.4
	movs	r3, #1
	bl	StringChangeLine
	.loc	1 1483 13 is_stmt 1             @ ../Core/Src/uiPro.c:1483:13
	b	.LBB6_10
.Ltmp473:
.LBB6_9:
	.loc	1 1486 34                       @ ../Core/Src/uiPro.c:1486:34
	ldr	r2, [sp, #248]
	movw	r3, #11376
	.loc	1 1486 97 is_stmt 0             @ ../Core/Src/uiPro.c:1486:97
	ldrb	r1, [r2, r3]
	movs	r0, #200
	.loc	1 1486 50                       @ ../Core/Src/uiPro.c:1486:50
	smlabb	r0, r1, r0, r2
	.loc	1 1486 97                       @ ../Core/Src/uiPro.c:1486:97
	adds	r1, #1
	strb	r1, [r2, r3]
	.loc	1 1486 34                       @ ../Core/Src/uiPro.c:1486:34
	add.w	r0, r0, #1376
	.loc	1 1486 17                       @ ../Core/Src/uiPro.c:1486:17
	movw	r1, :lower16:.L.str.100
	movt	r1, :upper16:.L.str.100
	movw	r2, :lower16:.L.str.5
	movt	r2, :upper16:.L.str.5
	movs	r3, #1
	bl	StringChangeLine
	b	.LBB6_10
.Ltmp474:
.LBB6_10:
	.loc	1 0 17                          @ ../Core/Src/uiPro.c:0:17
	movw	r0, #5120
	movt	r0, #16386
	movs	r1, #1
.Ltmp475:
	.loc	1 1489 16 is_stmt 1             @ ../Core/Src/uiPro.c:1489:16
	bl	HAL_GPIO_ReadPin
.Ltmp476:
	.loc	1 1489 16 is_stmt 0             @ ../Core/Src/uiPro.c:1489:16
	cmp	r0, #1
	bne	.LBB6_12
	b	.LBB6_11
.LBB6_11:
.Ltmp477:
	.loc	1 1492 34 is_stmt 1             @ ../Core/Src/uiPro.c:1492:34
	ldr	r2, [sp, #248]
	movw	r3, #11376
	.loc	1 1492 97 is_stmt 0             @ ../Core/Src/uiPro.c:1492:97
	ldrb	r1, [r2, r3]
	movs	r0, #200
	.loc	1 1492 50                       @ ../Core/Src/uiPro.c:1492:50
	smlabb	r0, r1, r0, r2
	.loc	1 1492 97                       @ ../Core/Src/uiPro.c:1492:97
	adds	r1, #1
	strb	r1, [r2, r3]
	.loc	1 1492 34                       @ ../Core/Src/uiPro.c:1492:34
	add.w	r0, r0, #1376
	.loc	1 1492 17                       @ ../Core/Src/uiPro.c:1492:17
	movw	r1, :lower16:.L.str.101
	movt	r1, :upper16:.L.str.101
	movw	r2, :lower16:.L.str.102
	movt	r2, :upper16:.L.str.102
	movs	r3, #1
	bl	StringChangeLine
	.loc	1 1493 13 is_stmt 1             @ ../Core/Src/uiPro.c:1493:13
	b	.LBB6_13
.Ltmp478:
.LBB6_12:
	.loc	1 1497 34                       @ ../Core/Src/uiPro.c:1497:34
	ldr	r2, [sp, #248]
	movw	r3, #11376
	.loc	1 1497 97 is_stmt 0             @ ../Core/Src/uiPro.c:1497:97
	ldrb	r1, [r2, r3]
	movs	r0, #200
	.loc	1 1497 50                       @ ../Core/Src/uiPro.c:1497:50
	smlabb	r0, r1, r0, r2
	.loc	1 1497 97                       @ ../Core/Src/uiPro.c:1497:97
	adds	r1, #1
	strb	r1, [r2, r3]
	.loc	1 1497 34                       @ ../Core/Src/uiPro.c:1497:34
	add.w	r0, r0, #1376
	.loc	1 1497 17                       @ ../Core/Src/uiPro.c:1497:17
	movw	r1, :lower16:.L.str.101
	movt	r1, :upper16:.L.str.101
	movw	r2, :lower16:.L.str.103
	movt	r2, :upper16:.L.str.103
	movs	r3, #1
	bl	StringChangeLine
	b	.LBB6_13
.Ltmp479:
.LBB6_13:
	.loc	1 0 17                          @ ../Core/Src/uiPro.c:0:17
	movw	r0, #6144
	movt	r0, #16386
	mov.w	r1, #8192
.Ltmp480:
	.loc	1 1500 16 is_stmt 1             @ ../Core/Src/uiPro.c:1500:16
	bl	HAL_GPIO_ReadPin
.Ltmp481:
	.loc	1 1500 16 is_stmt 0             @ ../Core/Src/uiPro.c:1500:16
	cmp	r0, #1
	bne	.LBB6_15
	b	.LBB6_14
.LBB6_14:
.Ltmp482:
	.loc	1 1502 34 is_stmt 1             @ ../Core/Src/uiPro.c:1502:34
	ldr	r2, [sp, #248]
	movw	r3, #11376
	.loc	1 1502 97 is_stmt 0             @ ../Core/Src/uiPro.c:1502:97
	ldrb	r1, [r2, r3]
	movs	r0, #200
	.loc	1 1502 50                       @ ../Core/Src/uiPro.c:1502:50
	smlabb	r0, r1, r0, r2
	.loc	1 1502 97                       @ ../Core/Src/uiPro.c:1502:97
	adds	r1, #1
	strb	r1, [r2, r3]
	.loc	1 1502 34                       @ ../Core/Src/uiPro.c:1502:34
	add.w	r0, r0, #1376
	.loc	1 1502 17                       @ ../Core/Src/uiPro.c:1502:17
	movw	r1, :lower16:.L.str.104
	movt	r1, :upper16:.L.str.104
	movw	r2, :lower16:.L.str.105
	movt	r2, :upper16:.L.str.105
	movs	r3, #1
	bl	StringChangeLine
	.loc	1 1503 13 is_stmt 1             @ ../Core/Src/uiPro.c:1503:13
	b	.LBB6_16
.Ltmp483:
.LBB6_15:
	.loc	1 1506 34                       @ ../Core/Src/uiPro.c:1506:34
	ldr	r2, [sp, #248]
	movw	r3, #11376
	.loc	1 1506 97 is_stmt 0             @ ../Core/Src/uiPro.c:1506:97
	ldrb	r1, [r2, r3]
	movs	r0, #200
	.loc	1 1506 50                       @ ../Core/Src/uiPro.c:1506:50
	smlabb	r0, r1, r0, r2
	.loc	1 1506 97                       @ ../Core/Src/uiPro.c:1506:97
	adds	r1, #1
	strb	r1, [r2, r3]
	.loc	1 1506 34                       @ ../Core/Src/uiPro.c:1506:34
	add.w	r0, r0, #1376
	.loc	1 1506 17                       @ ../Core/Src/uiPro.c:1506:17
	movw	r1, :lower16:.L.str.104
	movt	r1, :upper16:.L.str.104
	movw	r2, :lower16:.L.str.106
	movt	r2, :upper16:.L.str.106
	movs	r3, #1
	bl	StringChangeLine
	b	.LBB6_16
.Ltmp484:
.LBB6_16:
	.loc	1 0 17                          @ ../Core/Src/uiPro.c:0:17
	movw	r0, #4096
	movt	r0, #16386
	movs	r1, #8
.Ltmp485:
	.loc	1 1509 16 is_stmt 1             @ ../Core/Src/uiPro.c:1509:16
	bl	HAL_GPIO_ReadPin
.Ltmp486:
	.loc	1 1509 16 is_stmt 0             @ ../Core/Src/uiPro.c:1509:16
	cmp	r0, #1
	bne	.LBB6_18
	b	.LBB6_17
.LBB6_17:
.Ltmp487:
	.loc	1 1511 34 is_stmt 1             @ ../Core/Src/uiPro.c:1511:34
	ldr	r2, [sp, #248]
	movw	r3, #11376
	.loc	1 1511 97 is_stmt 0             @ ../Core/Src/uiPro.c:1511:97
	ldrb	r1, [r2, r3]
	movs	r0, #200
	.loc	1 1511 50                       @ ../Core/Src/uiPro.c:1511:50
	smlabb	r0, r1, r0, r2
	.loc	1 1511 97                       @ ../Core/Src/uiPro.c:1511:97
	adds	r1, #1
	strb	r1, [r2, r3]
	.loc	1 1511 34                       @ ../Core/Src/uiPro.c:1511:34
	add.w	r0, r0, #1376
	.loc	1 1511 17                       @ ../Core/Src/uiPro.c:1511:17
	movw	r1, :lower16:.L.str.107
	movt	r1, :upper16:.L.str.107
	movw	r2, :lower16:.L.str.108
	movt	r2, :upper16:.L.str.108
	movs	r3, #1
	bl	StringChangeLine
	.loc	1 1512 13 is_stmt 1             @ ../Core/Src/uiPro.c:1512:13
	b	.LBB6_19
.Ltmp488:
.LBB6_18:
	.loc	1 1515 34                       @ ../Core/Src/uiPro.c:1515:34
	ldr	r2, [sp, #248]
	movw	r3, #11376
	.loc	1 1515 97 is_stmt 0             @ ../Core/Src/uiPro.c:1515:97
	ldrb	r1, [r2, r3]
	movs	r0, #200
	.loc	1 1515 50                       @ ../Core/Src/uiPro.c:1515:50
	smlabb	r0, r1, r0, r2
	.loc	1 1515 97                       @ ../Core/Src/uiPro.c:1515:97
	adds	r1, #1
	strb	r1, [r2, r3]
	.loc	1 1515 34                       @ ../Core/Src/uiPro.c:1515:34
	add.w	r0, r0, #1376
	.loc	1 1515 17                       @ ../Core/Src/uiPro.c:1515:17
	movw	r1, :lower16:.L.str.107
	movt	r1, :upper16:.L.str.107
	movw	r2, :lower16:.L.str.109
	movt	r2, :upper16:.L.str.109
	movs	r3, #1
	bl	StringChangeLine
	b	.LBB6_19
.Ltmp489:
.LBB6_19:
	.loc	1 0 17                          @ ../Core/Src/uiPro.c:0:17
	movw	r0, #4096
	movt	r0, #16386
	movs	r1, #16
.Ltmp490:
	.loc	1 1518 16 is_stmt 1             @ ../Core/Src/uiPro.c:1518:16
	bl	HAL_GPIO_ReadPin
.Ltmp491:
	.loc	1 1518 16 is_stmt 0             @ ../Core/Src/uiPro.c:1518:16
	cmp	r0, #1
	bne	.LBB6_21
	b	.LBB6_20
.LBB6_20:
.Ltmp492:
	.loc	1 1520 34 is_stmt 1             @ ../Core/Src/uiPro.c:1520:34
	ldr	r2, [sp, #248]
	movw	r3, #11376
	.loc	1 1520 97 is_stmt 0             @ ../Core/Src/uiPro.c:1520:97
	ldrb	r1, [r2, r3]
	movs	r0, #200
	.loc	1 1520 50                       @ ../Core/Src/uiPro.c:1520:50
	smlabb	r0, r1, r0, r2
	.loc	1 1520 97                       @ ../Core/Src/uiPro.c:1520:97
	adds	r1, #1
	strb	r1, [r2, r3]
	.loc	1 1520 34                       @ ../Core/Src/uiPro.c:1520:34
	add.w	r0, r0, #1376
	.loc	1 1520 17                       @ ../Core/Src/uiPro.c:1520:17
	movw	r1, :lower16:.L.str.110
	movt	r1, :upper16:.L.str.110
	movw	r2, :lower16:.L.str.111
	movt	r2, :upper16:.L.str.111
	movs	r3, #1
	bl	StringChangeLine
	.loc	1 1521 13 is_stmt 1             @ ../Core/Src/uiPro.c:1521:13
	b	.LBB6_22
.Ltmp493:
.LBB6_21:
	.loc	1 1524 34                       @ ../Core/Src/uiPro.c:1524:34
	ldr	r2, [sp, #248]
	movw	r3, #11376
	.loc	1 1524 97 is_stmt 0             @ ../Core/Src/uiPro.c:1524:97
	ldrb	r1, [r2, r3]
	movs	r0, #200
	.loc	1 1524 50                       @ ../Core/Src/uiPro.c:1524:50
	smlabb	r0, r1, r0, r2
	.loc	1 1524 97                       @ ../Core/Src/uiPro.c:1524:97
	adds	r1, #1
	strb	r1, [r2, r3]
	.loc	1 1524 34                       @ ../Core/Src/uiPro.c:1524:34
	add.w	r0, r0, #1376
	.loc	1 1524 17                       @ ../Core/Src/uiPro.c:1524:17
	movw	r1, :lower16:.L.str.110
	movt	r1, :upper16:.L.str.110
	movw	r2, :lower16:.L.str.112
	movt	r2, :upper16:.L.str.112
	movs	r3, #1
	bl	StringChangeLine
	b	.LBB6_22
.Ltmp494:
.LBB6_22:
	.loc	1 0 17                          @ ../Core/Src/uiPro.c:0:17
	movw	r0, #3072
	movt	r0, #16386
	mov.w	r1, #32768
.Ltmp495:
	.loc	1 1527 16 is_stmt 1             @ ../Core/Src/uiPro.c:1527:16
	bl	HAL_GPIO_ReadPin
.Ltmp496:
	.loc	1 1527 16 is_stmt 0             @ ../Core/Src/uiPro.c:1527:16
	cmp	r0, #1
	bne	.LBB6_24
	b	.LBB6_23
.LBB6_23:
.Ltmp497:
	.loc	1 1529 34 is_stmt 1             @ ../Core/Src/uiPro.c:1529:34
	ldr	r2, [sp, #248]
	movw	r3, #11376
	.loc	1 1529 97 is_stmt 0             @ ../Core/Src/uiPro.c:1529:97
	ldrb	r1, [r2, r3]
	movs	r0, #200
	.loc	1 1529 50                       @ ../Core/Src/uiPro.c:1529:50
	smlabb	r0, r1, r0, r2
	.loc	1 1529 97                       @ ../Core/Src/uiPro.c:1529:97
	adds	r1, #1
	strb	r1, [r2, r3]
	.loc	1 1529 34                       @ ../Core/Src/uiPro.c:1529:34
	add.w	r0, r0, #1376
	.loc	1 1529 17                       @ ../Core/Src/uiPro.c:1529:17
	movw	r1, :lower16:.L.str.113
	movt	r1, :upper16:.L.str.113
	movw	r2, :lower16:.L.str.114
	movt	r2, :upper16:.L.str.114
	movs	r3, #1
	bl	StringChangeLine
	.loc	1 1530 13 is_stmt 1             @ ../Core/Src/uiPro.c:1530:13
	b	.LBB6_25
.Ltmp498:
.LBB6_24:
	.loc	1 1533 34                       @ ../Core/Src/uiPro.c:1533:34
	ldr	r2, [sp, #248]
	movw	r3, #11376
	.loc	1 1533 97 is_stmt 0             @ ../Core/Src/uiPro.c:1533:97
	ldrb	r1, [r2, r3]
	movs	r0, #200
	.loc	1 1533 50                       @ ../Core/Src/uiPro.c:1533:50
	smlabb	r0, r1, r0, r2
	.loc	1 1533 97                       @ ../Core/Src/uiPro.c:1533:97
	adds	r1, #1
	strb	r1, [r2, r3]
	.loc	1 1533 34                       @ ../Core/Src/uiPro.c:1533:34
	add.w	r0, r0, #1376
	.loc	1 1533 17                       @ ../Core/Src/uiPro.c:1533:17
	movw	r1, :lower16:.L.str.113
	movt	r1, :upper16:.L.str.113
	movw	r2, :lower16:.L.str.115
	movt	r2, :upper16:.L.str.115
	movs	r3, #1
	bl	StringChangeLine
	b	.LBB6_25
.Ltmp499:
.LBB6_25:
	.loc	1 0 17                          @ ../Core/Src/uiPro.c:0:17
	movw	r0, #6144
	movt	r0, #16386
	mov.w	r1, #4096
.Ltmp500:
	.loc	1 1536 16 is_stmt 1             @ ../Core/Src/uiPro.c:1536:16
	bl	HAL_GPIO_ReadPin
.Ltmp501:
	.loc	1 1536 16 is_stmt 0             @ ../Core/Src/uiPro.c:1536:16
	cmp	r0, #1
	bne	.LBB6_27
	b	.LBB6_26
.LBB6_26:
.Ltmp502:
	.loc	1 1538 34 is_stmt 1             @ ../Core/Src/uiPro.c:1538:34
	ldr	r2, [sp, #248]
	movw	r3, #11376
	.loc	1 1538 97 is_stmt 0             @ ../Core/Src/uiPro.c:1538:97
	ldrb	r1, [r2, r3]
	movs	r0, #200
	.loc	1 1538 50                       @ ../Core/Src/uiPro.c:1538:50
	smlabb	r0, r1, r0, r2
	.loc	1 1538 97                       @ ../Core/Src/uiPro.c:1538:97
	adds	r1, #1
	strb	r1, [r2, r3]
	.loc	1 1538 34                       @ ../Core/Src/uiPro.c:1538:34
	add.w	r0, r0, #1376
	.loc	1 1538 17                       @ ../Core/Src/uiPro.c:1538:17
	movw	r1, :lower16:.L.str.116
	movt	r1, :upper16:.L.str.116
	movw	r2, :lower16:.L.str.117
	movt	r2, :upper16:.L.str.117
	movs	r3, #1
	bl	StringChangeLine
	.loc	1 1539 13 is_stmt 1             @ ../Core/Src/uiPro.c:1539:13
	b	.LBB6_28
.Ltmp503:
.LBB6_27:
	.loc	1 1542 34                       @ ../Core/Src/uiPro.c:1542:34
	ldr	r2, [sp, #248]
	movw	r3, #11376
	.loc	1 1542 97 is_stmt 0             @ ../Core/Src/uiPro.c:1542:97
	ldrb	r1, [r2, r3]
	movs	r0, #200
	.loc	1 1542 50                       @ ../Core/Src/uiPro.c:1542:50
	smlabb	r0, r1, r0, r2
	.loc	1 1542 97                       @ ../Core/Src/uiPro.c:1542:97
	adds	r1, #1
	strb	r1, [r2, r3]
	.loc	1 1542 34                       @ ../Core/Src/uiPro.c:1542:34
	add.w	r0, r0, #1376
	.loc	1 1542 17                       @ ../Core/Src/uiPro.c:1542:17
	movw	r1, :lower16:.L.str.116
	movt	r1, :upper16:.L.str.116
	movw	r2, :lower16:.L.str.118
	movt	r2, :upper16:.L.str.118
	movs	r3, #1
	bl	StringChangeLine
	b	.LBB6_28
.Ltmp504:
.LBB6_28:
	.loc	1 0 17                          @ ../Core/Src/uiPro.c:0:17
	movw	r0, #6144
	movt	r0, #16386
	movs	r1, #4
.Ltmp505:
	.loc	1 1545 16 is_stmt 1             @ ../Core/Src/uiPro.c:1545:16
	bl	HAL_GPIO_ReadPin
.Ltmp506:
	.loc	1 1545 16 is_stmt 0             @ ../Core/Src/uiPro.c:1545:16
	cmp	r0, #1
	bne	.LBB6_30
	b	.LBB6_29
.LBB6_29:
.Ltmp507:
	.loc	1 1547 34 is_stmt 1             @ ../Core/Src/uiPro.c:1547:34
	ldr	r2, [sp, #248]
	movw	r3, #11376
	.loc	1 1547 97 is_stmt 0             @ ../Core/Src/uiPro.c:1547:97
	ldrb	r1, [r2, r3]
	movs	r0, #200
	.loc	1 1547 50                       @ ../Core/Src/uiPro.c:1547:50
	smlabb	r0, r1, r0, r2
	.loc	1 1547 97                       @ ../Core/Src/uiPro.c:1547:97
	adds	r1, #1
	strb	r1, [r2, r3]
	.loc	1 1547 34                       @ ../Core/Src/uiPro.c:1547:34
	add.w	r0, r0, #1376
	.loc	1 1547 17                       @ ../Core/Src/uiPro.c:1547:17
	movw	r1, :lower16:.L.str.119
	movt	r1, :upper16:.L.str.119
	movw	r2, :lower16:.L.str.120
	movt	r2, :upper16:.L.str.120
	movs	r3, #1
	bl	StringChangeLine
	.loc	1 1548 13 is_stmt 1             @ ../Core/Src/uiPro.c:1548:13
	b	.LBB6_31
.Ltmp508:
.LBB6_30:
	.loc	1 1551 34                       @ ../Core/Src/uiPro.c:1551:34
	ldr	r2, [sp, #248]
	movw	r3, #11376
	.loc	1 1551 97 is_stmt 0             @ ../Core/Src/uiPro.c:1551:97
	ldrb	r1, [r2, r3]
	movs	r0, #200
	.loc	1 1551 50                       @ ../Core/Src/uiPro.c:1551:50
	smlabb	r0, r1, r0, r2
	.loc	1 1551 97                       @ ../Core/Src/uiPro.c:1551:97
	adds	r1, #1
	strb	r1, [r2, r3]
	.loc	1 1551 34                       @ ../Core/Src/uiPro.c:1551:34
	add.w	r0, r0, #1376
	.loc	1 1551 17                       @ ../Core/Src/uiPro.c:1551:17
	movw	r1, :lower16:.L.str.119
	movt	r1, :upper16:.L.str.119
	movw	r2, :lower16:.L.str.121
	movt	r2, :upper16:.L.str.121
	movs	r3, #1
	bl	StringChangeLine
	b	.LBB6_31
.Ltmp509:
.LBB6_31:
	.loc	1 1555 39 is_stmt 1             @ ../Core/Src/uiPro.c:1555:39
	ldr	r0, [sp, #248]
	ldr	r0, [r0, #112]
	bl	__aeabi_f2d
	vmov	d0, r0, r1
	.loc	1 1555 13 is_stmt 0             @ ../Core/Src/uiPro.c:1555:13
	vmov	r2, r3, d0
	movw	r0, :lower16:HighLowLoad.StrTemp
	movt	r0, :upper16:HighLowLoad.StrTemp
	str	r0, [sp, #212]                  @ 4-byte Spill
	movw	r1, :lower16:.L.str.9
	movt	r1, :upper16:.L.str.9
	str	r1, [sp, #208]                  @ 4-byte Spill
	bl	sprintf
	ldr	r2, [sp, #212]                  @ 4-byte Reload
	.loc	1 1556 30 is_stmt 1             @ ../Core/Src/uiPro.c:1556:30
	ldr	r3, [sp, #248]
	movw	r12, #11376
	.loc	1 1556 93 is_stmt 0             @ ../Core/Src/uiPro.c:1556:93
	str.w	r12, [sp, #224]                 @ 4-byte Spill
	ldrb.w	r1, [r3, r12]
	movs	r0, #200
	.loc	1 1556 46                       @ ../Core/Src/uiPro.c:1556:46
	str	r0, [sp, #220]                  @ 4-byte Spill
	smlabb	r0, r1, r0, r3
	.loc	1 1556 93                       @ ../Core/Src/uiPro.c:1556:93
	adds	r1, #1
	strb.w	r1, [r3, r12]
	.loc	1 1556 30                       @ ../Core/Src/uiPro.c:1556:30
	add.w	r0, r0, #1376
	.loc	1 1556 13                       @ ../Core/Src/uiPro.c:1556:13
	movw	r1, :lower16:.L.str.122
	movt	r1, :upper16:.L.str.122
	movs	r3, #1
	str	r3, [sp, #216]                  @ 4-byte Spill
	bl	StringChangeLine
	.loc	1 1558 39 is_stmt 1             @ ../Core/Src/uiPro.c:1558:39
	ldr	r0, [sp, #248]
	ldr.w	r0, [r0, #208]
	bl	__aeabi_f2d
	mov	r2, r0
	ldr	r0, [sp, #212]                  @ 4-byte Reload
	mov	r3, r1
	ldr	r1, [sp, #208]                  @ 4-byte Reload
	vmov	d0, r2, r3
	.loc	1 1558 13 is_stmt 0             @ ../Core/Src/uiPro.c:1558:13
	vmov	r2, r3, d0
	bl	sprintf
	ldr	r2, [sp, #212]                  @ 4-byte Reload
	ldr	r3, [sp, #216]                  @ 4-byte Reload
	ldr.w	lr, [sp, #224]                  @ 4-byte Reload
                                        @ kill: def $r1 killed $r0
	.loc	1 1559 30 is_stmt 1             @ ../Core/Src/uiPro.c:1559:30
	ldr	r0, [sp, #220]                  @ 4-byte Reload
	ldr.w	r12, [sp, #248]
	.loc	1 1559 93 is_stmt 0             @ ../Core/Src/uiPro.c:1559:93
	ldrb.w	r1, [r12, lr]
	.loc	1 1559 46                       @ ../Core/Src/uiPro.c:1559:46
	smlabb	r0, r1, r0, r12
	.loc	1 1559 93                       @ ../Core/Src/uiPro.c:1559:93
	adds	r1, #1
	strb.w	r1, [r12, lr]
	.loc	1 1559 30                       @ ../Core/Src/uiPro.c:1559:30
	add.w	r0, r0, #1376
	.loc	1 1559 13                       @ ../Core/Src/uiPro.c:1559:13
	movw	r1, :lower16:.L.str.123
	movt	r1, :upper16:.L.str.123
	bl	StringChangeLine
	.loc	1 1561 39 is_stmt 1             @ ../Core/Src/uiPro.c:1561:39
	ldr	r0, [sp, #248]
	ldr.w	r0, [r0, #176]
	bl	__aeabi_f2d
	mov	r2, r0
	ldr	r0, [sp, #212]                  @ 4-byte Reload
	mov	r3, r1
	ldr	r1, [sp, #208]                  @ 4-byte Reload
	vmov	d0, r2, r3
	.loc	1 1561 13 is_stmt 0             @ ../Core/Src/uiPro.c:1561:13
	vmov	r2, r3, d0
	bl	sprintf
	ldr	r2, [sp, #212]                  @ 4-byte Reload
	ldr	r3, [sp, #216]                  @ 4-byte Reload
	ldr.w	lr, [sp, #224]                  @ 4-byte Reload
                                        @ kill: def $r1 killed $r0
	.loc	1 1562 30 is_stmt 1             @ ../Core/Src/uiPro.c:1562:30
	ldr	r0, [sp, #220]                  @ 4-byte Reload
	ldr.w	r12, [sp, #248]
	.loc	1 1562 93 is_stmt 0             @ ../Core/Src/uiPro.c:1562:93
	ldrb.w	r1, [r12, lr]
	.loc	1 1562 46                       @ ../Core/Src/uiPro.c:1562:46
	smlabb	r0, r1, r0, r12
	.loc	1 1562 93                       @ ../Core/Src/uiPro.c:1562:93
	adds	r1, #1
	strb.w	r1, [r12, lr]
	.loc	1 1562 30                       @ ../Core/Src/uiPro.c:1562:30
	add.w	r0, r0, #1376
	.loc	1 1562 13                       @ ../Core/Src/uiPro.c:1562:13
	movw	r1, :lower16:.L.str.124
	movt	r1, :upper16:.L.str.124
	bl	StringChangeLine
	.loc	1 1564 39 is_stmt 1             @ ../Core/Src/uiPro.c:1564:39
	ldr	r0, [sp, #248]
	ldr	r0, [r0, #116]
	bl	__aeabi_f2d
	mov	r2, r0
	ldr	r0, [sp, #212]                  @ 4-byte Reload
	mov	r3, r1
	ldr	r1, [sp, #208]                  @ 4-byte Reload
	vmov	d0, r2, r3
	.loc	1 1564 13 is_stmt 0             @ ../Core/Src/uiPro.c:1564:13
	vmov	r2, r3, d0
	bl	sprintf
	ldr	r2, [sp, #212]                  @ 4-byte Reload
	ldr	r3, [sp, #216]                  @ 4-byte Reload
	ldr.w	lr, [sp, #224]                  @ 4-byte Reload
                                        @ kill: def $r1 killed $r0
	.loc	1 1565 30 is_stmt 1             @ ../Core/Src/uiPro.c:1565:30
	ldr	r0, [sp, #220]                  @ 4-byte Reload
	ldr.w	r12, [sp, #248]
	.loc	1 1565 93 is_stmt 0             @ ../Core/Src/uiPro.c:1565:93
	ldrb.w	r1, [r12, lr]
	.loc	1 1565 46                       @ ../Core/Src/uiPro.c:1565:46
	smlabb	r0, r1, r0, r12
	.loc	1 1565 93                       @ ../Core/Src/uiPro.c:1565:93
	adds	r1, #1
	strb.w	r1, [r12, lr]
	.loc	1 1565 30                       @ ../Core/Src/uiPro.c:1565:30
	add.w	r0, r0, #1376
	.loc	1 1565 13                       @ ../Core/Src/uiPro.c:1565:13
	movw	r1, :lower16:.L.str.125
	movt	r1, :upper16:.L.str.125
	bl	StringChangeLine
	.loc	1 1567 39 is_stmt 1             @ ../Core/Src/uiPro.c:1567:39
	ldr	r0, [sp, #248]
	ldr.w	r0, [r0, #212]
	bl	__aeabi_f2d
	mov	r2, r0
	ldr	r0, [sp, #212]                  @ 4-byte Reload
	mov	r3, r1
	ldr	r1, [sp, #208]                  @ 4-byte Reload
	vmov	d0, r2, r3
	.loc	1 1567 13 is_stmt 0             @ ../Core/Src/uiPro.c:1567:13
	vmov	r2, r3, d0
	bl	sprintf
	ldr	r2, [sp, #212]                  @ 4-byte Reload
	ldr	r3, [sp, #216]                  @ 4-byte Reload
	ldr.w	lr, [sp, #224]                  @ 4-byte Reload
                                        @ kill: def $r1 killed $r0
	.loc	1 1568 30 is_stmt 1             @ ../Core/Src/uiPro.c:1568:30
	ldr	r0, [sp, #220]                  @ 4-byte Reload
	ldr.w	r12, [sp, #248]
	.loc	1 1568 93 is_stmt 0             @ ../Core/Src/uiPro.c:1568:93
	ldrb.w	r1, [r12, lr]
	.loc	1 1568 46                       @ ../Core/Src/uiPro.c:1568:46
	smlabb	r0, r1, r0, r12
	.loc	1 1568 93                       @ ../Core/Src/uiPro.c:1568:93
	adds	r1, #1
	strb.w	r1, [r12, lr]
	.loc	1 1568 30                       @ ../Core/Src/uiPro.c:1568:30
	add.w	r0, r0, #1376
	.loc	1 1568 13                       @ ../Core/Src/uiPro.c:1568:13
	movw	r1, :lower16:.L.str.126
	movt	r1, :upper16:.L.str.126
	bl	StringChangeLine
	.loc	1 1570 39 is_stmt 1             @ ../Core/Src/uiPro.c:1570:39
	ldr	r0, [sp, #248]
	ldr.w	r0, [r0, #180]
	bl	__aeabi_f2d
	mov	r2, r0
	ldr	r0, [sp, #212]                  @ 4-byte Reload
	mov	r3, r1
	ldr	r1, [sp, #208]                  @ 4-byte Reload
	vmov	d0, r2, r3
	.loc	1 1570 13 is_stmt 0             @ ../Core/Src/uiPro.c:1570:13
	vmov	r2, r3, d0
	bl	sprintf
	ldr	r2, [sp, #212]                  @ 4-byte Reload
	ldr	r3, [sp, #216]                  @ 4-byte Reload
	ldr.w	lr, [sp, #224]                  @ 4-byte Reload
                                        @ kill: def $r1 killed $r0
	.loc	1 1571 30 is_stmt 1             @ ../Core/Src/uiPro.c:1571:30
	ldr	r0, [sp, #220]                  @ 4-byte Reload
	ldr.w	r12, [sp, #248]
	.loc	1 1571 93 is_stmt 0             @ ../Core/Src/uiPro.c:1571:93
	ldrb.w	r1, [r12, lr]
	.loc	1 1571 46                       @ ../Core/Src/uiPro.c:1571:46
