	.text
	.syntax unified
	.eabi_attribute	67, "2.09"	@ Tag_conformance
	.cpu	cortex-m4
	.eabi_attribute	6, 13	@ Tag_CPU_arch
	.eabi_attribute	7, 77	@ Tag_CPU_arch_profile
	.eabi_attribute	8, 0	@ Tag_ARM_ISA_use
	.eabi_attribute	9, 2	@ Tag_THUMB_ISA_use
	.fpu	fpv4-sp-d16
	.eabi_attribute	27, 1	@ Tag_ABI_HardFP_use
	.eabi_attribute	36, 1	@ Tag_FP_HP_extension
	.eabi_attribute	34, 1	@ Tag_CPU_unaligned_access
	.eabi_attribute	17, 1	@ Tag_ABI_PCS_GOT_use
	.eabi_attribute	20, 2	@ Tag_ABI_FP_denormal
	.eabi_attribute	21, 0	@ Tag_ABI_FP_exceptions
	.eabi_attribute	23, 1	@ Tag_ABI_FP_number_model
	.eabi_attribute	24, 1	@ Tag_ABI_align_needed
	.eabi_attribute	25, 1	@ Tag_ABI_align_preserved
	.eabi_attribute	28, 1	@ Tag_ABI_VFP_args
	.eabi_attribute	38, 1	@ Tag_ABI_FP_16bit_format
	.eabi_attribute	18, 2	@ Tag_ABI_PCS_wchar_t
	.eabi_attribute	26, 1	@ Tag_ABI_enum_size
	.eabi_attribute	14, 0	@ Tag_ABI_PCS_R9_use
	.file	"usart.c"
	.file	1 "e:\\Keil_v5\\ARM\\ARMCLANG\\Bin\\..\\include" "stdint.h"
	.file	2 "C:\\Users\\DELL\\Desktop\\NewFolder\\OpticalFiberAmplifierTestRack\\MDK-ARM" "../Drivers/CMSIS/Device/ST/STM32F4xx/Include/stm32f407xx.h"
	.file	3 "C:\\Users\\DELL\\Desktop\\NewFolder\\OpticalFiberAmplifierTestRack\\MDK-ARM" "../Drivers/STM32F4xx_HAL_Driver/Inc\\stm32f4xx_hal_uart.h"
	.file	4 "C:\\Users\\DELL\\Desktop\\NewFolder\\OpticalFiberAmplifierTestRack\\MDK-ARM" "../Drivers/STM32F4xx_HAL_Driver/Inc\\stm32f4xx_hal_dma.h"
	.file	5 "C:\\Users\\DELL\\Desktop\\NewFolder\\OpticalFiberAmplifierTestRack\\MDK-ARM" "../Drivers/STM32F4xx_HAL_Driver/Inc/stm32f4xx_hal_def.h"
	.file	6 "C:\\Users\\DELL\\Desktop\\NewFolder\\OpticalFiberAmplifierTestRack\\MDK-ARM" "../Core/Src/usart.c"
	.section	.text.MX_UART4_Init,"ax",%progbits
	.hidden	MX_UART4_Init                   @ -- Begin function MX_UART4_Init
	.globl	MX_UART4_Init
	.p2align	2
	.type	MX_UART4_Init,%function
	.code	16                              @ @MX_UART4_Init
	.thumb_func
MX_UART4_Init:
.Lfunc_begin0:
	.loc	6 39 0                          @ ../Core/Src/usart.c:39:0
	.fnstart
	.cfi_sections .debug_frame
	.cfi_startproc
@ %bb.0:
	.save	{r7, lr}
	push	{r7, lr}
	.cfi_def_cfa_offset 8
	.cfi_offset lr, -4
	.cfi_offset r7, -8
	.pad	#8
	sub	sp, #8
	.cfi_def_cfa_offset 16
.Ltmp0:
	.loc	6 48 19 prologue_end            @ ../Core/Src/usart.c:48:19
	movw	r0, :lower16:huart4
	movt	r0, :upper16:huart4
	str	r0, [sp, #4]                    @ 4-byte Spill
	movw	r1, #19456
	movt	r1, #16384
	str	r1, [r0]
	mov.w	r1, #230400
	.loc	6 49 24                         @ ../Core/Src/usart.c:49:24
	str	r1, [r0, #4]
	movs	r1, #0
	.loc	6 50 26                         @ ../Core/Src/usart.c:50:26
	str	r1, [r0, #8]
	.loc	6 51 24                         @ ../Core/Src/usart.c:51:24
	str	r1, [r0, #12]
	.loc	6 52 22                         @ ../Core/Src/usart.c:52:22
	str	r1, [r0, #16]
	movs	r2, #12
	.loc	6 53 20                         @ ../Core/Src/usart.c:53:20
	str	r2, [r0, #20]
	.loc	6 54 25                         @ ../Core/Src/usart.c:54:25
	str	r1, [r0, #24]
	.loc	6 55 28                         @ ../Core/Src/usart.c:55:28
	str	r1, [r0, #28]
.Ltmp1:
	.loc	6 56 7                          @ ../Core/Src/usart.c:56:7
	bl	HAL_UART_Init
.Ltmp2:
	.loc	6 56 7 is_stmt 0                @ ../Core/Src/usart.c:56:7
	cbz	r0, .LBB0_2
	b	.LBB0_1
.LBB0_1:
.Ltmp3:
	.loc	6 58 5 is_stmt 1                @ ../Core/Src/usart.c:58:5
	bl	Error_Handler
	.loc	6 59 3                          @ ../Core/Src/usart.c:59:3
	b	.LBB0_2
.Ltmp4:
.LBB0_2:
	.loc	6 64 1                          @ ../Core/Src/usart.c:64:1
	add	sp, #8
	pop	{r7, pc}
.Ltmp5:
.Lfunc_end0:
	.size	MX_UART4_Init, .Lfunc_end0-MX_UART4_Init
	.cfi_endproc
	.cantunwind
	.fnend
                                        @ -- End function
	.section	.text.MX_USART1_UART_Init,"ax",%progbits
	.hidden	MX_USART1_UART_Init             @ -- Begin function MX_USART1_UART_Init
	.globl	MX_USART1_UART_Init
	.p2align	2
	.type	MX_USART1_UART_Init,%function
	.code	16                              @ @MX_USART1_UART_Init
	.thumb_func
MX_USART1_UART_Init:
.Lfunc_begin1:
	.loc	6 68 0                          @ ../Core/Src/usart.c:68:0
	.fnstart
	.cfi_startproc
@ %bb.0:
	.save	{r7, lr}
	push	{r7, lr}
	.cfi_def_cfa_offset 8
	.cfi_offset lr, -4
	.cfi_offset r7, -8
	.pad	#8
	sub	sp, #8
	.cfi_def_cfa_offset 16
.Ltmp6:
	.loc	6 77 19 prologue_end            @ ../Core/Src/usart.c:77:19
	movw	r0, :lower16:huart1
	movt	r0, :upper16:huart1
	str	r0, [sp, #4]                    @ 4-byte Spill
	movw	r1, #4096
	movt	r1, #16385
	str	r1, [r0]
	mov.w	r1, #230400
	.loc	6 78 24                         @ ../Core/Src/usart.c:78:24
	str	r1, [r0, #4]
	movs	r1, #0
	.loc	6 79 26                         @ ../Core/Src/usart.c:79:26
	str	r1, [r0, #8]
	.loc	6 80 24                         @ ../Core/Src/usart.c:80:24
	str	r1, [r0, #12]
	.loc	6 81 22                         @ ../Core/Src/usart.c:81:22
	str	r1, [r0, #16]
	movs	r2, #12
	.loc	6 82 20                         @ ../Core/Src/usart.c:82:20
	str	r2, [r0, #20]
	.loc	6 83 25                         @ ../Core/Src/usart.c:83:25
	str	r1, [r0, #24]
	.loc	6 84 28                         @ ../Core/Src/usart.c:84:28
	str	r1, [r0, #28]
.Ltmp7:
	.loc	6 85 7                          @ ../Core/Src/usart.c:85:7
	bl	HAL_UART_Init
.Ltmp8:
	.loc	6 85 7 is_stmt 0                @ ../Core/Src/usart.c:85:7
	cbz	r0, .LBB1_2
	b	.LBB1_1
.LBB1_1:
.Ltmp9:
	.loc	6 87 5 is_stmt 1                @ ../Core/Src/usart.c:87:5
	bl	Error_Handler
	.loc	6 88 3                          @ ../Core/Src/usart.c:88:3
	b	.LBB1_2
.Ltmp10:
.LBB1_2:
	.loc	6 93 1                          @ ../Core/Src/usart.c:93:1
	add	sp, #8
	pop	{r7, pc}
.Ltmp11:
.Lfunc_end1:
	.size	MX_USART1_UART_Init, .Lfunc_end1-MX_USART1_UART_Init
	.cfi_endproc
	.cantunwind
	.fnend
                                        @ -- End function
	.section	.text.MX_USART2_UART_Init,"ax",%progbits
	.hidden	MX_USART2_UART_Init             @ -- Begin function MX_USART2_UART_Init
	.globl	MX_USART2_UART_Init
	.p2align	2
	.type	MX_USART2_UART_Init,%function
	.code	16                              @ @MX_USART2_UART_Init
	.thumb_func
MX_USART2_UART_Init:
.Lfunc_begin2:
	.loc	6 97 0                          @ ../Core/Src/usart.c:97:0
	.fnstart
	.cfi_startproc
@ %bb.0:
	.save	{r7, lr}
	push	{r7, lr}
	.cfi_def_cfa_offset 8
	.cfi_offset lr, -4
	.cfi_offset r7, -8
	.pad	#8
	sub	sp, #8
	.cfi_def_cfa_offset 16
.Ltmp12:
	.loc	6 106 19 prologue_end           @ ../Core/Src/usart.c:106:19
	movw	r0, :lower16:huart2
	movt	r0, :upper16:huart2
	str	r0, [sp, #4]                    @ 4-byte Spill
	movw	r1, #17408
	movt	r1, #16384
	str	r1, [r0]
	mov.w	r1, #115200
	.loc	6 107 24                        @ ../Core/Src/usart.c:107:24
	str	r1, [r0, #4]
	movs	r1, #0
	.loc	6 108 26                        @ ../Core/Src/usart.c:108:26
	str	r1, [r0, #8]
	.loc	6 109 24                        @ ../Core/Src/usart.c:109:24
	str	r1, [r0, #12]
	.loc	6 110 22                        @ ../Core/Src/usart.c:110:22
	str	r1, [r0, #16]
	movs	r2, #12
	.loc	6 111 20                        @ ../Core/Src/usart.c:111:20
	str	r2, [r0, #20]
	.loc	6 112 25                        @ ../Core/Src/usart.c:112:25
	str	r1, [r0, #24]
	.loc	6 113 28                        @ ../Core/Src/usart.c:113:28
	str	r1, [r0, #28]
.Ltmp13:
	.loc	6 114 7                         @ ../Core/Src/usart.c:114:7
	bl	HAL_UART_Init
.Ltmp14:
	.loc	6 114 7 is_stmt 0               @ ../Core/Src/usart.c:114:7
	cbz	r0, .LBB2_2
	b	.LBB2_1
.LBB2_1:
.Ltmp15:
	.loc	6 116 5 is_stmt 1               @ ../Core/Src/usart.c:116:5
	bl	Error_Handler
	.loc	6 117 3                         @ ../Core/Src/usart.c:117:3
	b	.LBB2_2
.Ltmp16:
.LBB2_2:
	.loc	6 122 1                         @ ../Core/Src/usart.c:122:1
	add	sp, #8
	pop	{r7, pc}
.Ltmp17:
.Lfunc_end2:
	.size	MX_USART2_UART_Init, .Lfunc_end2-MX_USART2_UART_Init
	.cfi_endproc
	.cantunwind
	.fnend
                                        @ -- End function
	.section	.text.MX_USART3_UART_Init,"ax",%progbits
	.hidden	MX_USART3_UART_Init             @ -- Begin function MX_USART3_UART_Init
	.globl	MX_USART3_UART_Init
	.p2align	2
	.type	MX_USART3_UART_Init,%function
	.code	16                              @ @MX_USART3_UART_Init
	.thumb_func
MX_USART3_UART_Init:
.Lfunc_begin3:
	.loc	6 126 0                         @ ../Core/Src/usart.c:126:0
	.fnstart
	.cfi_startproc
@ %bb.0:
	.save	{r7, lr}
	push	{r7, lr}
	.cfi_def_cfa_offset 8
	.cfi_offset lr, -4
	.cfi_offset r7, -8
	.pad	#8
	sub	sp, #8
	.cfi_def_cfa_offset 16
.Ltmp18:
	.loc	6 135 19 prologue_end           @ ../Core/Src/usart.c:135:19
	movw	r0, :lower16:huart3
	movt	r0, :upper16:huart3
	str	r0, [sp, #4]                    @ 4-byte Spill
	movw	r1, #18432
	movt	r1, #16384
	str	r1, [r0]
	mov.w	r1, #9600
	.loc	6 136 24                        @ ../Core/Src/usart.c:136:24
	str	r1, [r0, #4]
	movs	r1, #0
	.loc	6 137 26                        @ ../Core/Src/usart.c:137:26
	str	r1, [r0, #8]
	.loc	6 138 24                        @ ../Core/Src/usart.c:138:24
	str	r1, [r0, #12]
	.loc	6 139 22                        @ ../Core/Src/usart.c:139:22
	str	r1, [r0, #16]
	movs	r2, #12
	.loc	6 140 20                        @ ../Core/Src/usart.c:140:20
	str	r2, [r0, #20]
	.loc	6 141 25                        @ ../Core/Src/usart.c:141:25
	str	r1, [r0, #24]
	.loc	6 142 28                        @ ../Core/Src/usart.c:142:28
	str	r1, [r0, #28]
.Ltmp19:
	.loc	6 143 7                         @ ../Core/Src/usart.c:143:7
	bl	HAL_UART_Init
.Ltmp20:
	.loc	6 143 7 is_stmt 0               @ ../Core/Src/usart.c:143:7
	cbz	r0, .LBB3_2
	b	.LBB3_1
.LBB3_1:
.Ltmp21:
	.loc	6 145 5 is_stmt 1               @ ../Core/Src/usart.c:145:5
	bl	Error_Handler
	.loc	6 146 3                         @ ../Core/Src/usart.c:146:3
	b	.LBB3_2
.Ltmp22:
.LBB3_2:
	.loc	6 151 1                         @ ../Core/Src/usart.c:151:1
	add	sp, #8
	pop	{r7, pc}
.Ltmp23:
.Lfunc_end3:
	.size	MX_USART3_UART_Init, .Lfunc_end3-MX_USART3_UART_Init
	.cfi_endproc
	.cantunwind
	.fnend
                                        @ -- End function
	.section	.text.MX_USART6_UART_Init,"ax",%progbits
	.hidden	MX_USART6_UART_Init             @ -- Begin function MX_USART6_UART_Init
	.globl	MX_USART6_UART_Init
	.p2align	2
	.type	MX_USART6_UART_Init,%function
	.code	16                              @ @MX_USART6_UART_Init
	.thumb_func
MX_USART6_UART_Init:
.Lfunc_begin4:
	.loc	6 155 0                         @ ../Core/Src/usart.c:155:0
	.fnstart
	.cfi_startproc
@ %bb.0:
	.save	{r7, lr}
	push	{r7, lr}
	.cfi_def_cfa_offset 8
	.cfi_offset lr, -4
	.cfi_offset r7, -8
	.pad	#8
	sub	sp, #8
	.cfi_def_cfa_offset 16
.Ltmp24:
	.loc	6 164 19 prologue_end           @ ../Core/Src/usart.c:164:19
	movw	r0, :lower16:huart6
	movt	r0, :upper16:huart6
	str	r0, [sp, #4]                    @ 4-byte Spill
	movw	r1, #5120
	movt	r1, #16385
	str	r1, [r0]
	mov.w	r1, #115200
	.loc	6 165 24                        @ ../Core/Src/usart.c:165:24
	str	r1, [r0, #4]
	movs	r1, #0
	.loc	6 166 26                        @ ../Core/Src/usart.c:166:26
	str	r1, [r0, #8]
	.loc	6 167 24                        @ ../Core/Src/usart.c:167:24
	str	r1, [r0, #12]
	.loc	6 168 22                        @ ../Core/Src/usart.c:168:22
	str	r1, [r0, #16]
	movs	r2, #12
	.loc	6 169 20                        @ ../Core/Src/usart.c:169:20
	str	r2, [r0, #20]
	.loc	6 170 25                        @ ../Core/Src/usart.c:170:25
	str	r1, [r0, #24]
	.loc	6 171 28                        @ ../Core/Src/usart.c:171:28
	str	r1, [r0, #28]
.Ltmp25:
	.loc	6 172 7                         @ ../Core/Src/usart.c:172:7
	bl	HAL_UART_Init
.Ltmp26:
	.loc	6 172 7 is_stmt 0               @ ../Core/Src/usart.c:172:7
	cbz	r0, .LBB4_2
	b	.LBB4_1
.LBB4_1:
.Ltmp27:
	.loc	6 174 5 is_stmt 1               @ ../Core/Src/usart.c:174:5
	bl	Error_Handler
	.loc	6 175 3                         @ ../Core/Src/usart.c:175:3
	b	.LBB4_2
.Ltmp28:
.LBB4_2:
	.loc	6 180 1                         @ ../Core/Src/usart.c:180:1
	add	sp, #8
	pop	{r7, pc}
.Ltmp29:
.Lfunc_end4:
	.size	MX_USART6_UART_Init, .Lfunc_end4-MX_USART6_UART_Init
	.cfi_endproc
	.cantunwind
	.fnend
                                        @ -- End function
	.section	.text.HAL_UART_MspInit,"ax",%progbits
	.hidden	HAL_UART_MspInit                @ -- Begin function HAL_UART_MspInit
	.globl	HAL_UART_MspInit
	.p2align	2
	.type	HAL_UART_MspInit,%function
	.code	16                              @ @HAL_UART_MspInit
	.thumb_func
HAL_UART_MspInit:
.Lfunc_begin5:
	.loc	6 183 0                         @ ../Core/Src/usart.c:183:0
	.fnstart
	.cfi_startproc
@ %bb.0:
	.save	{r7, lr}
	push	{r7, lr}
	.cfi_def_cfa_offset 8
	.cfi_offset lr, -4
	.cfi_offset r7, -8
	.pad	#120
	sub	sp, #120
	.cfi_def_cfa_offset 128
	str	r0, [sp, #116]
	movs	r0, #0
.Ltmp30:
	.loc	6 185 20 prologue_end           @ ../Core/Src/usart.c:185:20
	str	r0, [sp, #112]
	str	r0, [sp, #108]
	str	r0, [sp, #104]
	str	r0, [sp, #100]
	str	r0, [sp, #96]
.Ltmp31:
	.loc	6 186 6                         @ ../Core/Src/usart.c:186:6
	ldr	r0, [sp, #116]
	.loc	6 186 18 is_stmt 0              @ ../Core/Src/usart.c:186:18
	ldr	r0, [r0]
	movw	r1, #19456
	movt	r1, #16384
.Ltmp32:
	.loc	6 186 6                         @ ../Core/Src/usart.c:186:6
	cmp	r0, r1
	bne.w	.LBB5_14
	b	.LBB5_1
.LBB5_1:
.Ltmp33:
	.loc	6 192 5 is_stmt 1               @ ../Core/Src/usart.c:192:5
	b	.LBB5_2
.LBB5_2:
	.loc	6 0 5 is_stmt 0                 @ ../Core/Src/usart.c:0:5
	movs	r0, #0
.Ltmp34:
	.loc	6 192 5                         @ ../Core/Src/usart.c:192:5
	str	r0, [sp, #92]
	movw	r0, #14400
	movt	r0, #16386
	ldr	r1, [r0]
	orr	r1, r1, #524288
	str	r1, [r0]
	ldr	r0, [r0]
	and	r0, r0, #524288
	str	r0, [sp, #92]
	ldr	r0, [sp, #92]
	b	.LBB5_3
.Ltmp35:
.LBB5_3:
	.loc	6 194 5 is_stmt 1               @ ../Core/Src/usart.c:194:5
	b	.LBB5_4
.LBB5_4:
	.loc	6 0 5 is_stmt 0                 @ ../Core/Src/usart.c:0:5
	movs	r0, #0
.Ltmp36:
	.loc	6 194 5                         @ ../Core/Src/usart.c:194:5
	str	r0, [sp, #88]
	movw	r0, #14384
	movt	r0, #16386
	ldr	r1, [r0]
	orr	r1, r1, #1
	str	r1, [r0]
	ldr	r0, [r0]
	and	r0, r0, #1
	str	r0, [sp, #88]
	ldr	r0, [sp, #88]
	b	.LBB5_5
.Ltmp37:
.LBB5_5:
	.loc	6 0 5                           @ ../Core/Src/usart.c:0:5
	movs	r0, #3
	.loc	6 199 25 is_stmt 1              @ ../Core/Src/usart.c:199:25
	str	r0, [sp, #96]
	movs	r1, #2
	.loc	6 200 26                        @ ../Core/Src/usart.c:200:26
	str	r1, [sp, #100]
	movs	r1, #0
	.loc	6 201 26                        @ ../Core/Src/usart.c:201:26
	str	r1, [sp, #48]                   @ 4-byte Spill
	str	r1, [sp, #104]
	.loc	6 202 27                        @ ../Core/Src/usart.c:202:27
	str	r0, [sp, #108]
	movs	r0, #8
	.loc	6 203 31                        @ ../Core/Src/usart.c:203:31
	str	r0, [sp, #112]
	movs	r0, #0
	movt	r0, #16386
	add	r1, sp, #96
	.loc	6 204 5                         @ ../Core/Src/usart.c:204:5
	bl	HAL_GPIO_Init
	ldr	r1, [sp, #48]                   @ 4-byte Reload
	.loc	6 208 28                        @ ../Core/Src/usart.c:208:28
	movw	r0, :lower16:hdma_uart4_rx
	movt	r0, :upper16:hdma_uart4_rx
	str	r0, [sp, #52]                   @ 4-byte Spill
	movw	r2, #24640
	movt	r2, #16386
	str	r2, [r0]
	mov.w	r2, #134217728
	.loc	6 209 32                        @ ../Core/Src/usart.c:209:32
	str	r2, [r0, #4]
	.loc	6 210 34                        @ ../Core/Src/usart.c:210:34
	str	r1, [r0, #8]
	.loc	6 211 34                        @ ../Core/Src/usart.c:211:34
	str	r1, [r0, #12]
	mov.w	r2, #1024
	.loc	6 212 31                        @ ../Core/Src/usart.c:212:31
	str	r2, [r0, #16]
	.loc	6 213 44                        @ ../Core/Src/usart.c:213:44
	str	r1, [r0, #20]
	.loc	6 214 41                        @ ../Core/Src/usart.c:214:41
	str	r1, [r0, #24]
	.loc	6 215 29                        @ ../Core/Src/usart.c:215:29
	str	r1, [r0, #28]
	.loc	6 216 33                        @ ../Core/Src/usart.c:216:33
	str	r1, [r0, #32]
	.loc	6 217 33                        @ ../Core/Src/usart.c:217:33
	str	r1, [r0, #36]
.Ltmp38:
	.loc	6 218 9                         @ ../Core/Src/usart.c:218:9
	bl	HAL_DMA_Init
.Ltmp39:
	.loc	6 218 9 is_stmt 0               @ ../Core/Src/usart.c:218:9
	cbz	r0, .LBB5_7
	b	.LBB5_6
.LBB5_6:
.Ltmp40:
	.loc	6 220 7 is_stmt 1               @ ../Core/Src/usart.c:220:7
	bl	Error_Handler
	.loc	6 221 5                         @ ../Core/Src/usart.c:221:5
	b	.LBB5_7
.Ltmp41:
.LBB5_7:
	.loc	6 223 5                         @ ../Core/Src/usart.c:223:5
	b	.LBB5_8
.LBB5_8:
.Ltmp42:
	.loc	6 223 5 is_stmt 0               @ ../Core/Src/usart.c:223:5
	ldr	r0, [sp, #116]
	movw	r1, :lower16:hdma_uart4_rx
	movt	r1, :upper16:hdma_uart4_rx
	str	r1, [r0, #56]
	ldr	r0, [sp, #116]
	str	r0, [r1, #56]
	b	.LBB5_9
.Ltmp43:
.LBB5_9:
	.loc	6 226 28 is_stmt 1              @ ../Core/Src/usart.c:226:28
	movw	r0, :lower16:hdma_uart4_tx
	movt	r0, :upper16:hdma_uart4_tx
	str	r0, [sp, #44]                   @ 4-byte Spill
	movw	r1, #24688
	movt	r1, #16386
	str	r1, [r0]
	mov.w	r1, #134217728
	.loc	6 227 32                        @ ../Core/Src/usart.c:227:32
	str	r1, [r0, #4]
	movs	r1, #64
	.loc	6 228 34                        @ ../Core/Src/usart.c:228:34
	str	r1, [r0, #8]
	movs	r1, #0
	.loc	6 229 34                        @ ../Core/Src/usart.c:229:34
	str	r1, [r0, #12]
	mov.w	r2, #1024
	.loc	6 230 31                        @ ../Core/Src/usart.c:230:31
	str	r2, [r0, #16]
	.loc	6 231 44                        @ ../Core/Src/usart.c:231:44
	str	r1, [r0, #20]
	.loc	6 232 41                        @ ../Core/Src/usart.c:232:41
	str	r1, [r0, #24]
	.loc	6 233 29                        @ ../Core/Src/usart.c:233:29
	str	r1, [r0, #28]
	.loc	6 234 33                        @ ../Core/Src/usart.c:234:33
	str	r1, [r0, #32]
	.loc	6 235 33                        @ ../Core/Src/usart.c:235:33
	str	r1, [r0, #36]
.Ltmp44:
	.loc	6 236 9                         @ ../Core/Src/usart.c:236:9
	bl	HAL_DMA_Init
.Ltmp45:
	.loc	6 236 9 is_stmt 0               @ ../Core/Src/usart.c:236:9
	cbz	r0, .LBB5_11
	b	.LBB5_10
.LBB5_10:
.Ltmp46:
	.loc	6 238 7 is_stmt 1               @ ../Core/Src/usart.c:238:7
	bl	Error_Handler
	.loc	6 239 5                         @ ../Core/Src/usart.c:239:5
	b	.LBB5_11
.Ltmp47:
.LBB5_11:
	.loc	6 241 5                         @ ../Core/Src/usart.c:241:5
	b	.LBB5_12
.LBB5_12:
.Ltmp48:
	.loc	6 241 5 is_stmt 0               @ ../Core/Src/usart.c:241:5
	ldr	r0, [sp, #116]
	movw	r1, :lower16:hdma_uart4_tx
	movt	r1, :upper16:hdma_uart4_tx
	str	r1, [r0, #52]
	ldr	r0, [sp, #116]
	str	r0, [r1, #56]
	b	.LBB5_13
.Ltmp49:
.LBB5_13:
	.loc	6 0 5                           @ ../Core/Src/usart.c:0:5
	movs	r0, #52
	str	r0, [sp, #40]                   @ 4-byte Spill
	movs	r2, #0
	.loc	6 244 5 is_stmt 1               @ ../Core/Src/usart.c:244:5
	mov	r1, r2
	bl	HAL_NVIC_SetPriority
	ldr	r0, [sp, #40]                   @ 4-byte Reload
	.loc	6 245 5                         @ ../Core/Src/usart.c:245:5
	bl	HAL_NVIC_EnableIRQ
	.loc	6 249 3                         @ ../Core/Src/usart.c:249:3
	b	.LBB5_50
.Ltmp50:
.LBB5_14:
	.loc	6 250 11                        @ ../Core/Src/usart.c:250:11
	ldr	r0, [sp, #116]
	.loc	6 250 23 is_stmt 0              @ ../Core/Src/usart.c:250:23
	ldr	r0, [r0]
	movw	r1, #4096
	movt	r1, #16385
.Ltmp51:
	.loc	6 250 11                        @ ../Core/Src/usart.c:250:11
	cmp	r0, r1
	bne.w	.LBB5_28
	b	.LBB5_15
.LBB5_15:
.Ltmp52:
	.loc	6 256 5 is_stmt 1               @ ../Core/Src/usart.c:256:5
	b	.LBB5_16
.LBB5_16:
	.loc	6 0 5 is_stmt 0                 @ ../Core/Src/usart.c:0:5
	movs	r0, #0
.Ltmp53:
	.loc	6 256 5                         @ ../Core/Src/usart.c:256:5
	str	r0, [sp, #84]
	movw	r0, #14404
	movt	r0, #16386
	ldr	r1, [r0]
	orr	r1, r1, #16
	str	r1, [r0]
	ldr	r0, [r0]
	and	r0, r0, #16
	str	r0, [sp, #84]
	ldr	r0, [sp, #84]
	b	.LBB5_17
.Ltmp54:
.LBB5_17:
	.loc	6 258 5 is_stmt 1               @ ../Core/Src/usart.c:258:5
	b	.LBB5_18
.LBB5_18:
	.loc	6 0 5 is_stmt 0                 @ ../Core/Src/usart.c:0:5
	movs	r0, #0
.Ltmp55:
	.loc	6 258 5                         @ ../Core/Src/usart.c:258:5
	str	r0, [sp, #80]
	movw	r0, #14384
	movt	r0, #16386
	ldr	r1, [r0]
	orr	r1, r1, #1
	str	r1, [r0]
	ldr	r0, [r0]
	and	r0, r0, #1
	str	r0, [sp, #80]
	ldr	r0, [sp, #80]
	b	.LBB5_19
.Ltmp56:
.LBB5_19:
	.loc	6 0 5                           @ ../Core/Src/usart.c:0:5
	mov.w	r0, #1536
	.loc	6 263 25 is_stmt 1              @ ../Core/Src/usart.c:263:25
	str	r0, [sp, #96]
	movs	r0, #2
	.loc	6 264 26                        @ ../Core/Src/usart.c:264:26
	str	r0, [sp, #100]
	movs	r0, #0
	.loc	6 265 26                        @ ../Core/Src/usart.c:265:26
	str	r0, [sp, #32]                   @ 4-byte Spill
	str	r0, [sp, #104]
	movs	r0, #3
	.loc	6 266 27                        @ ../Core/Src/usart.c:266:27
	str	r0, [sp, #108]
	movs	r0, #7
	.loc	6 267 31                        @ ../Core/Src/usart.c:267:31
	str	r0, [sp, #112]
	movs	r0, #0
	movt	r0, #16386
	add	r1, sp, #96
	.loc	6 268 5                         @ ../Core/Src/usart.c:268:5
	bl	HAL_GPIO_Init
	ldr	r1, [sp, #32]                   @ 4-byte Reload
	.loc	6 272 29                        @ ../Core/Src/usart.c:272:29
	movw	r0, :lower16:hdma_usart1_rx
	movt	r0, :upper16:hdma_usart1_rx
	str	r0, [sp, #36]                   @ 4-byte Spill
	movw	r2, #25664
	movt	r2, #16386
	str	r2, [r0]
	mov.w	r2, #134217728
	.loc	6 273 33                        @ ../Core/Src/usart.c:273:33
	str	r2, [r0, #4]
	.loc	6 274 35                        @ ../Core/Src/usart.c:274:35
	str	r1, [r0, #8]
	.loc	6 275 35                        @ ../Core/Src/usart.c:275:35
	str	r1, [r0, #12]
	mov.w	r2, #1024
	.loc	6 276 32                        @ ../Core/Src/usart.c:276:32
	str	r2, [r0, #16]
	.loc	6 277 45                        @ ../Core/Src/usart.c:277:45
	str	r1, [r0, #20]
	.loc	6 278 42                        @ ../Core/Src/usart.c:278:42
	str	r1, [r0, #24]
	.loc	6 279 30                        @ ../Core/Src/usart.c:279:30
	str	r1, [r0, #28]
	mov.w	r2, #65536
	.loc	6 280 34                        @ ../Core/Src/usart.c:280:34
	str	r2, [r0, #32]
	.loc	6 281 34                        @ ../Core/Src/usart.c:281:34
	str	r1, [r0, #36]
.Ltmp57:
	.loc	6 282 9                         @ ../Core/Src/usart.c:282:9
	bl	HAL_DMA_Init
.Ltmp58:
	.loc	6 282 9 is_stmt 0               @ ../Core/Src/usart.c:282:9
	cbz	r0, .LBB5_21
	b	.LBB5_20
.LBB5_20:
.Ltmp59:
	.loc	6 284 7 is_stmt 1               @ ../Core/Src/usart.c:284:7
	bl	Error_Handler
	.loc	6 285 5                         @ ../Core/Src/usart.c:285:5
	b	.LBB5_21
.Ltmp60:
.LBB5_21:
	.loc	6 287 5                         @ ../Core/Src/usart.c:287:5
	b	.LBB5_22
.LBB5_22:
.Ltmp61:
	.loc	6 287 5 is_stmt 0               @ ../Core/Src/usart.c:287:5
	ldr	r0, [sp, #116]
	movw	r1, :lower16:hdma_usart1_rx
	movt	r1, :upper16:hdma_usart1_rx
	str	r1, [r0, #56]
	ldr	r0, [sp, #116]
	str	r0, [r1, #56]
	b	.LBB5_23
.Ltmp62:
.LBB5_23:
	.loc	6 290 29 is_stmt 1              @ ../Core/Src/usart.c:290:29
	movw	r0, :lower16:hdma_usart1_tx
	movt	r0, :upper16:hdma_usart1_tx
	str	r0, [sp, #28]                   @ 4-byte Spill
	movw	r1, #25784
	movt	r1, #16386
	str	r1, [r0]
	mov.w	r1, #134217728
	.loc	6 291 33                        @ ../Core/Src/usart.c:291:33
	str	r1, [r0, #4]
	movs	r1, #64
	.loc	6 292 35                        @ ../Core/Src/usart.c:292:35
	str	r1, [r0, #8]
	movs	r1, #0
	.loc	6 293 35                        @ ../Core/Src/usart.c:293:35
	str	r1, [r0, #12]
	mov.w	r2, #1024
	.loc	6 294 32                        @ ../Core/Src/usart.c:294:32
	str	r2, [r0, #16]
	.loc	6 295 45                        @ ../Core/Src/usart.c:295:45
	str	r1, [r0, #20]
	.loc	6 296 42                        @ ../Core/Src/usart.c:296:42
	str	r1, [r0, #24]
	.loc	6 297 30                        @ ../Core/Src/usart.c:297:30
	str	r1, [r0, #28]
	mov.w	r2, #65536
	.loc	6 298 34                        @ ../Core/Src/usart.c:298:34
	str	r2, [r0, #32]
	.loc	6 299 34                        @ ../Core/Src/usart.c:299:34
	str	r1, [r0, #36]
.Ltmp63:
	.loc	6 300 9                         @ ../Core/Src/usart.c:300:9
	bl	HAL_DMA_Init
.Ltmp64:
	.loc	6 300 9 is_stmt 0               @ ../Core/Src/usart.c:300:9
	cbz	r0, .LBB5_25
	b	.LBB5_24
.LBB5_24:
.Ltmp65:
	.loc	6 302 7 is_stmt 1               @ ../Core/Src/usart.c:302:7
	bl	Error_Handler
	.loc	6 303 5                         @ ../Core/Src/usart.c:303:5
	b	.LBB5_25
.Ltmp66:
.LBB5_25:
	.loc	6 305 5                         @ ../Core/Src/usart.c:305:5
	b	.LBB5_26
.LBB5_26:
.Ltmp67:
	.loc	6 305 5 is_stmt 0               @ ../Core/Src/usart.c:305:5
	ldr	r0, [sp, #116]
	movw	r1, :lower16:hdma_usart1_tx
	movt	r1, :upper16:hdma_usart1_tx
	str	r1, [r0, #52]
	ldr	r0, [sp, #116]
	str	r0, [r1, #56]
	b	.LBB5_27
.Ltmp68:
.LBB5_27:
	.loc	6 0 5                           @ ../Core/Src/usart.c:0:5
	movs	r0, #37
	str	r0, [sp, #24]                   @ 4-byte Spill
	movs	r2, #0
	.loc	6 308 5 is_stmt 1               @ ../Core/Src/usart.c:308:5
	mov	r1, r2
	bl	HAL_NVIC_SetPriority
	ldr	r0, [sp, #24]                   @ 4-byte Reload
	.loc	6 309 5                         @ ../Core/Src/usart.c:309:5
	bl	HAL_NVIC_EnableIRQ
	.loc	6 313 3                         @ ../Core/Src/usart.c:313:3
	b	.LBB5_49
.Ltmp69:
.LBB5_28:
	.loc	6 314 11                        @ ../Core/Src/usart.c:314:11
	ldr	r0, [sp, #116]
	.loc	6 314 23 is_stmt 0              @ ../Core/Src/usart.c:314:23
	ldr	r0, [r0]
	movw	r1, #17408
	movt	r1, #16384
.Ltmp70:
	.loc	6 314 11                        @ ../Core/Src/usart.c:314:11
	cmp	r0, r1
	bne	.LBB5_34
	b	.LBB5_29
.LBB5_29:
.Ltmp71:
	.loc	6 320 5 is_stmt 1               @ ../Core/Src/usart.c:320:5
	b	.LBB5_30
.LBB5_30:
	.loc	6 0 5 is_stmt 0                 @ ../Core/Src/usart.c:0:5
	movs	r0, #0
.Ltmp72:
	.loc	6 320 5                         @ ../Core/Src/usart.c:320:5
	str	r0, [sp, #76]
	movw	r0, #14400
	movt	r0, #16386
	ldr	r1, [r0]
	orr	r1, r1, #131072
	str	r1, [r0]
	ldr	r0, [r0]
	and	r0, r0, #131072
	str	r0, [sp, #76]
	ldr	r0, [sp, #76]
	b	.LBB5_31
.Ltmp73:
.LBB5_31:
	.loc	6 322 5 is_stmt 1               @ ../Core/Src/usart.c:322:5
	b	.LBB5_32
.LBB5_32:
	.loc	6 0 5 is_stmt 0                 @ ../Core/Src/usart.c:0:5
	movs	r0, #0
.Ltmp74:
	.loc	6 322 5                         @ ../Core/Src/usart.c:322:5
	str	r0, [sp, #72]
	movw	r0, #14384
	movt	r0, #16386
	ldr	r1, [r0]
	orr	r1, r1, #8
	str	r1, [r0]
	ldr	r0, [r0]
	and	r0, r0, #8
	str	r0, [sp, #72]
	ldr	r0, [sp, #72]
	b	.LBB5_33
.Ltmp75:
.LBB5_33:
	.loc	6 0 5                           @ ../Core/Src/usart.c:0:5
	movs	r0, #96
	.loc	6 327 25 is_stmt 1              @ ../Core/Src/usart.c:327:25
	str	r0, [sp, #96]
	movs	r0, #2
	.loc	6 328 26                        @ ../Core/Src/usart.c:328:26
	str	r0, [sp, #100]
	movs	r0, #0
	.loc	6 329 26                        @ ../Core/Src/usart.c:329:26
	str	r0, [sp, #16]                   @ 4-byte Spill
	str	r0, [sp, #104]
	movs	r0, #3
	.loc	6 330 27                        @ ../Core/Src/usart.c:330:27
	str	r0, [sp, #108]
	movs	r0, #7
	.loc	6 331 31                        @ ../Core/Src/usart.c:331:31
	str	r0, [sp, #112]
	movw	r0, #3072
	movt	r0, #16386
	add	r1, sp, #96
	.loc	6 332 5                         @ ../Core/Src/usart.c:332:5
	bl	HAL_GPIO_Init
	ldr	r2, [sp, #16]                   @ 4-byte Reload
	movs	r0, #38
	.loc	6 335 5                         @ ../Core/Src/usart.c:335:5
	str	r0, [sp, #20]                   @ 4-byte Spill
	mov	r1, r2
	bl	HAL_NVIC_SetPriority
	ldr	r0, [sp, #20]                   @ 4-byte Reload
	.loc	6 336 5                         @ ../Core/Src/usart.c:336:5
	bl	HAL_NVIC_EnableIRQ
	.loc	6 340 3                         @ ../Core/Src/usart.c:340:3
	b	.LBB5_48
.Ltmp76:
.LBB5_34:
	.loc	6 341 11                        @ ../Core/Src/usart.c:341:11
	ldr	r0, [sp, #116]
	.loc	6 341 23 is_stmt 0              @ ../Core/Src/usart.c:341:23
	ldr	r0, [r0]
	movw	r1, #18432
	movt	r1, #16384
.Ltmp77:
	.loc	6 341 11                        @ ../Core/Src/usart.c:341:11
	cmp	r0, r1
	bne	.LBB5_40
	b	.LBB5_35
.LBB5_35:
.Ltmp78:
	.loc	6 347 5 is_stmt 1               @ ../Core/Src/usart.c:347:5
	b	.LBB5_36
.LBB5_36:
	.loc	6 0 5 is_stmt 0                 @ ../Core/Src/usart.c:0:5
	movs	r0, #0
.Ltmp79:
	.loc	6 347 5                         @ ../Core/Src/usart.c:347:5
	str	r0, [sp, #68]
	movw	r0, #14400
	movt	r0, #16386
	ldr	r1, [r0]
	orr	r1, r1, #262144
	str	r1, [r0]
	ldr	r0, [r0]
	and	r0, r0, #262144
	str	r0, [sp, #68]
	ldr	r0, [sp, #68]
	b	.LBB5_37
.Ltmp80:
.LBB5_37:
	.loc	6 349 5 is_stmt 1               @ ../Core/Src/usart.c:349:5
	b	.LBB5_38
.LBB5_38:
	.loc	6 0 5 is_stmt 0                 @ ../Core/Src/usart.c:0:5
	movs	r0, #0
.Ltmp81:
	.loc	6 349 5                         @ ../Core/Src/usart.c:349:5
	str	r0, [sp, #64]
	movw	r0, #14384
	movt	r0, #16386
	ldr	r1, [r0]
	orr	r1, r1, #2
	str	r1, [r0]
	ldr	r0, [r0]
	and	r0, r0, #2
	str	r0, [sp, #64]
	ldr	r0, [sp, #64]
	b	.LBB5_39
.Ltmp82:
.LBB5_39:
	.loc	6 0 5                           @ ../Core/Src/usart.c:0:5
	mov.w	r0, #3072
	.loc	6 354 25 is_stmt 1              @ ../Core/Src/usart.c:354:25
	str	r0, [sp, #96]
	movs	r0, #2
	.loc	6 355 26                        @ ../Core/Src/usart.c:355:26
	str	r0, [sp, #100]
	movs	r0, #0
	.loc	6 356 26                        @ ../Core/Src/usart.c:356:26
	str	r0, [sp, #8]                    @ 4-byte Spill
	str	r0, [sp, #104]
	movs	r0, #3
	.loc	6 357 27                        @ ../Core/Src/usart.c:357:27
	str	r0, [sp, #108]
	movs	r0, #7
	.loc	6 358 31                        @ ../Core/Src/usart.c:358:31
	str	r0, [sp, #112]
	movw	r0, #1024
	movt	r0, #16386
	add	r1, sp, #96
	.loc	6 359 5                         @ ../Core/Src/usart.c:359:5
	bl	HAL_GPIO_Init
	ldr	r2, [sp, #8]                    @ 4-byte Reload
	movs	r0, #39
	.loc	6 362 5                         @ ../Core/Src/usart.c:362:5
	str	r0, [sp, #12]                   @ 4-byte Spill
	mov	r1, r2
	bl	HAL_NVIC_SetPriority
	ldr	r0, [sp, #12]                   @ 4-byte Reload
	.loc	6 363 5                         @ ../Core/Src/usart.c:363:5
	bl	HAL_NVIC_EnableIRQ
	.loc	6 367 3                         @ ../Core/Src/usart.c:367:3
	b	.LBB5_47
.Ltmp83:
.LBB5_40:
	.loc	6 368 11                        @ ../Core/Src/usart.c:368:11
	ldr	r0, [sp, #116]
	.loc	6 368 23 is_stmt 0              @ ../Core/Src/usart.c:368:23
	ldr	r0, [r0]
	movw	r1, #5120
	movt	r1, #16385
.Ltmp84:
	.loc	6 368 11                        @ ../Core/Src/usart.c:368:11
	cmp	r0, r1
	bne	.LBB5_46
	b	.LBB5_41
.LBB5_41:
.Ltmp85:
	.loc	6 374 5 is_stmt 1               @ ../Core/Src/usart.c:374:5
	b	.LBB5_42
.LBB5_42:
	.loc	6 0 5 is_stmt 0                 @ ../Core/Src/usart.c:0:5
	movs	r0, #0
.Ltmp86:
	.loc	6 374 5                         @ ../Core/Src/usart.c:374:5
	str	r0, [sp, #60]
	movw	r0, #14404
	movt	r0, #16386
	ldr	r1, [r0]
	orr	r1, r1, #32
	str	r1, [r0]
	ldr	r0, [r0]
	and	r0, r0, #32
	str	r0, [sp, #60]
	ldr	r0, [sp, #60]
	b	.LBB5_43
.Ltmp87:
.LBB5_43:
	.loc	6 376 5 is_stmt 1               @ ../Core/Src/usart.c:376:5
	b	.LBB5_44
.LBB5_44:
	.loc	6 0 5 is_stmt 0                 @ ../Core/Src/usart.c:0:5
	movs	r0, #0
.Ltmp88:
	.loc	6 376 5                         @ ../Core/Src/usart.c:376:5
	str	r0, [sp, #56]
	movw	r0, #14384
	movt	r0, #16386
	ldr	r1, [r0]
	orr	r1, r1, #4
	str	r1, [r0]
	ldr	r0, [r0]
	and	r0, r0, #4
	str	r0, [sp, #56]
	ldr	r0, [sp, #56]
	b	.LBB5_45
.Ltmp89:
.LBB5_45:
	.loc	6 0 5                           @ ../Core/Src/usart.c:0:5
	movs	r0, #192
	.loc	6 381 25 is_stmt 1              @ ../Core/Src/usart.c:381:25
	str	r0, [sp, #96]
	movs	r0, #2
	.loc	6 382 26                        @ ../Core/Src/usart.c:382:26
	str	r0, [sp, #100]
	movs	r0, #0
	.loc	6 383 26                        @ ../Core/Src/usart.c:383:26
	str	r0, [sp]                        @ 4-byte Spill
	str	r0, [sp, #104]
	movs	r0, #3
	.loc	6 384 27                        @ ../Core/Src/usart.c:384:27
	str	r0, [sp, #108]
	movs	r0, #8
	.loc	6 385 31                        @ ../Core/Src/usart.c:385:31
	str	r0, [sp, #112]
	movw	r0, #2048
	movt	r0, #16386
	add	r1, sp, #96
	.loc	6 386 5                         @ ../Core/Src/usart.c:386:5
	bl	HAL_GPIO_Init
	ldr	r2, [sp]                        @ 4-byte Reload
	movs	r0, #71
	.loc	6 389 5                         @ ../Core/Src/usart.c:389:5
	str	r0, [sp, #4]                    @ 4-byte Spill
	mov	r1, r2
	bl	HAL_NVIC_SetPriority
	ldr	r0, [sp, #4]                    @ 4-byte Reload
	.loc	6 390 5                         @ ../Core/Src/usart.c:390:5
	bl	HAL_NVIC_EnableIRQ
	.loc	6 394 3                         @ ../Core/Src/usart.c:394:3
	b	.LBB5_46
.Ltmp90:
.LBB5_46:
	.loc	6 0 3 is_stmt 0                 @ ../Core/Src/usart.c:0:3
	b	.LBB5_47
.LBB5_47:
	b	.LBB5_48
.LBB5_48:
	b	.LBB5_49
.LBB5_49:
	b	.LBB5_50
.LBB5_50:
	.loc	6 395 1 is_stmt 1               @ ../Core/Src/usart.c:395:1
	add	sp, #120
	pop	{r7, pc}
.Ltmp91:
.Lfunc_end5:
	.size	HAL_UART_MspInit, .Lfunc_end5-HAL_UART_MspInit
	.cfi_endproc
	.cantunwind
	.fnend
                                        @ -- End function
	.section	.text.HAL_UART_MspDeInit,"ax",%progbits
	.hidden	HAL_UART_MspDeInit              @ -- Begin function HAL_UART_MspDeInit
	.globl	HAL_UART_MspDeInit
	.p2align	2
	.type	HAL_UART_MspDeInit,%function
	.code	16                              @ @HAL_UART_MspDeInit
	.thumb_func
HAL_UART_MspDeInit:
.Lfunc_begin6:
	.loc	6 398 0                         @ ../Core/Src/usart.c:398:0
	.fnstart
	.cfi_startproc
@ %bb.0:
	.save	{r7, lr}
	push	{r7, lr}
	.cfi_def_cfa_offset 8
	.cfi_offset lr, -4
	.cfi_offset r7, -8
	.pad	#8
	sub	sp, #8
	.cfi_def_cfa_offset 16
	str	r0, [sp, #4]
.Ltmp92:
	.loc	6 400 6 prologue_end            @ ../Core/Src/usart.c:400:6
	ldr	r0, [sp, #4]
	.loc	6 400 18 is_stmt 0              @ ../Core/Src/usart.c:400:18
	ldr	r0, [r0]
	movw	r1, #19456
	movt	r1, #16384
.Ltmp93:
	.loc	6 400 6                         @ ../Core/Src/usart.c:400:6
	cmp	r0, r1
	bne	.LBB6_2
	b	.LBB6_1
.LBB6_1:
	.loc	6 0 6                           @ ../Core/Src/usart.c:0:6
	movw	r1, #14400
	movt	r1, #16386
.Ltmp94:
	.loc	6 406 5 is_stmt 1               @ ../Core/Src/usart.c:406:5
	ldr	r0, [r1]
	bic	r0, r0, #524288
	str	r0, [r1]
	movs	r0, #0
	movt	r0, #16386
	movs	r1, #3
	.loc	6 412 5                         @ ../Core/Src/usart.c:412:5
	bl	HAL_GPIO_DeInit
	.loc	6 415 20                        @ ../Core/Src/usart.c:415:20
	ldr	r0, [sp, #4]
	.loc	6 415 32 is_stmt 0              @ ../Core/Src/usart.c:415:32
	ldr	r0, [r0, #56]
	.loc	6 415 5                         @ ../Core/Src/usart.c:415:5
	bl	HAL_DMA_DeInit
	.loc	6 416 20 is_stmt 1              @ ../Core/Src/usart.c:416:20
	ldr	r0, [sp, #4]
	.loc	6 416 32 is_stmt 0              @ ../Core/Src/usart.c:416:32
	ldr	r0, [r0, #52]
	.loc	6 416 5                         @ ../Core/Src/usart.c:416:5
	bl	HAL_DMA_DeInit
	movs	r0, #52
	.loc	6 419 5 is_stmt 1               @ ../Core/Src/usart.c:419:5
	bl	HAL_NVIC_DisableIRQ
	.loc	6 423 3                         @ ../Core/Src/usart.c:423:3
	b	.LBB6_14
.Ltmp95:
.LBB6_2:
	.loc	6 424 11                        @ ../Core/Src/usart.c:424:11
	ldr	r0, [sp, #4]
	.loc	6 424 23 is_stmt 0              @ ../Core/Src/usart.c:424:23
	ldr	r0, [r0]
	movw	r1, #4096
	movt	r1, #16385
.Ltmp96:
	.loc	6 424 11                        @ ../Core/Src/usart.c:424:11
	cmp	r0, r1
	bne	.LBB6_4
	b	.LBB6_3
.LBB6_3:
	.loc	6 0 11                          @ ../Core/Src/usart.c:0:11
	movw	r1, #14404
	movt	r1, #16386
.Ltmp97:
	.loc	6 430 5 is_stmt 1               @ ../Core/Src/usart.c:430:5
	ldr	r0, [r1]
	bic	r0, r0, #16
	str	r0, [r1]
	movs	r0, #0
	movt	r0, #16386
	mov.w	r1, #1536
	.loc	6 436 5                         @ ../Core/Src/usart.c:436:5
	bl	HAL_GPIO_DeInit
	.loc	6 439 20                        @ ../Core/Src/usart.c:439:20
	ldr	r0, [sp, #4]
	.loc	6 439 32 is_stmt 0              @ ../Core/Src/usart.c:439:32
	ldr	r0, [r0, #56]
	.loc	6 439 5                         @ ../Core/Src/usart.c:439:5
	bl	HAL_DMA_DeInit
	.loc	6 440 20 is_stmt 1              @ ../Core/Src/usart.c:440:20
	ldr	r0, [sp, #4]
	.loc	6 440 32 is_stmt 0              @ ../Core/Src/usart.c:440:32
	ldr	r0, [r0, #52]
	.loc	6 440 5                         @ ../Core/Src/usart.c:440:5
	bl	HAL_DMA_DeInit
	movs	r0, #37
	.loc	6 443 5 is_stmt 1               @ ../Core/Src/usart.c:443:5
	bl	HAL_NVIC_DisableIRQ
	.loc	6 447 3                         @ ../Core/Src/usart.c:447:3
	b	.LBB6_13
.Ltmp98:
.LBB6_4:
	.loc	6 448 11                        @ ../Core/Src/usart.c:448:11
	ldr	r0, [sp, #4]
	.loc	6 448 23 is_stmt 0              @ ../Core/Src/usart.c:448:23
	ldr	r0, [r0]
	movw	r1, #17408
	movt	r1, #16384
.Ltmp99:
	.loc	6 448 11                        @ ../Core/Src/usart.c:448:11
	cmp	r0, r1
	bne	.LBB6_6
	b	.LBB6_5
.LBB6_5:
	.loc	6 0 11                          @ ../Core/Src/usart.c:0:11
	movw	r1, #14400
	movt	r1, #16386
.Ltmp100:
	.loc	6 454 5 is_stmt 1               @ ../Core/Src/usart.c:454:5
	ldr	r0, [r1]
	bic	r0, r0, #131072
	str	r0, [r1]
	movw	r0, #3072
	movt	r0, #16386
	movs	r1, #96
	.loc	6 460 5                         @ ../Core/Src/usart.c:460:5
	bl	HAL_GPIO_DeInit
	movs	r0, #38
	.loc	6 463 5                         @ ../Core/Src/usart.c:463:5
	bl	HAL_NVIC_DisableIRQ
	.loc	6 467 3                         @ ../Core/Src/usart.c:467:3
	b	.LBB6_12
.Ltmp101:
.LBB6_6:
	.loc	6 468 11                        @ ../Core/Src/usart.c:468:11
	ldr	r0, [sp, #4]
	.loc	6 468 23 is_stmt 0              @ ../Core/Src/usart.c:468:23
	ldr	r0, [r0]
	movw	r1, #18432
	movt	r1, #16384
.Ltmp102:
	.loc	6 468 11                        @ ../Core/Src/usart.c:468:11
	cmp	r0, r1
	bne	.LBB6_8
	b	.LBB6_7
.LBB6_7:
	.loc	6 0 11                          @ ../Core/Src/usart.c:0:11
	movw	r1, #14400
	movt	r1, #16386
.Ltmp103:
	.loc	6 474 5 is_stmt 1               @ ../Core/Src/usart.c:474:5
	ldr	r0, [r1]
	bic	r0, r0, #262144
	str	r0, [r1]
	movw	r0, #1024
	movt	r0, #16386
	mov.w	r1, #3072
	.loc	6 480 5                         @ ../Core/Src/usart.c:480:5
	bl	HAL_GPIO_DeInit
	movs	r0, #39
	.loc	6 483 5                         @ ../Core/Src/usart.c:483:5
	bl	HAL_NVIC_DisableIRQ
	.loc	6 487 3                         @ ../Core/Src/usart.c:487:3
	b	.LBB6_11
.Ltmp104:
.LBB6_8:
	.loc	6 488 11                        @ ../Core/Src/usart.c:488:11
	ldr	r0, [sp, #4]
	.loc	6 488 23 is_stmt 0              @ ../Core/Src/usart.c:488:23
	ldr	r0, [r0]
	movw	r1, #5120
	movt	r1, #16385
.Ltmp105:
	.loc	6 488 11                        @ ../Core/Src/usart.c:488:11
	cmp	r0, r1
	bne	.LBB6_10
	b	.LBB6_9
.LBB6_9:
	.loc	6 0 11                          @ ../Core/Src/usart.c:0:11
	movw	r1, #14404
	movt	r1, #16386
.Ltmp106:
	.loc	6 494 5 is_stmt 1               @ ../Core/Src/usart.c:494:5
	ldr	r0, [r1]
	bic	r0, r0, #32
	str	r0, [r1]
	movw	r0, #2048
	movt	r0, #16386
	movs	r1, #192
	.loc	6 500 5                         @ ../Core/Src/usart.c:500:5
	bl	HAL_GPIO_DeInit
	movs	r0, #71
	.loc	6 503 5                         @ ../Core/Src/usart.c:503:5
	bl	HAL_NVIC_DisableIRQ
	.loc	6 507 3                         @ ../Core/Src/usart.c:507:3
	b	.LBB6_10
.Ltmp107:
.LBB6_10:
	.loc	6 0 3 is_stmt 0                 @ ../Core/Src/usart.c:0:3
	b	.LBB6_11
.LBB6_11:
	b	.LBB6_12
.LBB6_12:
	b	.LBB6_13
.LBB6_13:
	b	.LBB6_14
.LBB6_14:
	.loc	6 508 1 is_stmt 1               @ ../Core/Src/usart.c:508:1
	add	sp, #8
	pop	{r7, pc}
.Ltmp108:
.Lfunc_end6:
	.size	HAL_UART_MspDeInit, .Lfunc_end6-HAL_UART_MspDeInit
	.cfi_endproc
	.cantunwind
	.fnend
                                        @ -- End function
	.section	.text.fputc,"ax",%progbits
	.hidden	fputc                           @ -- Begin function fputc
	.globl	fputc
	.p2align	2
	.type	fputc,%function
	.code	16                              @ @fputc
	.thumb_func
fputc:
.Lfunc_begin7:
	.loc	6 519 0                         @ ../Core/Src/usart.c:519:0
	.fnstart
	.cfi_startproc
@ %bb.0:
	.save	{r7, lr}
	push	{r7, lr}
	.cfi_def_cfa_offset 8
	.cfi_offset lr, -4
	.cfi_offset r7, -8
	.pad	#8
	sub	sp, #8
	.cfi_def_cfa_offset 16
	str	r0, [sp, #4]
	str	r1, [sp]
.Ltmp109:
	.loc	6 520 4 prologue_end            @ ../Core/Src/usart.c:520:4
	ldr	r0, [sp, #4]
	.loc	6 520 3 is_stmt 0               @ ../Core/Src/usart.c:520:3
	movw	r1, :lower16:ch
	movt	r1, :upper16:ch
	strb	r0, [r1]
	.loc	6 521 1 is_stmt 1               @ ../Core/Src/usart.c:521:1
	movw	r0, :lower16:huart2
	movt	r0, :upper16:huart2
	movs	r2, #1
	mov.w	r3, #1000
	bl	HAL_UART_Transmit
	.loc	6 522 8                         @ ../Core/Src/usart.c:522:8
	ldr	r0, [sp, #4]
	.loc	6 522 1 is_stmt 0               @ ../Core/Src/usart.c:522:1
	add	sp, #8
	pop	{r7, pc}
.Ltmp110:
.Lfunc_end7:
	.size	fputc, .Lfunc_end7-fputc
	.cfi_endproc
	.cantunwind
	.fnend
                                        @ -- End function
	.hidden	huart4                          @ @huart4
	.type	huart4,%object
	.section	.bss.huart4,"aw",%nobits
	.globl	huart4
	.p2align	2, 0x0
huart4:
	.zero	68
	.size	huart4, 68

	.hidden	huart1                          @ @huart1
	.type	huart1,%object
	.section	.bss.huart1,"aw",%nobits
	.globl	huart1
	.p2align	2, 0x0
huart1:
	.zero	68
	.size	huart1, 68

	.hidden	huart2                          @ @huart2
	.type	huart2,%object
	.section	.bss.huart2,"aw",%nobits
	.globl	huart2
	.p2align	2, 0x0
huart2:
	.zero	68
	.size	huart2, 68

	.hidden	huart3                          @ @huart3
	.type	huart3,%object
	.section	.bss.huart3,"aw",%nobits
	.globl	huart3
	.p2align	2, 0x0
huart3:
	.zero	68
	.size	huart3, 68

	.hidden	huart6                          @ @huart6
	.type	huart6,%object
	.section	.bss.huart6,"aw",%nobits
	.globl	huart6
	.p2align	2, 0x0
huart6:
	.zero	68
	.size	huart6, 68

	.hidden	hdma_uart4_rx                   @ @hdma_uart4_rx
	.type	hdma_uart4_rx,%object
	.section	.bss.hdma_uart4_rx,"aw",%nobits
	.globl	hdma_uart4_rx
	.p2align	2, 0x0
hdma_uart4_rx:
	.zero	96
	.size	hdma_uart4_rx, 96

	.hidden	hdma_uart4_tx                   @ @hdma_uart4_tx
	.type	hdma_uart4_tx,%object
	.section	.bss.hdma_uart4_tx,"aw",%nobits
	.globl	hdma_uart4_tx
	.p2align	2, 0x0
hdma_uart4_tx:
	.zero	96
	.size	hdma_uart4_tx, 96

	.hidden	hdma_usart1_rx                  @ @hdma_usart1_rx
	.type	hdma_usart1_rx,%object
	.section	.bss.hdma_usart1_rx,"aw",%nobits
	.globl	hdma_usart1_rx
	.p2align	2, 0x0
hdma_usart1_rx:
	.zero	96
	.size	hdma_usart1_rx, 96

	.hidden	hdma_usart1_tx                  @ @hdma_usart1_tx
	.type	hdma_usart1_tx,%object
	.section	.bss.hdma_usart1_tx,"aw",%nobits
	.globl	hdma_usart1_tx
	.p2align	2, 0x0
hdma_usart1_tx:
	.zero	96
	.size	hdma_usart1_tx, 96

	.hidden	ch                              @ @ch
	.type	ch,%object
	.section	.bss.ch,"aw",%nobits
	.globl	ch
ch:
	.byte	0                               @ 0x0
	.size	ch, 1

	.hidden	ch_r                            @ @ch_r
	.type	ch_r,%object
	.section	.bss.ch_r,"aw",%nobits
	.globl	ch_r
ch_r:
	.byte	0                               @ 0x0
	.size	ch_r, 1

	.file	7 "C:\\Users\\DELL\\Desktop\\NewFolder\\OpticalFiberAmplifierTestRack\\MDK-ARM" "../Drivers/STM32F4xx_HAL_Driver/Inc\\stm32f4xx_hal_gpio.h"
	.file	8 "e:\\Keil_v5\\ARM\\ARMCLANG\\Bin\\..\\include" "stdio.h"
	.section	".note.GNU-stack","",%progbits
	.eabi_attribute	30, 6	@ Tag_ABI_optimization_goals
	.ARM_attribute	16, 1	@ Tag_AV_eba